TN:
SF:/home/fed/Documents/clion-workspace/qt-try/3rdparty/tokenizers-cpp/include/tokenizers_cpp.h
FN:23,23,_ZN10tokenizers9TokenizerD0Ev
FN:23,23,_ZN10tokenizers9TokenizerD2Ev
FN:37,45,_ZN10tokenizers9Tokenizer11EncodeBatchERKSt6vectorINSt7__cxx1112basic_stringIcSt11char_traitsIcESaIcEEESaIS7_EE
FNDA:0,_ZN10tokenizers9TokenizerD0Ev
FNDA:79,_ZN10tokenizers9TokenizerD2Ev
FNDA:0,_ZN10tokenizers9Tokenizer11EncodeBatchERKSt6vectorINSt7__cxx1112basic_stringIcSt11char_traitsIcESaIcEEESaIS7_EE
FNF:3
FNH:1
DA:23,79
DA:37,0
DA:39,0
DA:40,0
DA:41,0
DA:42,0
DA:44,0
DA:45,0
LF:8
LH:1
end_of_record
TN:
SF:/home/fed/Documents/clion-workspace/qt-try/3rdparty/tokenizers-cpp/src/huggingface_tokenizer.cc
FN:100,104,_ZN10tokenizers11HFTokenizer9TokenToIdERKNSt7__cxx1112basic_stringIcSt11char_traitsIcESaIcEEE
FN:111,113,_ZN10tokenizers9Tokenizer12FromBlobJSONERKNSt7__cxx1112basic_stringIcSt11char_traitsIcESaIcEEE
FN:115,121,_ZN10tokenizers9Tokenizer20FromBlobByteLevelBPEERKNSt7__cxx1112basic_stringIcSt11char_traitsIcESaIcEEES8_S8_
FN:18,22,_ZN10tokenizers11HFTokenizerC2EPv
FN:27,31,_ZN10tokenizers11HFTokenizerD0Ev
FN:27,31,_ZN10tokenizers11HFTokenizerD2Ev
FN:34,41,_ZN10tokenizers11HFTokenizer6EncodeERKNSt7__cxx1112basic_stringIcSt11char_traitsIcESaIcEEEb
FN:44,44,_ZN10tokenizers11HFTokenizer6EncodeERKNSt7__cxx1112basic_stringIcSt11char_traitsIcESaIcEEE
FN:46,68,_ZN10tokenizers11HFTokenizer11EncodeBatchERKSt6vectorINSt7__cxx1112basic_stringIcSt11char_traitsIcESaIcEEESaIS7_EEb
FN:70,72,_ZN10tokenizers11HFTokenizer11EncodeBatchERKSt6vectorINSt7__cxx1112basic_stringIcSt11char_traitsIcESaIcEEESaIS7_EE
FN:75,82,_ZN10tokenizers11HFTokenizer6DecodeB5cxx11ERKSt6vectorIiSaIiEEb
FN:84,84,_ZN10tokenizers11HFTokenizer6DecodeB5cxx11ERKSt6vectorIiSaIiEE
FN:86,91,_ZN10tokenizers11HFTokenizer12GetVocabSizeEv
FN:93,98,_ZN10tokenizers11HFTokenizer9IdToTokenB5cxx11Ei
FNDA:786,_ZN10tokenizers11HFTokenizer9TokenToIdERKNSt7__cxx1112basic_stringIcSt11char_traitsIcESaIcEEE
FNDA:79,_ZN10tokenizers9Tokenizer12FromBlobJSONERKNSt7__cxx1112basic_stringIcSt11char_traitsIcESaIcEEE
FNDA:0,_ZN10tokenizers9Tokenizer20FromBlobByteLevelBPEERKNSt7__cxx1112basic_stringIcSt11char_traitsIcESaIcEEES8_S8_
FNDA:79,_ZN10tokenizers11HFTokenizerC2EPv
FNDA:79,_ZN10tokenizers11HFTokenizerD0Ev
FNDA:79,_ZN10tokenizers11HFTokenizerD2Ev
FNDA:262,_ZN10tokenizers11HFTokenizer6EncodeERKNSt7__cxx1112basic_stringIcSt11char_traitsIcESaIcEEEb
FNDA:262,_ZN10tokenizers11HFTokenizer6EncodeERKNSt7__cxx1112basic_stringIcSt11char_traitsIcESaIcEEE
FNDA:0,_ZN10tokenizers11HFTokenizer11EncodeBatchERKSt6vectorINSt7__cxx1112basic_stringIcSt11char_traitsIcESaIcEEESaIS7_EEb
FNDA:0,_ZN10tokenizers11HFTokenizer11EncodeBatchERKSt6vectorINSt7__cxx1112basic_stringIcSt11char_traitsIcESaIcEEESaIS7_EE
FNDA:21759,_ZN10tokenizers11HFTokenizer6DecodeB5cxx11ERKSt6vectorIiSaIiEEb
FNDA:21759,_ZN10tokenizers11HFTokenizer6DecodeB5cxx11ERKSt6vectorIiSaIiEE
FNDA:79,_ZN10tokenizers11HFTokenizer12GetVocabSizeEv
FNDA:0,_ZN10tokenizers11HFTokenizer9IdToTokenB5cxx11Ei
FNF:14
FNH:10
DA:18,79
DA:22,79
DA:27,158
DA:28,79
DA:29,79
DA:31,158
DA:34,262
DA:36,262
DA:38,262
DA:39,262
DA:40,262
DA:41,0
DA:44,262
DA:46,0
DA:48,0
DA:49,0
DA:50,0
DA:51,0
DA:52,0
DA:53,0
DA:54,0
DA:55,0
DA:57,0
DA:58,0
DA:60,0
DA:61,0
DA:62,0
DA:63,0
DA:64,0
DA:66,0
DA:67,0
DA:68,0
DA:70,0
DA:71,0
DA:75,21759
DA:76,21759
DA:80,21759
DA:81,43518
DA:84,21759
DA:86,79
DA:88,79
DA:89,79
DA:90,79
DA:93,0
DA:96,0
DA:97,0
DA:100,786
DA:102,786
DA:103,786
DA:111,79
DA:112,79
DA:115,0
DA:118,0
DA:120,0
LF:54
LH:26
end_of_record
TN:
SF:/home/fed/Documents/clion-workspace/qt-try/build/tests/test_batchprocessdialog_autogen/7KRDZL6R5E/moc_configmanager.cpp
FN:117,120,_ZN6optikg13ConfigManager14settingChangedERK7QString
FN:70,83,_ZN6optikg13ConfigManager18qt_static_metacallEP7QObjectN11QMetaObject4CallEiPPv
FN:85,88,_ZNK6optikg13ConfigManager10metaObjectEv
FN:90,96,_ZN6optikg13ConfigManager11qt_metacastEPKc
FN:98,114,_ZN6optikg13ConfigManager11qt_metacallEN11QMetaObject4CallEiPPv
FNDA:8,_ZN6optikg13ConfigManager14settingChangedERK7QString
FNDA:0,_ZN6optikg13ConfigManager18qt_static_metacallEP7QObjectN11QMetaObject4CallEiPPv
FNDA:0,_ZNK6optikg13ConfigManager10metaObjectEv
FNDA:0,_ZN6optikg13ConfigManager11qt_metacastEPKc
FNDA:0,_ZN6optikg13ConfigManager11qt_metacallEN11QMetaObject4CallEiPPv
FNF:5
FNH:1
DA:70,0
DA:72,0
DA:73,0
DA:74,0
DA:75,0
DA:76,0
DA:79,0
DA:80,0
DA:81,0
DA:85,0
DA:87,0
DA:90,0
DA:92,0
DA:93,0
DA:94,0
DA:95,0
DA:98,0
DA:100,0
DA:101,0
DA:102,0
DA:103,0
DA:104,0
DA:105,0
DA:106,0
DA:108,0
DA:109,0
DA:110,0
DA:111,0
DA:113,0
DA:117,8
DA:119,8
DA:120,8
LF:32
LH:3
end_of_record
TN:
SF:/home/fed/Documents/clion-workspace/qt-try/build/tests/test_batchprocessdialog_autogen/MV7IEL3DTJ/moc_batchprocessor.cpp
FN:105,145,_ZN6optikg14BatchProcessor18qt_static_metacallEP7QObjectN11QMetaObject4CallEiPPv
FN:147,150,_ZNK6optikg14BatchProcessor10metaObjectEv
FN:152,158,_ZN6optikg14BatchProcessor11qt_metacastEPKc
FN:160,176,_ZN6optikg14BatchProcessor11qt_metacallEN11QMetaObject4CallEiPPv
FN:179,182,_ZN6optikg14BatchProcessor15progressChangedEiiRK7QString
FN:185,188,_ZN6optikg14BatchProcessor12scanProgressEiiRK7QString
FN:191,194,_ZN6optikg14BatchProcessor12scanFinishedEii
FN:197,200,_ZN6optikg14BatchProcessor13fileProcessedERKNS_17FileProcessResultE
FN:203,206,_ZN6optikg14BatchProcessor13errorOccurredERK7QStringS3_
FN:209,212,_ZN6optikg14BatchProcessor13batchFinishedEiii
FNDA:10,_ZN6optikg14BatchProcessor18qt_static_metacallEP7QObjectN11QMetaObject4CallEiPPv
FNDA:28,_ZNK6optikg14BatchProcessor10metaObjectEv
FNDA:0,_ZN6optikg14BatchProcessor11qt_metacastEPKc
FNDA:0,_ZN6optikg14BatchProcessor11qt_metacallEN11QMetaObject4CallEiPPv
FNDA:2,_ZN6optikg14BatchProcessor15progressChangedEiiRK7QString
FNDA:12,_ZN6optikg14BatchProcessor12scanProgressEiiRK7QString
FNDA:8,_ZN6optikg14BatchProcessor12scanFinishedEii
FNDA:2,_ZN6optikg14BatchProcessor13fileProcessedERKNS_17FileProcessResultE
FNDA:4,_ZN6optikg14BatchProcessor13errorOccurredERK7QStringS3_
FNDA:8,_ZN6optikg14BatchProcessor13batchFinishedEiii
FNF:10
FNH:8
DA:105,10
DA:107,10
DA:108,10
DA:109,0
DA:110,0
DA:111,0
DA:112,0
DA:113,0
DA:114,0
DA:115,0
DA:116,0
DA:119,10
DA:120,0
DA:121,0
DA:122,0
DA:123,0
DA:124,0
DA:125,0
DA:126,0
DA:128,0
DA:131,10
DA:132,10
DA:133,0
DA:134,10
DA:135,2
DA:136,8
DA:137,2
DA:138,6
DA:139,2
DA:140,4
DA:141,2
DA:142,2
DA:143,2
DA:147,28
DA:149,28
DA:152,0
DA:154,0
DA:155,0
DA:156,0
DA:157,0
DA:160,0
DA:162,0
DA:163,0
DA:164,0
DA:165,0
DA:166,0
DA:167,0
DA:168,0
DA:170,0
DA:171,0
DA:172,0
DA:173,0
DA:175,0
DA:179,2
DA:181,2
DA:182,2
DA:185,12
DA:187,12
DA:188,12
DA:191,8
DA:193,8
DA:194,8
DA:197,2
DA:199,2
DA:200,2
DA:203,4
DA:205,4
DA:206,4
DA:209,8
DA:211,8
DA:212,8
LF:71
LH:36
end_of_record
TN:
SF:/home/fed/Documents/clion-workspace/qt-try/build/tests/test_batchprocessdialog_autogen/MV7IEL3DTJ/moc_inferenceworker.cpp
FN:105,108,_ZNK6optikg15InferenceWorker10metaObjectEv
FN:110,116,_ZN6optikg15InferenceWorker11qt_metacastEPKc
FN:118,134,_ZN6optikg15InferenceWorker11qt_metacallEN11QMetaObject4CallEiPPv
FN:137,140,_ZN6optikg15InferenceWorker15progressChangedEi
FN:143,146,_ZN6optikg15InferenceWorker11resultReadyERK5QListINS_6TripleEE
FN:149,152,_ZN6optikg15InferenceWorker13errorOccurredERK7QString
FN:84,103,_ZN6optikg15InferenceWorker18qt_static_metacallEP7QObjectN11QMetaObject4CallEiPPv
FNDA:0,_ZNK6optikg15InferenceWorker10metaObjectEv
FNDA:0,_ZN6optikg15InferenceWorker11qt_metacastEPKc
FNDA:0,_ZN6optikg15InferenceWorker11qt_metacallEN11QMetaObject4CallEiPPv
FNDA:0,_ZN6optikg15InferenceWorker15progressChangedEi
FNDA:0,_ZN6optikg15InferenceWorker11resultReadyERK5QListINS_6TripleEE
FNDA:0,_ZN6optikg15InferenceWorker13errorOccurredERK7QString
FNDA:0,_ZN6optikg15InferenceWorker18qt_static_metacallEP7QObjectN11QMetaObject4CallEiPPv
FNF:7
FNH:0
DA:84,0
DA:86,0
DA:87,0
DA:88,0
DA:89,0
DA:90,0
DA:91,0
DA:92,0
DA:95,0
DA:96,0
DA:97,0
DA:98,0
DA:99,0
DA:100,0
DA:101,0
DA:105,0
DA:107,0
DA:110,0
DA:112,0
DA:113,0
DA:114,0
DA:115,0
DA:118,0
DA:120,0
DA:121,0
DA:122,0
DA:123,0
DA:124,0
DA:125,0
DA:126,0
DA:128,0
DA:129,0
DA:130,0
DA:131,0
DA:133,0
DA:137,0
DA:139,0
DA:140,0
DA:143,0
DA:145,0
DA:146,0
DA:149,0
DA:151,0
DA:152,0
LF:44
LH:0
end_of_record
TN:
SF:/home/fed/Documents/clion-workspace/qt-try/build/tests/test_batchprocessdialog_autogen/RF5KSEWXUK/moc_batchprocessdialog.cpp
FN:141,177,_ZN6optikg18BatchProcessDialog18qt_static_metacallEP7QObjectN11QMetaObject4CallEiPPv
FN:179,182,_ZNK6optikg18BatchProcessDialog10metaObjectEv
FN:184,190,_ZN6optikg18BatchProcessDialog11qt_metacastEPKc
FN:192,208,_ZN6optikg18BatchProcessDialog11qt_metacallEN11QMetaObject4CallEiPPv
FNDA:24,_ZN6optikg18BatchProcessDialog18qt_static_metacallEP7QObjectN11QMetaObject4CallEiPPv
FNDA:3412,_ZNK6optikg18BatchProcessDialog10metaObjectEv
FNDA:578,_ZN6optikg18BatchProcessDialog11qt_metacastEPKc
FNDA:68,_ZN6optikg18BatchProcessDialog11qt_metacallEN11QMetaObject4CallEiPPv
FNF:4
FNH:4
DA:141,24
DA:143,24
DA:144,24
DA:145,24
DA:146,0
DA:147,2
DA:148,0
DA:149,0
DA:150,2
DA:151,4
DA:152,0
DA:153,0
DA:154,0
DA:155,2
DA:156,2
DA:157,2
DA:158,0
DA:159,2
DA:160,4
DA:161,4
DA:162,24
DA:165,24
DA:166,0
DA:167,0
DA:168,0
DA:169,0
DA:170,0
DA:171,0
DA:172,0
DA:174,0
DA:177,24
DA:179,3412
DA:181,3412
DA:184,578
DA:186,578
DA:187,578
DA:188,0
DA:189,578
DA:192,68
DA:194,68
DA:195,68
DA:196,68
DA:197,0
DA:198,0
DA:199,0
DA:200,0
DA:202,0
DA:203,0
DA:204,0
DA:205,0
DA:207,0
LF:51
LH:26
end_of_record
TN:
SF:/home/fed/Documents/clion-workspace/qt-try/build/tests/test_batchprocessdialog_autogen/RF5KSEWXUK/moc_extractionpanel.cpp
FN:105,108,_ZNK6optikg15ExtractionPanel10metaObjectEv
FN:110,116,_ZN6optikg15ExtractionPanel11qt_metacastEPKc
FN:118,134,_ZN6optikg15ExtractionPanel11qt_metacallEN11QMetaObject4CallEiPPv
FN:137,140,_ZN6optikg15ExtractionPanel14extractClickedEv
FN:143,146,_ZN6optikg15ExtractionPanel12clearClickedEv
FN:149,152,_ZN6optikg15ExtractionPanel11textChangedERK7QString
FN:82,103,_ZN6optikg15ExtractionPanel18qt_static_metacallEP7QObjectN11QMetaObject4CallEiPPv
FNDA:0,_ZNK6optikg15ExtractionPanel10metaObjectEv
FNDA:0,_ZN6optikg15ExtractionPanel11qt_metacastEPKc
FNDA:0,_ZN6optikg15ExtractionPanel11qt_metacallEN11QMetaObject4CallEiPPv
FNDA:0,_ZN6optikg15ExtractionPanel14extractClickedEv
FNDA:0,_ZN6optikg15ExtractionPanel12clearClickedEv
FNDA:0,_ZN6optikg15ExtractionPanel11textChangedERK7QString
FNDA:0,_ZN6optikg15ExtractionPanel18qt_static_metacallEP7QObjectN11QMetaObject4CallEiPPv
FNF:7
FNH:0
DA:82,0
DA:84,0
DA:85,0
DA:86,0
DA:87,0
DA:88,0
DA:89,0
DA:90,0
DA:91,0
DA:92,0
DA:95,0
DA:96,0
DA:97,0
DA:98,0
DA:99,0
DA:100,0
DA:101,0
DA:105,0
DA:107,0
DA:110,0
DA:112,0
DA:113,0
DA:114,0
DA:115,0
DA:118,0
DA:120,0
DA:121,0
DA:122,0
DA:123,0
DA:124,0
DA:125,0
DA:126,0
DA:128,0
DA:129,0
DA:130,0
DA:131,0
DA:133,0
DA:137,0
DA:139,0
DA:140,0
DA:143,0
DA:145,0
DA:146,0
DA:149,0
DA:151,0
DA:152,0
LF:46
LH:0
end_of_record
TN:
SF:/home/fed/Documents/clion-workspace/qt-try/build/tests/test_batchprocessdialog_autogen/RF5KSEWXUK/moc_graphwidget.cpp
FN:102,108,_ZN6optikg11GraphWidget11qt_metacastEPKc
FN:110,126,_ZN6optikg11GraphWidget11qt_metacallEN11QMetaObject4CallEiPPv
FN:129,132,_ZN6optikg11GraphWidget11nodeClickedERK7QStringS3_
FN:135,138,_ZN6optikg11GraphWidget11edgeClickedERK7QStringS3_S3_
FN:79,95,_ZN6optikg11GraphWidget18qt_static_metacallEP7QObjectN11QMetaObject4CallEiPPv
FN:97,100,_ZNK6optikg11GraphWidget10metaObjectEv
FNDA:0,_ZN6optikg11GraphWidget11qt_metacastEPKc
FNDA:0,_ZN6optikg11GraphWidget11qt_metacallEN11QMetaObject4CallEiPPv
FNDA:0,_ZN6optikg11GraphWidget11nodeClickedERK7QStringS3_
FNDA:0,_ZN6optikg11GraphWidget11edgeClickedERK7QStringS3_S3_
FNDA:0,_ZN6optikg11GraphWidget18qt_static_metacallEP7QObjectN11QMetaObject4CallEiPPv
FNDA:0,_ZNK6optikg11GraphWidget10metaObjectEv
FNF:6
FNH:0
DA:79,0
DA:81,0
DA:82,0
DA:83,0
DA:84,0
DA:85,0
DA:86,0
DA:89,0
DA:90,0
DA:91,0
DA:92,0
DA:93,0
DA:97,0
DA:99,0
DA:102,0
DA:104,0
DA:105,0
DA:106,0
DA:107,0
DA:110,0
DA:112,0
DA:113,0
DA:114,0
DA:115,0
DA:116,0
DA:117,0
DA:118,0
DA:120,0
DA:121,0
DA:122,0
DA:123,0
DA:125,0
DA:129,0
DA:131,0
DA:132,0
DA:135,0
DA:137,0
DA:138,0
LF:38
LH:0
end_of_record
TN:
SF:/home/fed/Documents/clion-workspace/qt-try/build/tests/test_batchprocessdialog_autogen/RF5KSEWXUK/moc_historypanel.cpp
FN:115,163,_ZN6optikg12HistoryPanel18qt_static_metacallEP7QObjectN11QMetaObject4CallEiPPv
FN:165,168,_ZNK6optikg12HistoryPanel10metaObjectEv
FN:170,176,_ZN6optikg12HistoryPanel11qt_metacastEPKc
FN:178,194,_ZN6optikg12HistoryPanel11qt_metacallEN11QMetaObject4CallEiPPv
FN:197,200,_ZN6optikg12HistoryPanel13recordClickedEx
FN:203,206,_ZN6optikg12HistoryPanel19recordDoubleClickedEx
FN:209,212,_ZN6optikg12HistoryPanel13exportClickedERK5QListIxE
FN:215,218,_ZN6optikg12HistoryPanel18batchDeleteClickedERK5QListIxE
FNDA:0,_ZN6optikg12HistoryPanel18qt_static_metacallEP7QObjectN11QMetaObject4CallEiPPv
FNDA:0,_ZNK6optikg12HistoryPanel10metaObjectEv
FNDA:0,_ZN6optikg12HistoryPanel11qt_metacastEPKc
FNDA:0,_ZN6optikg12HistoryPanel11qt_metacallEN11QMetaObject4CallEiPPv
FNDA:0,_ZN6optikg12HistoryPanel13recordClickedEx
FNDA:0,_ZN6optikg12HistoryPanel19recordDoubleClickedEx
FNDA:0,_ZN6optikg12HistoryPanel13exportClickedERK5QListIxE
FNDA:0,_ZN6optikg12HistoryPanel18batchDeleteClickedERK5QListIxE
FNF:8
FNH:0
DA:115,0
DA:117,0
DA:118,0
DA:119,0
DA:120,0
DA:121,0
DA:122,0
DA:123,0
DA:124,0
DA:125,0
DA:126,0
DA:127,0
DA:128,0
DA:129,0
DA:130,0
DA:131,0
DA:134,0
DA:135,0
DA:136,0
DA:137,0
DA:138,0
DA:139,0
DA:140,0
DA:141,0
DA:143,0
DA:144,0
DA:145,0
DA:146,0
DA:147,0
DA:148,0
DA:150,0
DA:153,0
DA:154,0
DA:155,0
DA:156,0
DA:157,0
DA:158,0
DA:159,0
DA:160,0
DA:161,0
DA:165,0
DA:167,0
DA:170,0
DA:172,0
DA:173,0
DA:174,0
DA:175,0
DA:178,0
DA:180,0
DA:181,0
DA:182,0
DA:183,0
DA:184,0
DA:185,0
DA:186,0
DA:188,0
DA:189,0
DA:190,0
DA:191,0
DA:193,0
DA:197,0
DA:199,0
DA:200,0
DA:203,0
DA:205,0
DA:206,0
DA:209,0
DA:211,0
DA:212,0
DA:215,0
DA:217,0
DA:218,0
LF:72
LH:0
end_of_record
TN:
SF:/home/fed/Documents/clion-workspace/qt-try/build/tests/test_batchprocessdialog_autogen/RF5KSEWXUK/moc_mainwindow.cpp
FN:124,159,_ZN6optikg10MainWindow18qt_static_metacallEP7QObjectN11QMetaObject4CallEiPPv
FN:161,164,_ZNK6optikg10MainWindow10metaObjectEv
FN:166,172,_ZN6optikg10MainWindow11qt_metacastEPKc
FN:174,190,_ZN6optikg10MainWindow11qt_metacallEN11QMetaObject4CallEiPPv
FNDA:0,_ZN6optikg10MainWindow18qt_static_metacallEP7QObjectN11QMetaObject4CallEiPPv
FNDA:0,_ZNK6optikg10MainWindow10metaObjectEv
FNDA:0,_ZN6optikg10MainWindow11qt_metacastEPKc
FNDA:0,_ZN6optikg10MainWindow11qt_metacallEN11QMetaObject4CallEiPPv
FNF:4
FNH:0
DA:124,0
DA:126,0
DA:127,0
DA:128,0
DA:129,0
DA:130,0
DA:131,0
DA:132,0
DA:133,0
DA:134,0
DA:135,0
DA:136,0
DA:137,0
DA:138,0
DA:139,0
DA:140,0
DA:141,0
DA:142,0
DA:143,0
DA:144,0
DA:147,0
DA:148,0
DA:149,0
DA:150,0
DA:151,0
DA:152,0
DA:153,0
DA:154,0
DA:156,0
DA:159,0
DA:161,0
DA:163,0
DA:166,0
DA:168,0
DA:169,0
DA:170,0
DA:171,0
DA:174,0
DA:176,0
DA:177,0
DA:178,0
DA:179,0
DA:180,0
DA:181,0
DA:182,0
DA:184,0
DA:185,0
DA:186,0
DA:187,0
DA:189,0
LF:50
LH:0
end_of_record
TN:
SF:/home/fed/Documents/clion-workspace/qt-try/build/tests/test_batchprocessdialog_autogen/RF5KSEWXUK/moc_resulttreewidget.cpp
FN:101,107,_ZN6optikg16ResultTreeWidget11qt_metacastEPKc
FN:109,125,_ZN6optikg16ResultTreeWidget11qt_metacallEN11QMetaObject4CallEiPPv
FN:128,131,_ZN6optikg16ResultTreeWidget13entityClickedERK7QStringS3_
FN:134,137,_ZN6optikg16ResultTreeWidget13tripleClickedERKNS_6TripleE
FN:78,94,_ZN6optikg16ResultTreeWidget18qt_static_metacallEP7QObjectN11QMetaObject4CallEiPPv
FN:96,99,_ZNK6optikg16ResultTreeWidget10metaObjectEv
FNDA:0,_ZN6optikg16ResultTreeWidget11qt_metacastEPKc
FNDA:0,_ZN6optikg16ResultTreeWidget11qt_metacallEN11QMetaObject4CallEiPPv
FNDA:0,_ZN6optikg16ResultTreeWidget13entityClickedERK7QStringS3_
FNDA:0,_ZN6optikg16ResultTreeWidget13tripleClickedERKNS_6TripleE
FNDA:0,_ZN6optikg16ResultTreeWidget18qt_static_metacallEP7QObjectN11QMetaObject4CallEiPPv
FNDA:0,_ZNK6optikg16ResultTreeWidget10metaObjectEv
FNF:6
FNH:0
DA:78,0
DA:80,0
DA:81,0
DA:82,0
DA:83,0
DA:84,0
DA:85,0
DA:88,0
DA:89,0
DA:90,0
DA:91,0
DA:92,0
DA:96,0
DA:98,0
DA:101,0
DA:103,0
DA:104,0
DA:105,0
DA:106,0
DA:109,0
DA:111,0
DA:112,0
DA:113,0
DA:114,0
DA:115,0
DA:116,0
DA:117,0
DA:119,0
DA:120,0
DA:121,0
DA:122,0
DA:124,0
DA:128,0
DA:130,0
DA:131,0
DA:134,0
DA:136,0
DA:137,0
LF:38
LH:0
end_of_record
TN:
SF:/home/fed/Documents/clion-workspace/qt-try/build/tests/test_batchprocessdialog_autogen/RF5KSEWXUK/moc_settingsdialog.cpp
FN:104,110,_ZN6optikg14SettingsDialog11qt_metacastEPKc
FN:112,128,_ZN6optikg14SettingsDialog11qt_metacallEN11QMetaObject4CallEiPPv
FN:82,97,_ZN6optikg14SettingsDialog18qt_static_metacallEP7QObjectN11QMetaObject4CallEiPPv
FN:99,102,_ZNK6optikg14SettingsDialog10metaObjectEv
FNDA:0,_ZN6optikg14SettingsDialog11qt_metacastEPKc
FNDA:0,_ZN6optikg14SettingsDialog11qt_metacallEN11QMetaObject4CallEiPPv
FNDA:0,_ZN6optikg14SettingsDialog18qt_static_metacallEP7QObjectN11QMetaObject4CallEiPPv
FNDA:0,_ZNK6optikg14SettingsDialog10metaObjectEv
FNF:4
FNH:0
DA:82,0
DA:84,0
DA:85,0
DA:86,0
DA:87,0
DA:88,0
DA:89,0
DA:90,0
DA:91,0
DA:92,0
DA:93,0
DA:97,0
DA:99,0
DA:101,0
DA:104,0
DA:106,0
DA:107,0
DA:108,0
DA:109,0
DA:112,0
DA:114,0
DA:115,0
DA:116,0
DA:117,0
DA:118,0
DA:119,0
DA:120,0
DA:122,0
DA:123,0
DA:124,0
DA:125,0
DA:127,0
LF:32
LH:0
end_of_record
TN:
SF:/home/fed/Documents/clion-workspace/qt-try/build/tests/test_batchprocessdialog_autogen/VTM74X6NYQ/moc_databasemanager.cpp
FN:104,120,_ZN6optikg15DatabaseManager11qt_metacallEN11QMetaObject4CallEiPPv
FN:123,126,_ZN6optikg15DatabaseManager15databaseChangedEv
FN:129,132,_ZN6optikg15DatabaseManager13errorOccurredERK7QString
FN:73,89,_ZN6optikg15DatabaseManager18qt_static_metacallEP7QObjectN11QMetaObject4CallEiPPv
FN:91,94,_ZNK6optikg15DatabaseManager10metaObjectEv
FN:96,102,_ZN6optikg15DatabaseManager11qt_metacastEPKc
FNDA:0,_ZN6optikg15DatabaseManager11qt_metacallEN11QMetaObject4CallEiPPv
FNDA:0,_ZN6optikg15DatabaseManager15databaseChangedEv
FNDA:0,_ZN6optikg15DatabaseManager13errorOccurredERK7QString
FNDA:0,_ZN6optikg15DatabaseManager18qt_static_metacallEP7QObjectN11QMetaObject4CallEiPPv
FNDA:0,_ZNK6optikg15DatabaseManager10metaObjectEv
FNDA:0,_ZN6optikg15DatabaseManager11qt_metacastEPKc
FNF:6
FNH:0
DA:73,0
DA:75,0
DA:76,0
DA:77,0
DA:78,0
DA:79,0
DA:80,0
DA:83,0
DA:84,0
DA:85,0
DA:86,0
DA:87,0
DA:91,0
DA:93,0
DA:96,0
DA:98,0
DA:99,0
DA:100,0
DA:101,0
DA:104,0
DA:106,0
DA:107,0
DA:108,0
DA:109,0
DA:110,0
DA:111,0
DA:112,0
DA:114,0
DA:115,0
DA:116,0
DA:117,0
DA:119,0
DA:123,0
DA:125,0
DA:126,0
DA:129,0
DA:131,0
DA:132,0
LF:38
LH:0
end_of_record
TN:
SF:/home/fed/Documents/clion-workspace/qt-try/build/tests/test_batchprocessdialog_autogen/include/test_batchprocessdialog.moc
FN:132,164,_ZN22TestBatchProcessDialog18qt_static_metacallEP7QObjectN11QMetaObject4CallEiPPv
FN:166,169,_ZNK22TestBatchProcessDialog10metaObjectEv
FN:171,177,_ZN22TestBatchProcessDialog11qt_metacastEPKc
FN:179,195,_ZN22TestBatchProcessDialog11qt_metacallEN11QMetaObject4CallEiPPv
FNDA:46,_ZN22TestBatchProcessDialog18qt_static_metacallEP7QObjectN11QMetaObject4CallEiPPv
FNDA:58,_ZNK22TestBatchProcessDialog10metaObjectEv
FNDA:0,_ZN22TestBatchProcessDialog11qt_metacastEPKc
FNDA:0,_ZN22TestBatchProcessDialog11qt_metacallEN11QMetaObject4CallEiPPv
FNF:4
FNH:2
DA:132,46
DA:134,46
DA:135,46
DA:136,46
DA:137,2
DA:138,2
DA:139,2
DA:140,2
DA:141,2
DA:142,2
DA:143,2
DA:144,2
DA:145,2
DA:146,2
DA:147,2
DA:148,2
DA:149,2
DA:150,2
DA:151,2
DA:152,2
DA:153,2
DA:154,2
DA:155,2
DA:156,2
DA:157,2
DA:158,2
DA:159,2
DA:160,46
DA:164,46
DA:166,58
DA:168,58
DA:171,0
DA:173,0
DA:174,0
DA:175,0
DA:176,0
DA:179,0
DA:181,0
DA:182,0
DA:183,0
DA:184,0
DA:185,0
DA:186,0
DA:187,0
DA:189,0
DA:190,0
DA:191,0
DA:192,0
DA:194,0
LF:49
LH:31
end_of_record
TN:
SF:/home/fed/Documents/clion-workspace/qt-try/build/tests/test_batchprocessdialog_autogen/include/ui_mainwindow.h
FN:31,56,_ZN13Ui_MainWindow7setupUiEP11QMainWindow
FN:58,61,_ZN13Ui_MainWindow13retranslateUiEP11QMainWindow
FNDA:0,_ZN13Ui_MainWindow7setupUiEP11QMainWindow
FNDA:0,_ZN13Ui_MainWindow13retranslateUiEP11QMainWindow
FNF:2
FNH:0
DA:31,0
DA:33,0
DA:34,0
DA:35,0
DA:36,0
DA:37,0
DA:38,0
DA:39,0
DA:40,0
DA:41,0
DA:42,0
DA:43,0
DA:44,0
DA:45,0
DA:46,0
DA:47,0
DA:48,0
DA:49,0
DA:50,0
DA:51,0
DA:53,0
DA:55,0
DA:56,0
DA:58,0
DA:60,0
DA:61,0
LF:26
LH:0
end_of_record
TN:
SF:/home/fed/Documents/clion-workspace/qt-try/build/tests/test_batchprocessor_autogen/7KRDZL6R5E/moc_configmanager.cpp
FN:117,120,_ZN6optikg13ConfigManager14settingChangedERK7QString
FN:70,83,_ZN6optikg13ConfigManager18qt_static_metacallEP7QObjectN11QMetaObject4CallEiPPv
FN:85,88,_ZNK6optikg13ConfigManager10metaObjectEv
FN:90,96,_ZN6optikg13ConfigManager11qt_metacastEPKc
FN:98,114,_ZN6optikg13ConfigManager11qt_metacallEN11QMetaObject4CallEiPPv
FNDA:0,_ZN6optikg13ConfigManager14settingChangedERK7QString
FNDA:0,_ZN6optikg13ConfigManager18qt_static_metacallEP7QObjectN11QMetaObject4CallEiPPv
FNDA:0,_ZNK6optikg13ConfigManager10metaObjectEv
FNDA:0,_ZN6optikg13ConfigManager11qt_metacastEPKc
FNDA:0,_ZN6optikg13ConfigManager11qt_metacallEN11QMetaObject4CallEiPPv
FNF:5
FNH:0
DA:70,0
DA:72,0
DA:73,0
DA:74,0
DA:75,0
DA:76,0
DA:79,0
DA:80,0
DA:81,0
DA:85,0
DA:87,0
DA:90,0
DA:92,0
DA:93,0
DA:94,0
DA:95,0
DA:98,0
DA:100,0
DA:101,0
DA:102,0
DA:103,0
DA:104,0
DA:105,0
DA:106,0
DA:108,0
DA:109,0
DA:110,0
DA:111,0
DA:113,0
DA:117,0
DA:119,0
DA:120,0
LF:32
LH:0
end_of_record
TN:
SF:/home/fed/Documents/clion-workspace/qt-try/build/tests/test_batchprocessor_autogen/MV7IEL3DTJ/moc_batchprocessor.cpp
FN:105,145,_ZN6optikg14BatchProcessor18qt_static_metacallEP7QObjectN11QMetaObject4CallEiPPv
FN:147,150,_ZNK6optikg14BatchProcessor10metaObjectEv
FN:152,158,_ZN6optikg14BatchProcessor11qt_metacastEPKc
FN:160,176,_ZN6optikg14BatchProcessor11qt_metacallEN11QMetaObject4CallEiPPv
FN:179,182,_ZN6optikg14BatchProcessor15progressChangedEiiRK7QString
FN:185,188,_ZN6optikg14BatchProcessor12scanProgressEiiRK7QString
FN:191,194,_ZN6optikg14BatchProcessor12scanFinishedEii
FN:197,200,_ZN6optikg14BatchProcessor13fileProcessedERKNS_17FileProcessResultE
FN:203,206,_ZN6optikg14BatchProcessor13errorOccurredERK7QStringS3_
FN:209,212,_ZN6optikg14BatchProcessor13batchFinishedEiii
FNDA:40,_ZN6optikg14BatchProcessor18qt_static_metacallEP7QObjectN11QMetaObject4CallEiPPv
FNDA:110,_ZNK6optikg14BatchProcessor10metaObjectEv
FNDA:0,_ZN6optikg14BatchProcessor11qt_metacastEPKc
FNDA:0,_ZN6optikg14BatchProcessor11qt_metacallEN11QMetaObject4CallEiPPv
FNDA:22,_ZN6optikg14BatchProcessor15progressChangedEiiRK7QString
FNDA:62,_ZN6optikg14BatchProcessor12scanProgressEiiRK7QString
FNDA:30,_ZN6optikg14BatchProcessor12scanFinishedEii
FNDA:26,_ZN6optikg14BatchProcessor13fileProcessedERKNS_17FileProcessResultE
FNDA:30,_ZN6optikg14BatchProcessor13errorOccurredERK7QStringS3_
FNDA:30,_ZN6optikg14BatchProcessor13batchFinishedEiii
FNF:10
FNH:8
DA:105,40
DA:107,40
DA:108,40
DA:109,0
DA:110,0
DA:111,0
DA:112,0
DA:113,0
DA:114,0
DA:115,0
DA:116,0
DA:119,40
DA:120,0
DA:121,0
DA:122,0
DA:123,0
DA:124,0
DA:125,0
DA:126,0
DA:128,0
DA:131,40
DA:132,40
DA:133,2
DA:134,38
DA:135,2
DA:136,36
DA:137,10
DA:138,26
DA:139,2
DA:140,24
DA:141,10
DA:142,14
DA:143,14
DA:147,110
DA:149,110
DA:152,0
DA:154,0
DA:155,0
DA:156,0
DA:157,0
DA:160,0
DA:162,0
DA:163,0
DA:164,0
DA:165,0
DA:166,0
DA:167,0
DA:168,0
DA:170,0
DA:171,0
DA:172,0
DA:173,0
DA:175,0
DA:179,22
DA:181,22
DA:182,22
DA:185,62
DA:187,62
DA:188,62
DA:191,30
DA:193,30
DA:194,30
DA:197,26
DA:199,26
DA:200,26
DA:203,30
DA:205,30
DA:206,30
DA:209,30
DA:211,30
DA:212,30
LF:71
LH:37
end_of_record
TN:
SF:/home/fed/Documents/clion-workspace/qt-try/build/tests/test_batchprocessor_autogen/MV7IEL3DTJ/moc_inferenceworker.cpp
FN:105,108,_ZNK6optikg15InferenceWorker10metaObjectEv
FN:110,116,_ZN6optikg15InferenceWorker11qt_metacastEPKc
FN:118,134,_ZN6optikg15InferenceWorker11qt_metacallEN11QMetaObject4CallEiPPv
FN:137,140,_ZN6optikg15InferenceWorker15progressChangedEi
FN:143,146,_ZN6optikg15InferenceWorker11resultReadyERK5QListINS_6TripleEE
FN:149,152,_ZN6optikg15InferenceWorker13errorOccurredERK7QString
FN:84,103,_ZN6optikg15InferenceWorker18qt_static_metacallEP7QObjectN11QMetaObject4CallEiPPv
FNDA:0,_ZNK6optikg15InferenceWorker10metaObjectEv
FNDA:0,_ZN6optikg15InferenceWorker11qt_metacastEPKc
FNDA:0,_ZN6optikg15InferenceWorker11qt_metacallEN11QMetaObject4CallEiPPv
FNDA:0,_ZN6optikg15InferenceWorker15progressChangedEi
FNDA:0,_ZN6optikg15InferenceWorker11resultReadyERK5QListINS_6TripleEE
FNDA:0,_ZN6optikg15InferenceWorker13errorOccurredERK7QString
FNDA:0,_ZN6optikg15InferenceWorker18qt_static_metacallEP7QObjectN11QMetaObject4CallEiPPv
FNF:7
FNH:0
DA:84,0
DA:86,0
DA:87,0
DA:88,0
DA:89,0
DA:90,0
DA:91,0
DA:92,0
DA:95,0
DA:96,0
DA:97,0
DA:98,0
DA:99,0
DA:100,0
DA:101,0
DA:105,0
DA:107,0
DA:110,0
DA:112,0
DA:113,0
DA:114,0
DA:115,0
DA:118,0
DA:120,0
DA:121,0
DA:122,0
DA:123,0
DA:124,0
DA:125,0
DA:126,0
DA:128,0
DA:129,0
DA:130,0
DA:131,0
DA:133,0
DA:137,0
DA:139,0
DA:140,0
DA:143,0
DA:145,0
DA:146,0
DA:149,0
DA:151,0
DA:152,0
LF:44
LH:0
end_of_record
TN:
SF:/home/fed/Documents/clion-workspace/qt-try/build/tests/test_batchprocessor_autogen/RF5KSEWXUK/moc_batchprocessdialog.cpp
FN:141,177,_ZN6optikg18BatchProcessDialog18qt_static_metacallEP7QObjectN11QMetaObject4CallEiPPv
FN:179,182,_ZNK6optikg18BatchProcessDialog10metaObjectEv
FN:184,190,_ZN6optikg18BatchProcessDialog11qt_metacastEPKc
FN:192,208,_ZN6optikg18BatchProcessDialog11qt_metacallEN11QMetaObject4CallEiPPv
FNDA:0,_ZN6optikg18BatchProcessDialog18qt_static_metacallEP7QObjectN11QMetaObject4CallEiPPv
FNDA:0,_ZNK6optikg18BatchProcessDialog10metaObjectEv
FNDA:0,_ZN6optikg18BatchProcessDialog11qt_metacastEPKc
FNDA:0,_ZN6optikg18BatchProcessDialog11qt_metacallEN11QMetaObject4CallEiPPv
FNF:4
FNH:0
DA:141,0
DA:143,0
DA:144,0
DA:145,0
DA:146,0
DA:147,0
DA:148,0
DA:149,0
DA:150,0
DA:151,0
DA:152,0
DA:153,0
DA:154,0
DA:155,0
DA:156,0
DA:157,0
DA:158,0
DA:159,0
DA:160,0
DA:161,0
DA:162,0
DA:165,0
DA:166,0
DA:167,0
DA:168,0
DA:169,0
DA:170,0
DA:171,0
DA:172,0
DA:174,0
DA:177,0
DA:179,0
DA:181,0
DA:184,0
DA:186,0
DA:187,0
DA:188,0
DA:189,0
DA:192,0
DA:194,0
DA:195,0
DA:196,0
DA:197,0
DA:198,0
DA:199,0
DA:200,0
DA:202,0
DA:203,0
DA:204,0
DA:205,0
DA:207,0
LF:51
LH:0
end_of_record
TN:
SF:/home/fed/Documents/clion-workspace/qt-try/build/tests/test_batchprocessor_autogen/RF5KSEWXUK/moc_extractionpanel.cpp
FN:105,108,_ZNK6optikg15ExtractionPanel10metaObjectEv
FN:110,116,_ZN6optikg15ExtractionPanel11qt_metacastEPKc
FN:118,134,_ZN6optikg15ExtractionPanel11qt_metacallEN11QMetaObject4CallEiPPv
FN:137,140,_ZN6optikg15ExtractionPanel14extractClickedEv
FN:143,146,_ZN6optikg15ExtractionPanel12clearClickedEv
FN:149,152,_ZN6optikg15ExtractionPanel11textChangedERK7QString
FN:82,103,_ZN6optikg15ExtractionPanel18qt_static_metacallEP7QObjectN11QMetaObject4CallEiPPv
FNDA:0,_ZNK6optikg15ExtractionPanel10metaObjectEv
FNDA:0,_ZN6optikg15ExtractionPanel11qt_metacastEPKc
FNDA:0,_ZN6optikg15ExtractionPanel11qt_metacallEN11QMetaObject4CallEiPPv
FNDA:0,_ZN6optikg15ExtractionPanel14extractClickedEv
FNDA:0,_ZN6optikg15ExtractionPanel12clearClickedEv
FNDA:0,_ZN6optikg15ExtractionPanel11textChangedERK7QString
FNDA:0,_ZN6optikg15ExtractionPanel18qt_static_metacallEP7QObjectN11QMetaObject4CallEiPPv
FNF:7
FNH:0
DA:82,0
DA:84,0
DA:85,0
DA:86,0
DA:87,0
DA:88,0
DA:89,0
DA:90,0
DA:91,0
DA:92,0
DA:95,0
DA:96,0
DA:97,0
DA:98,0
DA:99,0
DA:100,0
DA:101,0
DA:105,0
DA:107,0
DA:110,0
DA:112,0
DA:113,0
DA:114,0
DA:115,0
DA:118,0
DA:120,0
DA:121,0
DA:122,0
DA:123,0
DA:124,0
DA:125,0
DA:126,0
DA:128,0
DA:129,0
DA:130,0
DA:131,0
DA:133,0
DA:137,0
DA:139,0
DA:140,0
DA:143,0
DA:145,0
DA:146,0
DA:149,0
DA:151,0
DA:152,0
LF:46
LH:0
end_of_record
TN:
SF:/home/fed/Documents/clion-workspace/qt-try/build/tests/test_batchprocessor_autogen/RF5KSEWXUK/moc_graphwidget.cpp
FN:102,108,_ZN6optikg11GraphWidget11qt_metacastEPKc
FN:110,126,_ZN6optikg11GraphWidget11qt_metacallEN11QMetaObject4CallEiPPv
FN:129,132,_ZN6optikg11GraphWidget11nodeClickedERK7QStringS3_
FN:135,138,_ZN6optikg11GraphWidget11edgeClickedERK7QStringS3_S3_
FN:79,95,_ZN6optikg11GraphWidget18qt_static_metacallEP7QObjectN11QMetaObject4CallEiPPv
FN:97,100,_ZNK6optikg11GraphWidget10metaObjectEv
FNDA:0,_ZN6optikg11GraphWidget11qt_metacastEPKc
FNDA:0,_ZN6optikg11GraphWidget11qt_metacallEN11QMetaObject4CallEiPPv
FNDA:0,_ZN6optikg11GraphWidget11nodeClickedERK7QStringS3_
FNDA:0,_ZN6optikg11GraphWidget11edgeClickedERK7QStringS3_S3_
FNDA:0,_ZN6optikg11GraphWidget18qt_static_metacallEP7QObjectN11QMetaObject4CallEiPPv
FNDA:0,_ZNK6optikg11GraphWidget10metaObjectEv
FNF:6
FNH:0
DA:79,0
DA:81,0
DA:82,0
DA:83,0
DA:84,0
DA:85,0
DA:86,0
DA:89,0
DA:90,0
DA:91,0
DA:92,0
DA:93,0
DA:97,0
DA:99,0
DA:102,0
DA:104,0
DA:105,0
DA:106,0
DA:107,0
DA:110,0
DA:112,0
DA:113,0
DA:114,0
DA:115,0
DA:116,0
DA:117,0
DA:118,0
DA:120,0
DA:121,0
DA:122,0
DA:123,0
DA:125,0
DA:129,0
DA:131,0
DA:132,0
DA:135,0
DA:137,0
DA:138,0
LF:38
LH:0
end_of_record
TN:
SF:/home/fed/Documents/clion-workspace/qt-try/build/tests/test_batchprocessor_autogen/RF5KSEWXUK/moc_historypanel.cpp
FN:115,163,_ZN6optikg12HistoryPanel18qt_static_metacallEP7QObjectN11QMetaObject4CallEiPPv
FN:165,168,_ZNK6optikg12HistoryPanel10metaObjectEv
FN:170,176,_ZN6optikg12HistoryPanel11qt_metacastEPKc
FN:178,194,_ZN6optikg12HistoryPanel11qt_metacallEN11QMetaObject4CallEiPPv
FN:197,200,_ZN6optikg12HistoryPanel13recordClickedEx
FN:203,206,_ZN6optikg12HistoryPanel19recordDoubleClickedEx
FN:209,212,_ZN6optikg12HistoryPanel13exportClickedERK5QListIxE
FN:215,218,_ZN6optikg12HistoryPanel18batchDeleteClickedERK5QListIxE
FNDA:0,_ZN6optikg12HistoryPanel18qt_static_metacallEP7QObjectN11QMetaObject4CallEiPPv
FNDA:0,_ZNK6optikg12HistoryPanel10metaObjectEv
FNDA:0,_ZN6optikg12HistoryPanel11qt_metacastEPKc
FNDA:0,_ZN6optikg12HistoryPanel11qt_metacallEN11QMetaObject4CallEiPPv
FNDA:0,_ZN6optikg12HistoryPanel13recordClickedEx
FNDA:0,_ZN6optikg12HistoryPanel19recordDoubleClickedEx
FNDA:0,_ZN6optikg12HistoryPanel13exportClickedERK5QListIxE
FNDA:0,_ZN6optikg12HistoryPanel18batchDeleteClickedERK5QListIxE
FNF:8
FNH:0
DA:115,0
DA:117,0
DA:118,0
DA:119,0
DA:120,0
DA:121,0
DA:122,0
DA:123,0
DA:124,0
DA:125,0
DA:126,0
DA:127,0
DA:128,0
DA:129,0
DA:130,0
DA:131,0
DA:134,0
DA:135,0
DA:136,0
DA:137,0
DA:138,0
DA:139,0
DA:140,0
DA:141,0
DA:143,0
DA:144,0
DA:145,0
DA:146,0
DA:147,0
DA:148,0
DA:150,0
DA:153,0
DA:154,0
DA:155,0
DA:156,0
DA:157,0
DA:158,0
DA:159,0
DA:160,0
DA:161,0
DA:165,0
DA:167,0
DA:170,0
DA:172,0
DA:173,0
DA:174,0
DA:175,0
DA:178,0
DA:180,0
DA:181,0
DA:182,0
DA:183,0
DA:184,0
DA:185,0
DA:186,0
DA:188,0
DA:189,0
DA:190,0
DA:191,0
DA:193,0
DA:197,0
DA:199,0
DA:200,0
DA:203,0
DA:205,0
DA:206,0
DA:209,0
DA:211,0
DA:212,0
DA:215,0
DA:217,0
DA:218,0
LF:72
LH:0
end_of_record
TN:
SF:/home/fed/Documents/clion-workspace/qt-try/build/tests/test_batchprocessor_autogen/RF5KSEWXUK/moc_mainwindow.cpp
FN:124,159,_ZN6optikg10MainWindow18qt_static_metacallEP7QObjectN11QMetaObject4CallEiPPv
FN:161,164,_ZNK6optikg10MainWindow10metaObjectEv
FN:166,172,_ZN6optikg10MainWindow11qt_metacastEPKc
FN:174,190,_ZN6optikg10MainWindow11qt_metacallEN11QMetaObject4CallEiPPv
FNDA:0,_ZN6optikg10MainWindow18qt_static_metacallEP7QObjectN11QMetaObject4CallEiPPv
FNDA:0,_ZNK6optikg10MainWindow10metaObjectEv
FNDA:0,_ZN6optikg10MainWindow11qt_metacastEPKc
FNDA:0,_ZN6optikg10MainWindow11qt_metacallEN11QMetaObject4CallEiPPv
FNF:4
FNH:0
DA:124,0
DA:126,0
DA:127,0
DA:128,0
DA:129,0
DA:130,0
DA:131,0
DA:132,0
DA:133,0
DA:134,0
DA:135,0
DA:136,0
DA:137,0
DA:138,0
DA:139,0
DA:140,0
DA:141,0
DA:142,0
DA:143,0
DA:144,0
DA:147,0
DA:148,0
DA:149,0
DA:150,0
DA:151,0
DA:152,0
DA:153,0
DA:154,0
DA:156,0
DA:159,0
DA:161,0
DA:163,0
DA:166,0
DA:168,0
DA:169,0
DA:170,0
DA:171,0
DA:174,0
DA:176,0
DA:177,0
DA:178,0
DA:179,0
DA:180,0
DA:181,0
DA:182,0
DA:184,0
DA:185,0
DA:186,0
DA:187,0
DA:189,0
LF:50
LH:0
end_of_record
TN:
SF:/home/fed/Documents/clion-workspace/qt-try/build/tests/test_batchprocessor_autogen/RF5KSEWXUK/moc_resulttreewidget.cpp
FN:101,107,_ZN6optikg16ResultTreeWidget11qt_metacastEPKc
FN:109,125,_ZN6optikg16ResultTreeWidget11qt_metacallEN11QMetaObject4CallEiPPv
FN:128,131,_ZN6optikg16ResultTreeWidget13entityClickedERK7QStringS3_
FN:134,137,_ZN6optikg16ResultTreeWidget13tripleClickedERKNS_6TripleE
FN:78,94,_ZN6optikg16ResultTreeWidget18qt_static_metacallEP7QObjectN11QMetaObject4CallEiPPv
FN:96,99,_ZNK6optikg16ResultTreeWidget10metaObjectEv
FNDA:0,_ZN6optikg16ResultTreeWidget11qt_metacastEPKc
FNDA:0,_ZN6optikg16ResultTreeWidget11qt_metacallEN11QMetaObject4CallEiPPv
FNDA:0,_ZN6optikg16ResultTreeWidget13entityClickedERK7QStringS3_
FNDA:0,_ZN6optikg16ResultTreeWidget13tripleClickedERKNS_6TripleE
FNDA:0,_ZN6optikg16ResultTreeWidget18qt_static_metacallEP7QObjectN11QMetaObject4CallEiPPv
FNDA:0,_ZNK6optikg16ResultTreeWidget10metaObjectEv
FNF:6
FNH:0
DA:78,0
DA:80,0
DA:81,0
DA:82,0
DA:83,0
DA:84,0
DA:85,0
DA:88,0
DA:89,0
DA:90,0
DA:91,0
DA:92,0
DA:96,0
DA:98,0
DA:101,0
DA:103,0
DA:104,0
DA:105,0
DA:106,0
DA:109,0
DA:111,0
DA:112,0
DA:113,0
DA:114,0
DA:115,0
DA:116,0
DA:117,0
DA:119,0
DA:120,0
DA:121,0
DA:122,0
DA:124,0
DA:128,0
DA:130,0
DA:131,0
DA:134,0
DA:136,0
DA:137,0
LF:38
LH:0
end_of_record
TN:
SF:/home/fed/Documents/clion-workspace/qt-try/build/tests/test_batchprocessor_autogen/RF5KSEWXUK/moc_settingsdialog.cpp
FN:104,110,_ZN6optikg14SettingsDialog11qt_metacastEPKc
FN:112,128,_ZN6optikg14SettingsDialog11qt_metacallEN11QMetaObject4CallEiPPv
FN:82,97,_ZN6optikg14SettingsDialog18qt_static_metacallEP7QObjectN11QMetaObject4CallEiPPv
FN:99,102,_ZNK6optikg14SettingsDialog10metaObjectEv
FNDA:0,_ZN6optikg14SettingsDialog11qt_metacastEPKc
FNDA:0,_ZN6optikg14SettingsDialog11qt_metacallEN11QMetaObject4CallEiPPv
FNDA:0,_ZN6optikg14SettingsDialog18qt_static_metacallEP7QObjectN11QMetaObject4CallEiPPv
FNDA:0,_ZNK6optikg14SettingsDialog10metaObjectEv
FNF:4
FNH:0
DA:82,0
DA:84,0
DA:85,0
DA:86,0
DA:87,0
DA:88,0
DA:89,0
DA:90,0
DA:91,0
DA:92,0
DA:93,0
DA:97,0
DA:99,0
DA:101,0
DA:104,0
DA:106,0
DA:107,0
DA:108,0
DA:109,0
DA:112,0
DA:114,0
DA:115,0
DA:116,0
DA:117,0
DA:118,0
DA:119,0
DA:120,0
DA:122,0
DA:123,0
DA:124,0
DA:125,0
DA:127,0
LF:32
LH:0
end_of_record
TN:
SF:/home/fed/Documents/clion-workspace/qt-try/build/tests/test_batchprocessor_autogen/VTM74X6NYQ/moc_databasemanager.cpp
FN:104,120,_ZN6optikg15DatabaseManager11qt_metacallEN11QMetaObject4CallEiPPv
FN:123,126,_ZN6optikg15DatabaseManager15databaseChangedEv
FN:129,132,_ZN6optikg15DatabaseManager13errorOccurredERK7QString
FN:73,89,_ZN6optikg15DatabaseManager18qt_static_metacallEP7QObjectN11QMetaObject4CallEiPPv
FN:91,94,_ZNK6optikg15DatabaseManager10metaObjectEv
FN:96,102,_ZN6optikg15DatabaseManager11qt_metacastEPKc
FNDA:0,_ZN6optikg15DatabaseManager11qt_metacallEN11QMetaObject4CallEiPPv
FNDA:0,_ZN6optikg15DatabaseManager15databaseChangedEv
FNDA:0,_ZN6optikg15DatabaseManager13errorOccurredERK7QString
FNDA:0,_ZN6optikg15DatabaseManager18qt_static_metacallEP7QObjectN11QMetaObject4CallEiPPv
FNDA:0,_ZNK6optikg15DatabaseManager10metaObjectEv
FNDA:0,_ZN6optikg15DatabaseManager11qt_metacastEPKc
FNF:6
FNH:0
DA:73,0
DA:75,0
DA:76,0
DA:77,0
DA:78,0
DA:79,0
DA:80,0
DA:83,0
DA:84,0
DA:85,0
DA:86,0
DA:87,0
DA:91,0
DA:93,0
DA:96,0
DA:98,0
DA:99,0
DA:100,0
DA:101,0
DA:104,0
DA:106,0
DA:107,0
DA:108,0
DA:109,0
DA:110,0
DA:111,0
DA:112,0
DA:114,0
DA:115,0
DA:116,0
DA:117,0
DA:119,0
DA:123,0
DA:125,0
DA:126,0
DA:129,0
DA:131,0
DA:132,0
LF:38
LH:0
end_of_record
TN:
SF:/home/fed/Documents/clion-workspace/qt-try/build/tests/test_batchprocessor_autogen/include/test_batchprocessor.moc
FN:141,176,_ZN18TestBatchProcessor18qt_static_metacallEP7QObjectN11QMetaObject4CallEiPPv
FN:178,181,_ZNK18TestBatchProcessor10metaObjectEv
FN:183,189,_ZN18TestBatchProcessor11qt_metacastEPKc
FN:191,207,_ZN18TestBatchProcessor11qt_metacallEN11QMetaObject4CallEiPPv
FNDA:52,_ZN18TestBatchProcessor18qt_static_metacallEP7QObjectN11QMetaObject4CallEiPPv
FNDA:64,_ZNK18TestBatchProcessor10metaObjectEv
FNDA:0,_ZN18TestBatchProcessor11qt_metacastEPKc
FNDA:0,_ZN18TestBatchProcessor11qt_metacallEN11QMetaObject4CallEiPPv
FNF:4
FNH:2
DA:141,52
DA:143,52
DA:144,52
DA:145,52
DA:146,2
DA:147,2
DA:148,2
DA:149,2
DA:150,2
DA:151,2
DA:152,2
DA:153,2
DA:154,2
DA:155,2
DA:156,2
DA:157,2
DA:158,2
DA:159,2
DA:160,2
DA:161,2
DA:162,2
DA:163,2
DA:164,2
DA:165,2
DA:166,2
DA:167,2
DA:168,2
DA:169,2
DA:170,2
DA:171,2
DA:172,52
DA:176,52
DA:178,64
DA:180,64
DA:183,0
DA:185,0
DA:186,0
DA:187,0
DA:188,0
DA:191,0
DA:193,0
DA:194,0
DA:195,0
DA:196,0
DA:197,0
DA:198,0
DA:199,0
DA:201,0
DA:202,0
DA:203,0
DA:204,0
DA:206,0
LF:52
LH:34
end_of_record
TN:
SF:/home/fed/Documents/clion-workspace/qt-try/build/tests/test_batchprocessor_autogen/include/ui_mainwindow.h
FN:31,56,_ZN13Ui_MainWindow7setupUiEP11QMainWindow
FN:58,61,_ZN13Ui_MainWindow13retranslateUiEP11QMainWindow
FNDA:0,_ZN13Ui_MainWindow7setupUiEP11QMainWindow
FNDA:0,_ZN13Ui_MainWindow13retranslateUiEP11QMainWindow
FNF:2
FNH:0
DA:31,0
DA:33,0
DA:34,0
DA:35,0
DA:36,0
DA:37,0
DA:38,0
DA:39,0
DA:40,0
DA:41,0
DA:42,0
DA:43,0
DA:44,0
DA:45,0
DA:46,0
DA:47,0
DA:48,0
DA:49,0
DA:50,0
DA:51,0
DA:53,0
DA:55,0
DA:56,0
DA:58,0
DA:60,0
DA:61,0
LF:26
LH:0
end_of_record
TN:
SF:/home/fed/Documents/clion-workspace/qt-try/build/tests/test_configmanager_autogen/7KRDZL6R5E/moc_configmanager.cpp
FN:117,120,_ZN6optikg13ConfigManager14settingChangedERK7QString
FN:70,83,_ZN6optikg13ConfigManager18qt_static_metacallEP7QObjectN11QMetaObject4CallEiPPv
FN:85,88,_ZNK6optikg13ConfigManager10metaObjectEv
FN:90,96,_ZN6optikg13ConfigManager11qt_metacastEPKc
FN:98,114,_ZN6optikg13ConfigManager11qt_metacallEN11QMetaObject4CallEiPPv
FNDA:26,_ZN6optikg13ConfigManager14settingChangedERK7QString
FNDA:4,_ZN6optikg13ConfigManager18qt_static_metacallEP7QObjectN11QMetaObject4CallEiPPv
FNDA:8,_ZNK6optikg13ConfigManager10metaObjectEv
FNDA:0,_ZN6optikg13ConfigManager11qt_metacastEPKc
FNDA:0,_ZN6optikg13ConfigManager11qt_metacallEN11QMetaObject4CallEiPPv
FNF:5
FNH:3
DA:70,4
DA:72,4
DA:73,4
DA:74,0
DA:75,0
DA:76,0
DA:79,4
DA:80,4
DA:81,4
DA:85,8
DA:87,8
DA:90,0
DA:92,0
DA:93,0
DA:94,0
DA:95,0
DA:98,0
DA:100,0
DA:101,0
DA:102,0
DA:103,0
DA:104,0
DA:105,0
DA:106,0
DA:108,0
DA:109,0
DA:110,0
DA:111,0
DA:113,0
DA:117,26
DA:119,26
DA:120,26
LF:32
LH:11
end_of_record
TN:
SF:/home/fed/Documents/clion-workspace/qt-try/build/tests/test_configmanager_autogen/MV7IEL3DTJ/moc_batchprocessor.cpp
FN:105,145,_ZN6optikg14BatchProcessor18qt_static_metacallEP7QObjectN11QMetaObject4CallEiPPv
FN:147,150,_ZNK6optikg14BatchProcessor10metaObjectEv
FN:152,158,_ZN6optikg14BatchProcessor11qt_metacastEPKc
FN:160,176,_ZN6optikg14BatchProcessor11qt_metacallEN11QMetaObject4CallEiPPv
FN:179,182,_ZN6optikg14BatchProcessor15progressChangedEiiRK7QString
FN:185,188,_ZN6optikg14BatchProcessor12scanProgressEiiRK7QString
FN:191,194,_ZN6optikg14BatchProcessor12scanFinishedEii
FN:197,200,_ZN6optikg14BatchProcessor13fileProcessedERKNS_17FileProcessResultE
FN:203,206,_ZN6optikg14BatchProcessor13errorOccurredERK7QStringS3_
FN:209,212,_ZN6optikg14BatchProcessor13batchFinishedEiii
FNDA:0,_ZN6optikg14BatchProcessor18qt_static_metacallEP7QObjectN11QMetaObject4CallEiPPv
FNDA:0,_ZNK6optikg14BatchProcessor10metaObjectEv
FNDA:0,_ZN6optikg14BatchProcessor11qt_metacastEPKc
FNDA:0,_ZN6optikg14BatchProcessor11qt_metacallEN11QMetaObject4CallEiPPv
FNDA:0,_ZN6optikg14BatchProcessor15progressChangedEiiRK7QString
FNDA:0,_ZN6optikg14BatchProcessor12scanProgressEiiRK7QString
FNDA:0,_ZN6optikg14BatchProcessor12scanFinishedEii
FNDA:0,_ZN6optikg14BatchProcessor13fileProcessedERKNS_17FileProcessResultE
FNDA:0,_ZN6optikg14BatchProcessor13errorOccurredERK7QStringS3_
FNDA:0,_ZN6optikg14BatchProcessor13batchFinishedEiii
FNF:10
FNH:0
DA:105,0
DA:107,0
DA:108,0
DA:109,0
DA:110,0
DA:111,0
DA:112,0
DA:113,0
DA:114,0
DA:115,0
DA:116,0
DA:119,0
DA:120,0
DA:121,0
DA:122,0
DA:123,0
DA:124,0
DA:125,0
DA:126,0
DA:128,0
DA:131,0
DA:132,0
DA:133,0
DA:134,0
DA:135,0
DA:136,0
DA:137,0
DA:138,0
DA:139,0
DA:140,0
DA:141,0
DA:142,0
DA:143,0
DA:147,0
DA:149,0
DA:152,0
DA:154,0
DA:155,0
DA:156,0
DA:157,0
DA:160,0
DA:162,0
DA:163,0
DA:164,0
DA:165,0
DA:166,0
DA:167,0
DA:168,0
DA:170,0
DA:171,0
DA:172,0
DA:173,0
DA:175,0
DA:179,0
DA:181,0
DA:182,0
DA:185,0
DA:187,0
DA:188,0
DA:191,0
DA:193,0
DA:194,0
DA:197,0
DA:199,0
DA:200,0
DA:203,0
DA:205,0
DA:206,0
DA:209,0
DA:211,0
DA:212,0
LF:71
LH:0
end_of_record
TN:
SF:/home/fed/Documents/clion-workspace/qt-try/build/tests/test_configmanager_autogen/MV7IEL3DTJ/moc_inferenceworker.cpp
FN:105,108,_ZNK6optikg15InferenceWorker10metaObjectEv
FN:110,116,_ZN6optikg15InferenceWorker11qt_metacastEPKc
FN:118,134,_ZN6optikg15InferenceWorker11qt_metacallEN11QMetaObject4CallEiPPv
FN:137,140,_ZN6optikg15InferenceWorker15progressChangedEi
FN:143,146,_ZN6optikg15InferenceWorker11resultReadyERK5QListINS_6TripleEE
FN:149,152,_ZN6optikg15InferenceWorker13errorOccurredERK7QString
FN:84,103,_ZN6optikg15InferenceWorker18qt_static_metacallEP7QObjectN11QMetaObject4CallEiPPv
FNDA:0,_ZNK6optikg15InferenceWorker10metaObjectEv
FNDA:0,_ZN6optikg15InferenceWorker11qt_metacastEPKc
FNDA:0,_ZN6optikg15InferenceWorker11qt_metacallEN11QMetaObject4CallEiPPv
FNDA:0,_ZN6optikg15InferenceWorker15progressChangedEi
FNDA:0,_ZN6optikg15InferenceWorker11resultReadyERK5QListINS_6TripleEE
FNDA:0,_ZN6optikg15InferenceWorker13errorOccurredERK7QString
FNDA:0,_ZN6optikg15InferenceWorker18qt_static_metacallEP7QObjectN11QMetaObject4CallEiPPv
FNF:7
FNH:0
DA:84,0
DA:86,0
DA:87,0
DA:88,0
DA:89,0
DA:90,0
DA:91,0
DA:92,0
DA:95,0
DA:96,0
DA:97,0
DA:98,0
DA:99,0
DA:100,0
DA:101,0
DA:105,0
DA:107,0
DA:110,0
DA:112,0
DA:113,0
DA:114,0
DA:115,0
DA:118,0
DA:120,0
DA:121,0
DA:122,0
DA:123,0
DA:124,0
DA:125,0
DA:126,0
DA:128,0
DA:129,0
DA:130,0
DA:131,0
DA:133,0
DA:137,0
DA:139,0
DA:140,0
DA:143,0
DA:145,0
DA:146,0
DA:149,0
DA:151,0
DA:152,0
LF:44
LH:0
end_of_record
TN:
SF:/home/fed/Documents/clion-workspace/qt-try/build/tests/test_configmanager_autogen/RF5KSEWXUK/moc_batchprocessdialog.cpp
FN:141,177,_ZN6optikg18BatchProcessDialog18qt_static_metacallEP7QObjectN11QMetaObject4CallEiPPv
FN:179,182,_ZNK6optikg18BatchProcessDialog10metaObjectEv
FN:184,190,_ZN6optikg18BatchProcessDialog11qt_metacastEPKc
FN:192,208,_ZN6optikg18BatchProcessDialog11qt_metacallEN11QMetaObject4CallEiPPv
FNDA:0,_ZN6optikg18BatchProcessDialog18qt_static_metacallEP7QObjectN11QMetaObject4CallEiPPv
FNDA:0,_ZNK6optikg18BatchProcessDialog10metaObjectEv
FNDA:0,_ZN6optikg18BatchProcessDialog11qt_metacastEPKc
FNDA:0,_ZN6optikg18BatchProcessDialog11qt_metacallEN11QMetaObject4CallEiPPv
FNF:4
FNH:0
DA:141,0
DA:143,0
DA:144,0
DA:145,0
DA:146,0
DA:147,0
DA:148,0
DA:149,0
DA:150,0
DA:151,0
DA:152,0
DA:153,0
DA:154,0
DA:155,0
DA:156,0
DA:157,0
DA:158,0
DA:159,0
DA:160,0
DA:161,0
DA:162,0
DA:165,0
DA:166,0
DA:167,0
DA:168,0
DA:169,0
DA:170,0
DA:171,0
DA:172,0
DA:174,0
DA:177,0
DA:179,0
DA:181,0
DA:184,0
DA:186,0
DA:187,0
DA:188,0
DA:189,0
DA:192,0
DA:194,0
DA:195,0
DA:196,0
DA:197,0
DA:198,0
DA:199,0
DA:200,0
DA:202,0
DA:203,0
DA:204,0
DA:205,0
DA:207,0
LF:51
LH:0
end_of_record
TN:
SF:/home/fed/Documents/clion-workspace/qt-try/build/tests/test_configmanager_autogen/RF5KSEWXUK/moc_extractionpanel.cpp
FN:105,108,_ZNK6optikg15ExtractionPanel10metaObjectEv
FN:110,116,_ZN6optikg15ExtractionPanel11qt_metacastEPKc
FN:118,134,_ZN6optikg15ExtractionPanel11qt_metacallEN11QMetaObject4CallEiPPv
FN:137,140,_ZN6optikg15ExtractionPanel14extractClickedEv
FN:143,146,_ZN6optikg15ExtractionPanel12clearClickedEv
FN:149,152,_ZN6optikg15ExtractionPanel11textChangedERK7QString
FN:82,103,_ZN6optikg15ExtractionPanel18qt_static_metacallEP7QObjectN11QMetaObject4CallEiPPv
FNDA:0,_ZNK6optikg15ExtractionPanel10metaObjectEv
FNDA:0,_ZN6optikg15ExtractionPanel11qt_metacastEPKc
FNDA:0,_ZN6optikg15ExtractionPanel11qt_metacallEN11QMetaObject4CallEiPPv
FNDA:0,_ZN6optikg15ExtractionPanel14extractClickedEv
FNDA:0,_ZN6optikg15ExtractionPanel12clearClickedEv
FNDA:0,_ZN6optikg15ExtractionPanel11textChangedERK7QString
FNDA:0,_ZN6optikg15ExtractionPanel18qt_static_metacallEP7QObjectN11QMetaObject4CallEiPPv
FNF:7
FNH:0
DA:82,0
DA:84,0
DA:85,0
DA:86,0
DA:87,0
DA:88,0
DA:89,0
DA:90,0
DA:91,0
DA:92,0
DA:95,0
DA:96,0
DA:97,0
DA:98,0
DA:99,0
DA:100,0
DA:101,0
DA:105,0
DA:107,0
DA:110,0
DA:112,0
DA:113,0
DA:114,0
DA:115,0
DA:118,0
DA:120,0
DA:121,0
DA:122,0
DA:123,0
DA:124,0
DA:125,0
DA:126,0
DA:128,0
DA:129,0
DA:130,0
DA:131,0
DA:133,0
DA:137,0
DA:139,0
DA:140,0
DA:143,0
DA:145,0
DA:146,0
DA:149,0
DA:151,0
DA:152,0
LF:46
LH:0
end_of_record
TN:
SF:/home/fed/Documents/clion-workspace/qt-try/build/tests/test_configmanager_autogen/RF5KSEWXUK/moc_graphwidget.cpp
FN:102,108,_ZN6optikg11GraphWidget11qt_metacastEPKc
FN:110,126,_ZN6optikg11GraphWidget11qt_metacallEN11QMetaObject4CallEiPPv
FN:129,132,_ZN6optikg11GraphWidget11nodeClickedERK7QStringS3_
FN:135,138,_ZN6optikg11GraphWidget11edgeClickedERK7QStringS3_S3_
FN:79,95,_ZN6optikg11GraphWidget18qt_static_metacallEP7QObjectN11QMetaObject4CallEiPPv
FN:97,100,_ZNK6optikg11GraphWidget10metaObjectEv
FNDA:0,_ZN6optikg11GraphWidget11qt_metacastEPKc
FNDA:0,_ZN6optikg11GraphWidget11qt_metacallEN11QMetaObject4CallEiPPv
FNDA:0,_ZN6optikg11GraphWidget11nodeClickedERK7QStringS3_
FNDA:0,_ZN6optikg11GraphWidget11edgeClickedERK7QStringS3_S3_
FNDA:0,_ZN6optikg11GraphWidget18qt_static_metacallEP7QObjectN11QMetaObject4CallEiPPv
FNDA:0,_ZNK6optikg11GraphWidget10metaObjectEv
FNF:6
FNH:0
DA:79,0
DA:81,0
DA:82,0
DA:83,0
DA:84,0
DA:85,0
DA:86,0
DA:89,0
DA:90,0
DA:91,0
DA:92,0
DA:93,0
DA:97,0
DA:99,0
DA:102,0
DA:104,0
DA:105,0
DA:106,0
DA:107,0
DA:110,0
DA:112,0
DA:113,0
DA:114,0
DA:115,0
DA:116,0
DA:117,0
DA:118,0
DA:120,0
DA:121,0
DA:122,0
DA:123,0
DA:125,0
DA:129,0
DA:131,0
DA:132,0
DA:135,0
DA:137,0
DA:138,0
LF:38
LH:0
end_of_record
TN:
SF:/home/fed/Documents/clion-workspace/qt-try/build/tests/test_configmanager_autogen/RF5KSEWXUK/moc_historypanel.cpp
FN:115,163,_ZN6optikg12HistoryPanel18qt_static_metacallEP7QObjectN11QMetaObject4CallEiPPv
FN:165,168,_ZNK6optikg12HistoryPanel10metaObjectEv
FN:170,176,_ZN6optikg12HistoryPanel11qt_metacastEPKc
FN:178,194,_ZN6optikg12HistoryPanel11qt_metacallEN11QMetaObject4CallEiPPv
FN:197,200,_ZN6optikg12HistoryPanel13recordClickedEx
FN:203,206,_ZN6optikg12HistoryPanel19recordDoubleClickedEx
FN:209,212,_ZN6optikg12HistoryPanel13exportClickedERK5QListIxE
FN:215,218,_ZN6optikg12HistoryPanel18batchDeleteClickedERK5QListIxE
FNDA:0,_ZN6optikg12HistoryPanel18qt_static_metacallEP7QObjectN11QMetaObject4CallEiPPv
FNDA:0,_ZNK6optikg12HistoryPanel10metaObjectEv
FNDA:0,_ZN6optikg12HistoryPanel11qt_metacastEPKc
FNDA:0,_ZN6optikg12HistoryPanel11qt_metacallEN11QMetaObject4CallEiPPv
FNDA:0,_ZN6optikg12HistoryPanel13recordClickedEx
FNDA:0,_ZN6optikg12HistoryPanel19recordDoubleClickedEx
FNDA:0,_ZN6optikg12HistoryPanel13exportClickedERK5QListIxE
FNDA:0,_ZN6optikg12HistoryPanel18batchDeleteClickedERK5QListIxE
FNF:8
FNH:0
DA:115,0
DA:117,0
DA:118,0
DA:119,0
DA:120,0
DA:121,0
DA:122,0
DA:123,0
DA:124,0
DA:125,0
DA:126,0
DA:127,0
DA:128,0
DA:129,0
DA:130,0
DA:131,0
DA:134,0
DA:135,0
DA:136,0
DA:137,0
DA:138,0
DA:139,0
DA:140,0
DA:141,0
DA:143,0
DA:144,0
DA:145,0
DA:146,0
DA:147,0
DA:148,0
DA:150,0
DA:153,0
DA:154,0
DA:155,0
DA:156,0
DA:157,0
DA:158,0
DA:159,0
DA:160,0
DA:161,0
DA:165,0
DA:167,0
DA:170,0
DA:172,0
DA:173,0
DA:174,0
DA:175,0
DA:178,0
DA:180,0
DA:181,0
DA:182,0
DA:183,0
DA:184,0
DA:185,0
DA:186,0
DA:188,0
DA:189,0
DA:190,0
DA:191,0
DA:193,0
DA:197,0
DA:199,0
DA:200,0
DA:203,0
DA:205,0
DA:206,0
DA:209,0
DA:211,0
DA:212,0
DA:215,0
DA:217,0
DA:218,0
LF:72
LH:0
end_of_record
TN:
SF:/home/fed/Documents/clion-workspace/qt-try/build/tests/test_configmanager_autogen/RF5KSEWXUK/moc_mainwindow.cpp
FN:124,159,_ZN6optikg10MainWindow18qt_static_metacallEP7QObjectN11QMetaObject4CallEiPPv
FN:161,164,_ZNK6optikg10MainWindow10metaObjectEv
FN:166,172,_ZN6optikg10MainWindow11qt_metacastEPKc
FN:174,190,_ZN6optikg10MainWindow11qt_metacallEN11QMetaObject4CallEiPPv
FNDA:0,_ZN6optikg10MainWindow18qt_static_metacallEP7QObjectN11QMetaObject4CallEiPPv
FNDA:0,_ZNK6optikg10MainWindow10metaObjectEv
FNDA:0,_ZN6optikg10MainWindow11qt_metacastEPKc
FNDA:0,_ZN6optikg10MainWindow11qt_metacallEN11QMetaObject4CallEiPPv
FNF:4
FNH:0
DA:124,0
DA:126,0
DA:127,0
DA:128,0
DA:129,0
DA:130,0
DA:131,0
DA:132,0
DA:133,0
DA:134,0
DA:135,0
DA:136,0
DA:137,0
DA:138,0
DA:139,0
DA:140,0
DA:141,0
DA:142,0
DA:143,0
DA:144,0
DA:147,0
DA:148,0
DA:149,0
DA:150,0
DA:151,0
DA:152,0
DA:153,0
DA:154,0
DA:156,0
DA:159,0
DA:161,0
DA:163,0
DA:166,0
DA:168,0
DA:169,0
DA:170,0
DA:171,0
DA:174,0
DA:176,0
DA:177,0
DA:178,0
DA:179,0
DA:180,0
DA:181,0
DA:182,0
DA:184,0
DA:185,0
DA:186,0
DA:187,0
DA:189,0
LF:50
LH:0
end_of_record
TN:
SF:/home/fed/Documents/clion-workspace/qt-try/build/tests/test_configmanager_autogen/RF5KSEWXUK/moc_resulttreewidget.cpp
FN:101,107,_ZN6optikg16ResultTreeWidget11qt_metacastEPKc
FN:109,125,_ZN6optikg16ResultTreeWidget11qt_metacallEN11QMetaObject4CallEiPPv
FN:128,131,_ZN6optikg16ResultTreeWidget13entityClickedERK7QStringS3_
FN:134,137,_ZN6optikg16ResultTreeWidget13tripleClickedERKNS_6TripleE
FN:78,94,_ZN6optikg16ResultTreeWidget18qt_static_metacallEP7QObjectN11QMetaObject4CallEiPPv
FN:96,99,_ZNK6optikg16ResultTreeWidget10metaObjectEv
FNDA:0,_ZN6optikg16ResultTreeWidget11qt_metacastEPKc
FNDA:0,_ZN6optikg16ResultTreeWidget11qt_metacallEN11QMetaObject4CallEiPPv
FNDA:0,_ZN6optikg16ResultTreeWidget13entityClickedERK7QStringS3_
FNDA:0,_ZN6optikg16ResultTreeWidget13tripleClickedERKNS_6TripleE
FNDA:0,_ZN6optikg16ResultTreeWidget18qt_static_metacallEP7QObjectN11QMetaObject4CallEiPPv
FNDA:0,_ZNK6optikg16ResultTreeWidget10metaObjectEv
FNF:6
FNH:0
DA:78,0
DA:80,0
DA:81,0
DA:82,0
DA:83,0
DA:84,0
DA:85,0
DA:88,0
DA:89,0
DA:90,0
DA:91,0
DA:92,0
DA:96,0
DA:98,0
DA:101,0
DA:103,0
DA:104,0
DA:105,0
DA:106,0
DA:109,0
DA:111,0
DA:112,0
DA:113,0
DA:114,0
DA:115,0
DA:116,0
DA:117,0
DA:119,0
DA:120,0
DA:121,0
DA:122,0
DA:124,0
DA:128,0
DA:130,0
DA:131,0
DA:134,0
DA:136,0
DA:137,0
LF:38
LH:0
end_of_record
TN:
SF:/home/fed/Documents/clion-workspace/qt-try/build/tests/test_configmanager_autogen/RF5KSEWXUK/moc_settingsdialog.cpp
FN:104,110,_ZN6optikg14SettingsDialog11qt_metacastEPKc
FN:112,128,_ZN6optikg14SettingsDialog11qt_metacallEN11QMetaObject4CallEiPPv
FN:82,97,_ZN6optikg14SettingsDialog18qt_static_metacallEP7QObjectN11QMetaObject4CallEiPPv
FN:99,102,_ZNK6optikg14SettingsDialog10metaObjectEv
FNDA:0,_ZN6optikg14SettingsDialog11qt_metacastEPKc
FNDA:0,_ZN6optikg14SettingsDialog11qt_metacallEN11QMetaObject4CallEiPPv
FNDA:0,_ZN6optikg14SettingsDialog18qt_static_metacallEP7QObjectN11QMetaObject4CallEiPPv
FNDA:0,_ZNK6optikg14SettingsDialog10metaObjectEv
FNF:4
FNH:0
DA:82,0
DA:84,0
DA:85,0
DA:86,0
DA:87,0
DA:88,0
DA:89,0
DA:90,0
DA:91,0
DA:92,0
DA:93,0
DA:97,0
DA:99,0
DA:101,0
DA:104,0
DA:106,0
DA:107,0
DA:108,0
DA:109,0
DA:112,0
DA:114,0
DA:115,0
DA:116,0
DA:117,0
DA:118,0
DA:119,0
DA:120,0
DA:122,0
DA:123,0
DA:124,0
DA:125,0
DA:127,0
LF:32
LH:0
end_of_record
TN:
SF:/home/fed/Documents/clion-workspace/qt-try/build/tests/test_configmanager_autogen/VTM74X6NYQ/moc_databasemanager.cpp
FN:104,120,_ZN6optikg15DatabaseManager11qt_metacallEN11QMetaObject4CallEiPPv
FN:123,126,_ZN6optikg15DatabaseManager15databaseChangedEv
FN:129,132,_ZN6optikg15DatabaseManager13errorOccurredERK7QString
FN:73,89,_ZN6optikg15DatabaseManager18qt_static_metacallEP7QObjectN11QMetaObject4CallEiPPv
FN:91,94,_ZNK6optikg15DatabaseManager10metaObjectEv
FN:96,102,_ZN6optikg15DatabaseManager11qt_metacastEPKc
FNDA:0,_ZN6optikg15DatabaseManager11qt_metacallEN11QMetaObject4CallEiPPv
FNDA:0,_ZN6optikg15DatabaseManager15databaseChangedEv
FNDA:0,_ZN6optikg15DatabaseManager13errorOccurredERK7QString
FNDA:0,_ZN6optikg15DatabaseManager18qt_static_metacallEP7QObjectN11QMetaObject4CallEiPPv
FNDA:0,_ZNK6optikg15DatabaseManager10metaObjectEv
FNDA:0,_ZN6optikg15DatabaseManager11qt_metacastEPKc
FNF:6
FNH:0
DA:73,0
DA:75,0
DA:76,0
DA:77,0
DA:78,0
DA:79,0
DA:80,0
DA:83,0
DA:84,0
DA:85,0
DA:86,0
DA:87,0
DA:91,0
DA:93,0
DA:96,0
DA:98,0
DA:99,0
DA:100,0
DA:101,0
DA:104,0
DA:106,0
DA:107,0
DA:108,0
DA:109,0
DA:110,0
DA:111,0
DA:112,0
DA:114,0
DA:115,0
DA:116,0
DA:117,0
DA:119,0
DA:123,0
DA:125,0
DA:126,0
DA:129,0
DA:131,0
DA:132,0
LF:38
LH:0
end_of_record
TN:
SF:/home/fed/Documents/clion-workspace/qt-try/build/tests/test_configmanager_autogen/include/test_configmanager.moc
FN:114,140,_ZN17TestConfigManager18qt_static_metacallEP7QObjectN11QMetaObject4CallEiPPv
FN:142,145,_ZNK17TestConfigManager10metaObjectEv
FN:147,153,_ZN17TestConfigManager11qt_metacastEPKc
FN:155,171,_ZN17TestConfigManager11qt_metacallEN11QMetaObject4CallEiPPv
FNDA:34,_ZN17TestConfigManager18qt_static_metacallEP7QObjectN11QMetaObject4CallEiPPv
FNDA:46,_ZNK17TestConfigManager10metaObjectEv
FNDA:0,_ZN17TestConfigManager11qt_metacastEPKc
FNDA:0,_ZN17TestConfigManager11qt_metacallEN11QMetaObject4CallEiPPv
FNF:4
FNH:2
DA:114,34
DA:116,34
DA:117,34
DA:118,34
DA:119,2
DA:120,2
DA:121,2
DA:122,2
DA:123,2
DA:124,2
DA:125,2
DA:126,2
DA:127,2
DA:128,2
DA:129,2
DA:130,2
DA:131,2
DA:132,2
DA:133,2
DA:134,2
DA:135,2
DA:136,34
DA:140,34
DA:142,46
DA:144,46
DA:147,0
DA:149,0
DA:150,0
DA:151,0
DA:152,0
DA:155,0
DA:157,0
DA:158,0
DA:159,0
DA:160,0
DA:161,0
DA:162,0
DA:163,0
DA:165,0
DA:166,0
DA:167,0
DA:168,0
DA:170,0
LF:43
LH:25
end_of_record
TN:
SF:/home/fed/Documents/clion-workspace/qt-try/build/tests/test_configmanager_autogen/include/ui_mainwindow.h
FN:31,56,_ZN13Ui_MainWindow7setupUiEP11QMainWindow
FN:58,61,_ZN13Ui_MainWindow13retranslateUiEP11QMainWindow
FNDA:0,_ZN13Ui_MainWindow7setupUiEP11QMainWindow
FNDA:0,_ZN13Ui_MainWindow13retranslateUiEP11QMainWindow
FNF:2
FNH:0
DA:31,0
DA:33,0
DA:34,0
DA:35,0
DA:36,0
DA:37,0
DA:38,0
DA:39,0
DA:40,0
DA:41,0
DA:42,0
DA:43,0
DA:44,0
DA:45,0
DA:46,0
DA:47,0
DA:48,0
DA:49,0
DA:50,0
DA:51,0
DA:53,0
DA:55,0
DA:56,0
DA:58,0
DA:60,0
DA:61,0
LF:26
LH:0
end_of_record
TN:
SF:/home/fed/Documents/clion-workspace/qt-try/build/tests/test_databasemanager_autogen/7KRDZL6R5E/moc_configmanager.cpp
FN:117,120,_ZN6optikg13ConfigManager14settingChangedERK7QString
FN:70,83,_ZN6optikg13ConfigManager18qt_static_metacallEP7QObjectN11QMetaObject4CallEiPPv
FN:85,88,_ZNK6optikg13ConfigManager10metaObjectEv
FN:90,96,_ZN6optikg13ConfigManager11qt_metacastEPKc
FN:98,114,_ZN6optikg13ConfigManager11qt_metacallEN11QMetaObject4CallEiPPv
FNDA:0,_ZN6optikg13ConfigManager14settingChangedERK7QString
FNDA:0,_ZN6optikg13ConfigManager18qt_static_metacallEP7QObjectN11QMetaObject4CallEiPPv
FNDA:0,_ZNK6optikg13ConfigManager10metaObjectEv
FNDA:0,_ZN6optikg13ConfigManager11qt_metacastEPKc
FNDA:0,_ZN6optikg13ConfigManager11qt_metacallEN11QMetaObject4CallEiPPv
FNF:5
FNH:0
DA:70,0
DA:72,0
DA:73,0
DA:74,0
DA:75,0
DA:76,0
DA:79,0
DA:80,0
DA:81,0
DA:85,0
DA:87,0
DA:90,0
DA:92,0
DA:93,0
DA:94,0
DA:95,0
DA:98,0
DA:100,0
DA:101,0
DA:102,0
DA:103,0
DA:104,0
DA:105,0
DA:106,0
DA:108,0
DA:109,0
DA:110,0
DA:111,0
DA:113,0
DA:117,0
DA:119,0
DA:120,0
LF:32
LH:0
end_of_record
TN:
SF:/home/fed/Documents/clion-workspace/qt-try/build/tests/test_databasemanager_autogen/MV7IEL3DTJ/moc_batchprocessor.cpp
FN:105,145,_ZN6optikg14BatchProcessor18qt_static_metacallEP7QObjectN11QMetaObject4CallEiPPv
FN:147,150,_ZNK6optikg14BatchProcessor10metaObjectEv
FN:152,158,_ZN6optikg14BatchProcessor11qt_metacastEPKc
FN:160,176,_ZN6optikg14BatchProcessor11qt_metacallEN11QMetaObject4CallEiPPv
FN:179,182,_ZN6optikg14BatchProcessor15progressChangedEiiRK7QString
FN:185,188,_ZN6optikg14BatchProcessor12scanProgressEiiRK7QString
FN:191,194,_ZN6optikg14BatchProcessor12scanFinishedEii
FN:197,200,_ZN6optikg14BatchProcessor13fileProcessedERKNS_17FileProcessResultE
FN:203,206,_ZN6optikg14BatchProcessor13errorOccurredERK7QStringS3_
FN:209,212,_ZN6optikg14BatchProcessor13batchFinishedEiii
FNDA:0,_ZN6optikg14BatchProcessor18qt_static_metacallEP7QObjectN11QMetaObject4CallEiPPv
FNDA:0,_ZNK6optikg14BatchProcessor10metaObjectEv
FNDA:0,_ZN6optikg14BatchProcessor11qt_metacastEPKc
FNDA:0,_ZN6optikg14BatchProcessor11qt_metacallEN11QMetaObject4CallEiPPv
FNDA:0,_ZN6optikg14BatchProcessor15progressChangedEiiRK7QString
FNDA:0,_ZN6optikg14BatchProcessor12scanProgressEiiRK7QString
FNDA:0,_ZN6optikg14BatchProcessor12scanFinishedEii
FNDA:0,_ZN6optikg14BatchProcessor13fileProcessedERKNS_17FileProcessResultE
FNDA:0,_ZN6optikg14BatchProcessor13errorOccurredERK7QStringS3_
FNDA:0,_ZN6optikg14BatchProcessor13batchFinishedEiii
FNF:10
FNH:0
DA:105,0
DA:107,0
DA:108,0
DA:109,0
DA:110,0
DA:111,0
DA:112,0
DA:113,0
DA:114,0
DA:115,0
DA:116,0
DA:119,0
DA:120,0
DA:121,0
DA:122,0
DA:123,0
DA:124,0
DA:125,0
DA:126,0
DA:128,0
DA:131,0
DA:132,0
DA:133,0
DA:134,0
DA:135,0
DA:136,0
DA:137,0
DA:138,0
DA:139,0
DA:140,0
DA:141,0
DA:142,0
DA:143,0
DA:147,0
DA:149,0
DA:152,0
DA:154,0
DA:155,0
DA:156,0
DA:157,0
DA:160,0
DA:162,0
DA:163,0
DA:164,0
DA:165,0
DA:166,0
DA:167,0
DA:168,0
DA:170,0
DA:171,0
DA:172,0
DA:173,0
DA:175,0
DA:179,0
DA:181,0
DA:182,0
DA:185,0
DA:187,0
DA:188,0
DA:191,0
DA:193,0
DA:194,0
DA:197,0
DA:199,0
DA:200,0
DA:203,0
DA:205,0
DA:206,0
DA:209,0
DA:211,0
DA:212,0
LF:71
LH:0
end_of_record
TN:
SF:/home/fed/Documents/clion-workspace/qt-try/build/tests/test_databasemanager_autogen/MV7IEL3DTJ/moc_inferenceworker.cpp
FN:105,108,_ZNK6optikg15InferenceWorker10metaObjectEv
FN:110,116,_ZN6optikg15InferenceWorker11qt_metacastEPKc
FN:118,134,_ZN6optikg15InferenceWorker11qt_metacallEN11QMetaObject4CallEiPPv
FN:137,140,_ZN6optikg15InferenceWorker15progressChangedEi
FN:143,146,_ZN6optikg15InferenceWorker11resultReadyERK5QListINS_6TripleEE
FN:149,152,_ZN6optikg15InferenceWorker13errorOccurredERK7QString
FN:84,103,_ZN6optikg15InferenceWorker18qt_static_metacallEP7QObjectN11QMetaObject4CallEiPPv
FNDA:0,_ZNK6optikg15InferenceWorker10metaObjectEv
FNDA:0,_ZN6optikg15InferenceWorker11qt_metacastEPKc
FNDA:0,_ZN6optikg15InferenceWorker11qt_metacallEN11QMetaObject4CallEiPPv
FNDA:0,_ZN6optikg15InferenceWorker15progressChangedEi
FNDA:0,_ZN6optikg15InferenceWorker11resultReadyERK5QListINS_6TripleEE
FNDA:0,_ZN6optikg15InferenceWorker13errorOccurredERK7QString
FNDA:0,_ZN6optikg15InferenceWorker18qt_static_metacallEP7QObjectN11QMetaObject4CallEiPPv
FNF:7
FNH:0
DA:84,0
DA:86,0
DA:87,0
DA:88,0
DA:89,0
DA:90,0
DA:91,0
DA:92,0
DA:95,0
DA:96,0
DA:97,0
DA:98,0
DA:99,0
DA:100,0
DA:101,0
DA:105,0
DA:107,0
DA:110,0
DA:112,0
DA:113,0
DA:114,0
DA:115,0
DA:118,0
DA:120,0
DA:121,0
DA:122,0
DA:123,0
DA:124,0
DA:125,0
DA:126,0
DA:128,0
DA:129,0
DA:130,0
DA:131,0
DA:133,0
DA:137,0
DA:139,0
DA:140,0
DA:143,0
DA:145,0
DA:146,0
DA:149,0
DA:151,0
DA:152,0
LF:44
LH:0
end_of_record
TN:
SF:/home/fed/Documents/clion-workspace/qt-try/build/tests/test_databasemanager_autogen/RF5KSEWXUK/moc_batchprocessdialog.cpp
FN:141,177,_ZN6optikg18BatchProcessDialog18qt_static_metacallEP7QObjectN11QMetaObject4CallEiPPv
FN:179,182,_ZNK6optikg18BatchProcessDialog10metaObjectEv
FN:184,190,_ZN6optikg18BatchProcessDialog11qt_metacastEPKc
FN:192,208,_ZN6optikg18BatchProcessDialog11qt_metacallEN11QMetaObject4CallEiPPv
FNDA:0,_ZN6optikg18BatchProcessDialog18qt_static_metacallEP7QObjectN11QMetaObject4CallEiPPv
FNDA:0,_ZNK6optikg18BatchProcessDialog10metaObjectEv
FNDA:0,_ZN6optikg18BatchProcessDialog11qt_metacastEPKc
FNDA:0,_ZN6optikg18BatchProcessDialog11qt_metacallEN11QMetaObject4CallEiPPv
FNF:4
FNH:0
DA:141,0
DA:143,0
DA:144,0
DA:145,0
DA:146,0
DA:147,0
DA:148,0
DA:149,0
DA:150,0
DA:151,0
DA:152,0
DA:153,0
DA:154,0
DA:155,0
DA:156,0
DA:157,0
DA:158,0
DA:159,0
DA:160,0
DA:161,0
DA:162,0
DA:165,0
DA:166,0
DA:167,0
DA:168,0
DA:169,0
DA:170,0
DA:171,0
DA:172,0
DA:174,0
DA:177,0
DA:179,0
DA:181,0
DA:184,0
DA:186,0
DA:187,0
DA:188,0
DA:189,0
DA:192,0
DA:194,0
DA:195,0
DA:196,0
DA:197,0
DA:198,0
DA:199,0
DA:200,0
DA:202,0
DA:203,0
DA:204,0
DA:205,0
DA:207,0
LF:51
LH:0
end_of_record
TN:
SF:/home/fed/Documents/clion-workspace/qt-try/build/tests/test_databasemanager_autogen/RF5KSEWXUK/moc_extractionpanel.cpp
FN:105,108,_ZNK6optikg15ExtractionPanel10metaObjectEv
FN:110,116,_ZN6optikg15ExtractionPanel11qt_metacastEPKc
FN:118,134,_ZN6optikg15ExtractionPanel11qt_metacallEN11QMetaObject4CallEiPPv
FN:137,140,_ZN6optikg15ExtractionPanel14extractClickedEv
FN:143,146,_ZN6optikg15ExtractionPanel12clearClickedEv
FN:149,152,_ZN6optikg15ExtractionPanel11textChangedERK7QString
FN:82,103,_ZN6optikg15ExtractionPanel18qt_static_metacallEP7QObjectN11QMetaObject4CallEiPPv
FNDA:0,_ZNK6optikg15ExtractionPanel10metaObjectEv
FNDA:0,_ZN6optikg15ExtractionPanel11qt_metacastEPKc
FNDA:0,_ZN6optikg15ExtractionPanel11qt_metacallEN11QMetaObject4CallEiPPv
FNDA:0,_ZN6optikg15ExtractionPanel14extractClickedEv
FNDA:0,_ZN6optikg15ExtractionPanel12clearClickedEv
FNDA:0,_ZN6optikg15ExtractionPanel11textChangedERK7QString
FNDA:0,_ZN6optikg15ExtractionPanel18qt_static_metacallEP7QObjectN11QMetaObject4CallEiPPv
FNF:7
FNH:0
DA:82,0
DA:84,0
DA:85,0
DA:86,0
DA:87,0
DA:88,0
DA:89,0
DA:90,0
DA:91,0
DA:92,0
DA:95,0
DA:96,0
DA:97,0
DA:98,0
DA:99,0
DA:100,0
DA:101,0
DA:105,0
DA:107,0
DA:110,0
DA:112,0
DA:113,0
DA:114,0
DA:115,0
DA:118,0
DA:120,0
DA:121,0
DA:122,0
DA:123,0
DA:124,0
DA:125,0
DA:126,0
DA:128,0
DA:129,0
DA:130,0
DA:131,0
DA:133,0
DA:137,0
DA:139,0
DA:140,0
DA:143,0
DA:145,0
DA:146,0
DA:149,0
DA:151,0
DA:152,0
LF:46
LH:0
end_of_record
TN:
SF:/home/fed/Documents/clion-workspace/qt-try/build/tests/test_databasemanager_autogen/RF5KSEWXUK/moc_graphwidget.cpp
FN:102,108,_ZN6optikg11GraphWidget11qt_metacastEPKc
FN:110,126,_ZN6optikg11GraphWidget11qt_metacallEN11QMetaObject4CallEiPPv
FN:129,132,_ZN6optikg11GraphWidget11nodeClickedERK7QStringS3_
FN:135,138,_ZN6optikg11GraphWidget11edgeClickedERK7QStringS3_S3_
FN:79,95,_ZN6optikg11GraphWidget18qt_static_metacallEP7QObjectN11QMetaObject4CallEiPPv
FN:97,100,_ZNK6optikg11GraphWidget10metaObjectEv
FNDA:0,_ZN6optikg11GraphWidget11qt_metacastEPKc
FNDA:0,_ZN6optikg11GraphWidget11qt_metacallEN11QMetaObject4CallEiPPv
FNDA:0,_ZN6optikg11GraphWidget11nodeClickedERK7QStringS3_
FNDA:0,_ZN6optikg11GraphWidget11edgeClickedERK7QStringS3_S3_
FNDA:0,_ZN6optikg11GraphWidget18qt_static_metacallEP7QObjectN11QMetaObject4CallEiPPv
FNDA:0,_ZNK6optikg11GraphWidget10metaObjectEv
FNF:6
FNH:0
DA:79,0
DA:81,0
DA:82,0
DA:83,0
DA:84,0
DA:85,0
DA:86,0
DA:89,0
DA:90,0
DA:91,0
DA:92,0
DA:93,0
DA:97,0
DA:99,0
DA:102,0
DA:104,0
DA:105,0
DA:106,0
DA:107,0
DA:110,0
DA:112,0
DA:113,0
DA:114,0
DA:115,0
DA:116,0
DA:117,0
DA:118,0
DA:120,0
DA:121,0
DA:122,0
DA:123,0
DA:125,0
DA:129,0
DA:131,0
DA:132,0
DA:135,0
DA:137,0
DA:138,0
LF:38
LH:0
end_of_record
TN:
SF:/home/fed/Documents/clion-workspace/qt-try/build/tests/test_databasemanager_autogen/RF5KSEWXUK/moc_historypanel.cpp
FN:115,163,_ZN6optikg12HistoryPanel18qt_static_metacallEP7QObjectN11QMetaObject4CallEiPPv
FN:165,168,_ZNK6optikg12HistoryPanel10metaObjectEv
FN:170,176,_ZN6optikg12HistoryPanel11qt_metacastEPKc
FN:178,194,_ZN6optikg12HistoryPanel11qt_metacallEN11QMetaObject4CallEiPPv
FN:197,200,_ZN6optikg12HistoryPanel13recordClickedEx
FN:203,206,_ZN6optikg12HistoryPanel19recordDoubleClickedEx
FN:209,212,_ZN6optikg12HistoryPanel13exportClickedERK5QListIxE
FN:215,218,_ZN6optikg12HistoryPanel18batchDeleteClickedERK5QListIxE
FNDA:0,_ZN6optikg12HistoryPanel18qt_static_metacallEP7QObjectN11QMetaObject4CallEiPPv
FNDA:0,_ZNK6optikg12HistoryPanel10metaObjectEv
FNDA:0,_ZN6optikg12HistoryPanel11qt_metacastEPKc
FNDA:0,_ZN6optikg12HistoryPanel11qt_metacallEN11QMetaObject4CallEiPPv
FNDA:0,_ZN6optikg12HistoryPanel13recordClickedEx
FNDA:0,_ZN6optikg12HistoryPanel19recordDoubleClickedEx
FNDA:0,_ZN6optikg12HistoryPanel13exportClickedERK5QListIxE
FNDA:0,_ZN6optikg12HistoryPanel18batchDeleteClickedERK5QListIxE
FNF:8
FNH:0
DA:115,0
DA:117,0
DA:118,0
DA:119,0
DA:120,0
DA:121,0
DA:122,0
DA:123,0
DA:124,0
DA:125,0
DA:126,0
DA:127,0
DA:128,0
DA:129,0
DA:130,0
DA:131,0
DA:134,0
DA:135,0
DA:136,0
DA:137,0
DA:138,0
DA:139,0
DA:140,0
DA:141,0
DA:143,0
DA:144,0
DA:145,0
DA:146,0
DA:147,0
DA:148,0
DA:150,0
DA:153,0
DA:154,0
DA:155,0
DA:156,0
DA:157,0
DA:158,0
DA:159,0
DA:160,0
DA:161,0
DA:165,0
DA:167,0
DA:170,0
DA:172,0
DA:173,0
DA:174,0
DA:175,0
DA:178,0
DA:180,0
DA:181,0
DA:182,0
DA:183,0
DA:184,0
DA:185,0
DA:186,0
DA:188,0
DA:189,0
DA:190,0
DA:191,0
DA:193,0
DA:197,0
DA:199,0
DA:200,0
DA:203,0
DA:205,0
DA:206,0
DA:209,0
DA:211,0
DA:212,0
DA:215,0
DA:217,0
DA:218,0
LF:72
LH:0
end_of_record
TN:
SF:/home/fed/Documents/clion-workspace/qt-try/build/tests/test_databasemanager_autogen/RF5KSEWXUK/moc_mainwindow.cpp
FN:124,159,_ZN6optikg10MainWindow18qt_static_metacallEP7QObjectN11QMetaObject4CallEiPPv
FN:161,164,_ZNK6optikg10MainWindow10metaObjectEv
FN:166,172,_ZN6optikg10MainWindow11qt_metacastEPKc
FN:174,190,_ZN6optikg10MainWindow11qt_metacallEN11QMetaObject4CallEiPPv
FNDA:0,_ZN6optikg10MainWindow18qt_static_metacallEP7QObjectN11QMetaObject4CallEiPPv
FNDA:0,_ZNK6optikg10MainWindow10metaObjectEv
FNDA:0,_ZN6optikg10MainWindow11qt_metacastEPKc
FNDA:0,_ZN6optikg10MainWindow11qt_metacallEN11QMetaObject4CallEiPPv
FNF:4
FNH:0
DA:124,0
DA:126,0
DA:127,0
DA:128,0
DA:129,0
DA:130,0
DA:131,0
DA:132,0
DA:133,0
DA:134,0
DA:135,0
DA:136,0
DA:137,0
DA:138,0
DA:139,0
DA:140,0
DA:141,0
DA:142,0
DA:143,0
DA:144,0
DA:147,0
DA:148,0
DA:149,0
DA:150,0
DA:151,0
DA:152,0
DA:153,0
DA:154,0
DA:156,0
DA:159,0
DA:161,0
DA:163,0
DA:166,0
DA:168,0
DA:169,0
DA:170,0
DA:171,0
DA:174,0
DA:176,0
DA:177,0
DA:178,0
DA:179,0
DA:180,0
DA:181,0
DA:182,0
DA:184,0
DA:185,0
DA:186,0
DA:187,0
DA:189,0
LF:50
LH:0
end_of_record
TN:
SF:/home/fed/Documents/clion-workspace/qt-try/build/tests/test_databasemanager_autogen/RF5KSEWXUK/moc_resulttreewidget.cpp
FN:101,107,_ZN6optikg16ResultTreeWidget11qt_metacastEPKc
FN:109,125,_ZN6optikg16ResultTreeWidget11qt_metacallEN11QMetaObject4CallEiPPv
FN:128,131,_ZN6optikg16ResultTreeWidget13entityClickedERK7QStringS3_
FN:134,137,_ZN6optikg16ResultTreeWidget13tripleClickedERKNS_6TripleE
FN:78,94,_ZN6optikg16ResultTreeWidget18qt_static_metacallEP7QObjectN11QMetaObject4CallEiPPv
FN:96,99,_ZNK6optikg16ResultTreeWidget10metaObjectEv
FNDA:0,_ZN6optikg16ResultTreeWidget11qt_metacastEPKc
FNDA:0,_ZN6optikg16ResultTreeWidget11qt_metacallEN11QMetaObject4CallEiPPv
FNDA:0,_ZN6optikg16ResultTreeWidget13entityClickedERK7QStringS3_
FNDA:0,_ZN6optikg16ResultTreeWidget13tripleClickedERKNS_6TripleE
FNDA:0,_ZN6optikg16ResultTreeWidget18qt_static_metacallEP7QObjectN11QMetaObject4CallEiPPv
FNDA:0,_ZNK6optikg16ResultTreeWidget10metaObjectEv
FNF:6
FNH:0
DA:78,0
DA:80,0
DA:81,0
DA:82,0
DA:83,0
DA:84,0
DA:85,0
DA:88,0
DA:89,0
DA:90,0
DA:91,0
DA:92,0
DA:96,0
DA:98,0
DA:101,0
DA:103,0
DA:104,0
DA:105,0
DA:106,0
DA:109,0
DA:111,0
DA:112,0
DA:113,0
DA:114,0
DA:115,0
DA:116,0
DA:117,0
DA:119,0
DA:120,0
DA:121,0
DA:122,0
DA:124,0
DA:128,0
DA:130,0
DA:131,0
DA:134,0
DA:136,0
DA:137,0
LF:38
LH:0
end_of_record
TN:
SF:/home/fed/Documents/clion-workspace/qt-try/build/tests/test_databasemanager_autogen/RF5KSEWXUK/moc_settingsdialog.cpp
FN:104,110,_ZN6optikg14SettingsDialog11qt_metacastEPKc
FN:112,128,_ZN6optikg14SettingsDialog11qt_metacallEN11QMetaObject4CallEiPPv
FN:82,97,_ZN6optikg14SettingsDialog18qt_static_metacallEP7QObjectN11QMetaObject4CallEiPPv
FN:99,102,_ZNK6optikg14SettingsDialog10metaObjectEv
FNDA:0,_ZN6optikg14SettingsDialog11qt_metacastEPKc
FNDA:0,_ZN6optikg14SettingsDialog11qt_metacallEN11QMetaObject4CallEiPPv
FNDA:0,_ZN6optikg14SettingsDialog18qt_static_metacallEP7QObjectN11QMetaObject4CallEiPPv
FNDA:0,_ZNK6optikg14SettingsDialog10metaObjectEv
FNF:4
FNH:0
DA:82,0
DA:84,0
DA:85,0
DA:86,0
DA:87,0
DA:88,0
DA:89,0
DA:90,0
DA:91,0
DA:92,0
DA:93,0
DA:97,0
DA:99,0
DA:101,0
DA:104,0
DA:106,0
DA:107,0
DA:108,0
DA:109,0
DA:112,0
DA:114,0
DA:115,0
DA:116,0
DA:117,0
DA:118,0
DA:119,0
DA:120,0
DA:122,0
DA:123,0
DA:124,0
DA:125,0
DA:127,0
LF:32
LH:0
end_of_record
TN:
SF:/home/fed/Documents/clion-workspace/qt-try/build/tests/test_databasemanager_autogen/VTM74X6NYQ/moc_databasemanager.cpp
FN:104,120,_ZN6optikg15DatabaseManager11qt_metacallEN11QMetaObject4CallEiPPv
FN:123,126,_ZN6optikg15DatabaseManager15databaseChangedEv
FN:129,132,_ZN6optikg15DatabaseManager13errorOccurredERK7QString
FN:73,89,_ZN6optikg15DatabaseManager18qt_static_metacallEP7QObjectN11QMetaObject4CallEiPPv
FN:91,94,_ZNK6optikg15DatabaseManager10metaObjectEv
FN:96,102,_ZN6optikg15DatabaseManager11qt_metacastEPKc
FNDA:0,_ZN6optikg15DatabaseManager11qt_metacallEN11QMetaObject4CallEiPPv
FNDA:62,_ZN6optikg15DatabaseManager15databaseChangedEv
FNDA:0,_ZN6optikg15DatabaseManager13errorOccurredERK7QString
FNDA:0,_ZN6optikg15DatabaseManager18qt_static_metacallEP7QObjectN11QMetaObject4CallEiPPv
FNDA:0,_ZNK6optikg15DatabaseManager10metaObjectEv
FNDA:0,_ZN6optikg15DatabaseManager11qt_metacastEPKc
FNF:6
FNH:1
DA:73,0
DA:75,0
DA:76,0
DA:77,0
DA:78,0
DA:79,0
DA:80,0
DA:83,0
DA:84,0
DA:85,0
DA:86,0
DA:87,0
DA:91,0
DA:93,0
DA:96,0
DA:98,0
DA:99,0
DA:100,0
DA:101,0
DA:104,0
DA:106,0
DA:107,0
DA:108,0
DA:109,0
DA:110,0
DA:111,0
DA:112,0
DA:114,0
DA:115,0
DA:116,0
DA:117,0
DA:119,0
DA:123,62
DA:125,62
DA:126,62
DA:129,0
DA:131,0
DA:132,0
LF:38
LH:3
end_of_record
TN:
SF:/home/fed/Documents/clion-workspace/qt-try/build/tests/test_databasemanager_autogen/include/test_databasemanager.moc
FN:132,164,_ZN19TestDatabaseManager18qt_static_metacallEP7QObjectN11QMetaObject4CallEiPPv
FN:166,169,_ZNK19TestDatabaseManager10metaObjectEv
FN:171,177,_ZN19TestDatabaseManager11qt_metacastEPKc
FN:179,195,_ZN19TestDatabaseManager11qt_metacallEN11QMetaObject4CallEiPPv
FNDA:46,_ZN19TestDatabaseManager18qt_static_metacallEP7QObjectN11QMetaObject4CallEiPPv
FNDA:58,_ZNK19TestDatabaseManager10metaObjectEv
FNDA:0,_ZN19TestDatabaseManager11qt_metacastEPKc
FNDA:0,_ZN19TestDatabaseManager11qt_metacallEN11QMetaObject4CallEiPPv
FNF:4
FNH:2
DA:132,46
DA:134,46
DA:135,46
DA:136,46
DA:137,2
DA:138,2
DA:139,2
DA:140,2
DA:141,2
DA:142,2
DA:143,2
DA:144,2
DA:145,2
DA:146,2
DA:147,2
DA:148,2
DA:149,2
DA:150,2
DA:151,2
DA:152,2
DA:153,2
DA:154,2
DA:155,2
DA:156,2
DA:157,2
DA:158,2
DA:159,2
DA:160,46
DA:164,46
DA:166,58
DA:168,58
DA:171,0
DA:173,0
DA:174,0
DA:175,0
DA:176,0
DA:179,0
DA:181,0
DA:182,0
DA:183,0
DA:184,0
DA:185,0
DA:186,0
DA:187,0
DA:189,0
DA:190,0
DA:191,0
DA:192,0
DA:194,0
LF:49
LH:31
end_of_record
TN:
SF:/home/fed/Documents/clion-workspace/qt-try/build/tests/test_databasemanager_autogen/include/ui_mainwindow.h
FN:31,56,_ZN13Ui_MainWindow7setupUiEP11QMainWindow
FN:58,61,_ZN13Ui_MainWindow13retranslateUiEP11QMainWindow
FNDA:0,_ZN13Ui_MainWindow7setupUiEP11QMainWindow
FNDA:0,_ZN13Ui_MainWindow13retranslateUiEP11QMainWindow
FNF:2
FNH:0
DA:31,0
DA:33,0
DA:34,0
DA:35,0
DA:36,0
DA:37,0
DA:38,0
DA:39,0
DA:40,0
DA:41,0
DA:42,0
DA:43,0
DA:44,0
DA:45,0
DA:46,0
DA:47,0
DA:48,0
DA:49,0
DA:50,0
DA:51,0
DA:53,0
DA:55,0
DA:56,0
DA:58,0
DA:60,0
DA:61,0
LF:26
LH:0
end_of_record
TN:
SF:/home/fed/Documents/clion-workspace/qt-try/build/tests/test_datamodel_autogen/7KRDZL6R5E/moc_configmanager.cpp
FN:117,120,_ZN6optikg13ConfigManager14settingChangedERK7QString
FN:70,83,_ZN6optikg13ConfigManager18qt_static_metacallEP7QObjectN11QMetaObject4CallEiPPv
FN:85,88,_ZNK6optikg13ConfigManager10metaObjectEv
FN:90,96,_ZN6optikg13ConfigManager11qt_metacastEPKc
FN:98,114,_ZN6optikg13ConfigManager11qt_metacallEN11QMetaObject4CallEiPPv
FNDA:0,_ZN6optikg13ConfigManager14settingChangedERK7QString
FNDA:0,_ZN6optikg13ConfigManager18qt_static_metacallEP7QObjectN11QMetaObject4CallEiPPv
FNDA:0,_ZNK6optikg13ConfigManager10metaObjectEv
FNDA:0,_ZN6optikg13ConfigManager11qt_metacastEPKc
FNDA:0,_ZN6optikg13ConfigManager11qt_metacallEN11QMetaObject4CallEiPPv
FNF:5
FNH:0
DA:70,0
DA:72,0
DA:73,0
DA:74,0
DA:75,0
DA:76,0
DA:79,0
DA:80,0
DA:81,0
DA:85,0
DA:87,0
DA:90,0
DA:92,0
DA:93,0
DA:94,0
DA:95,0
DA:98,0
DA:100,0
DA:101,0
DA:102,0
DA:103,0
DA:104,0
DA:105,0
DA:106,0
DA:108,0
DA:109,0
DA:110,0
DA:111,0
DA:113,0
DA:117,0
DA:119,0
DA:120,0
LF:32
LH:0
end_of_record
TN:
SF:/home/fed/Documents/clion-workspace/qt-try/build/tests/test_datamodel_autogen/MV7IEL3DTJ/moc_batchprocessor.cpp
FN:105,145,_ZN6optikg14BatchProcessor18qt_static_metacallEP7QObjectN11QMetaObject4CallEiPPv
FN:147,150,_ZNK6optikg14BatchProcessor10metaObjectEv
FN:152,158,_ZN6optikg14BatchProcessor11qt_metacastEPKc
FN:160,176,_ZN6optikg14BatchProcessor11qt_metacallEN11QMetaObject4CallEiPPv
FN:179,182,_ZN6optikg14BatchProcessor15progressChangedEiiRK7QString
FN:185,188,_ZN6optikg14BatchProcessor12scanProgressEiiRK7QString
FN:191,194,_ZN6optikg14BatchProcessor12scanFinishedEii
FN:197,200,_ZN6optikg14BatchProcessor13fileProcessedERKNS_17FileProcessResultE
FN:203,206,_ZN6optikg14BatchProcessor13errorOccurredERK7QStringS3_
FN:209,212,_ZN6optikg14BatchProcessor13batchFinishedEiii
FNDA:0,_ZN6optikg14BatchProcessor18qt_static_metacallEP7QObjectN11QMetaObject4CallEiPPv
FNDA:0,_ZNK6optikg14BatchProcessor10metaObjectEv
FNDA:0,_ZN6optikg14BatchProcessor11qt_metacastEPKc
FNDA:0,_ZN6optikg14BatchProcessor11qt_metacallEN11QMetaObject4CallEiPPv
FNDA:0,_ZN6optikg14BatchProcessor15progressChangedEiiRK7QString
FNDA:0,_ZN6optikg14BatchProcessor12scanProgressEiiRK7QString
FNDA:0,_ZN6optikg14BatchProcessor12scanFinishedEii
FNDA:0,_ZN6optikg14BatchProcessor13fileProcessedERKNS_17FileProcessResultE
FNDA:0,_ZN6optikg14BatchProcessor13errorOccurredERK7QStringS3_
FNDA:0,_ZN6optikg14BatchProcessor13batchFinishedEiii
FNF:10
FNH:0
DA:105,0
DA:107,0
DA:108,0
DA:109,0
DA:110,0
DA:111,0
DA:112,0
DA:113,0
DA:114,0
DA:115,0
DA:116,0
DA:119,0
DA:120,0
DA:121,0
DA:122,0
DA:123,0
DA:124,0
DA:125,0
DA:126,0
DA:128,0
DA:131,0
DA:132,0
DA:133,0
DA:134,0
DA:135,0
DA:136,0
DA:137,0
DA:138,0
DA:139,0
DA:140,0
DA:141,0
DA:142,0
DA:143,0
DA:147,0
DA:149,0
DA:152,0
DA:154,0
DA:155,0
DA:156,0
DA:157,0
DA:160,0
DA:162,0
DA:163,0
DA:164,0
DA:165,0
DA:166,0
DA:167,0
DA:168,0
DA:170,0
DA:171,0
DA:172,0
DA:173,0
DA:175,0
DA:179,0
DA:181,0
DA:182,0
DA:185,0
DA:187,0
DA:188,0
DA:191,0
DA:193,0
DA:194,0
DA:197,0
DA:199,0
DA:200,0
DA:203,0
DA:205,0
DA:206,0
DA:209,0
DA:211,0
DA:212,0
LF:71
LH:0
end_of_record
TN:
SF:/home/fed/Documents/clion-workspace/qt-try/build/tests/test_datamodel_autogen/MV7IEL3DTJ/moc_inferenceworker.cpp
FN:105,108,_ZNK6optikg15InferenceWorker10metaObjectEv
FN:110,116,_ZN6optikg15InferenceWorker11qt_metacastEPKc
FN:118,134,_ZN6optikg15InferenceWorker11qt_metacallEN11QMetaObject4CallEiPPv
FN:137,140,_ZN6optikg15InferenceWorker15progressChangedEi
FN:143,146,_ZN6optikg15InferenceWorker11resultReadyERK5QListINS_6TripleEE
FN:149,152,_ZN6optikg15InferenceWorker13errorOccurredERK7QString
FN:84,103,_ZN6optikg15InferenceWorker18qt_static_metacallEP7QObjectN11QMetaObject4CallEiPPv
FNDA:0,_ZNK6optikg15InferenceWorker10metaObjectEv
FNDA:0,_ZN6optikg15InferenceWorker11qt_metacastEPKc
FNDA:0,_ZN6optikg15InferenceWorker11qt_metacallEN11QMetaObject4CallEiPPv
FNDA:0,_ZN6optikg15InferenceWorker15progressChangedEi
FNDA:0,_ZN6optikg15InferenceWorker11resultReadyERK5QListINS_6TripleEE
FNDA:0,_ZN6optikg15InferenceWorker13errorOccurredERK7QString
FNDA:0,_ZN6optikg15InferenceWorker18qt_static_metacallEP7QObjectN11QMetaObject4CallEiPPv
FNF:7
FNH:0
DA:84,0
DA:86,0
DA:87,0
DA:88,0
DA:89,0
DA:90,0
DA:91,0
DA:92,0
DA:95,0
DA:96,0
DA:97,0
DA:98,0
DA:99,0
DA:100,0
DA:101,0
DA:105,0
DA:107,0
DA:110,0
DA:112,0
DA:113,0
DA:114,0
DA:115,0
DA:118,0
DA:120,0
DA:121,0
DA:122,0
DA:123,0
DA:124,0
DA:125,0
DA:126,0
DA:128,0
DA:129,0
DA:130,0
DA:131,0
DA:133,0
DA:137,0
DA:139,0
DA:140,0
DA:143,0
DA:145,0
DA:146,0
DA:149,0
DA:151,0
DA:152,0
LF:44
LH:0
end_of_record
TN:
SF:/home/fed/Documents/clion-workspace/qt-try/build/tests/test_datamodel_autogen/RF5KSEWXUK/moc_batchprocessdialog.cpp
FN:141,177,_ZN6optikg18BatchProcessDialog18qt_static_metacallEP7QObjectN11QMetaObject4CallEiPPv
FN:179,182,_ZNK6optikg18BatchProcessDialog10metaObjectEv
FN:184,190,_ZN6optikg18BatchProcessDialog11qt_metacastEPKc
FN:192,208,_ZN6optikg18BatchProcessDialog11qt_metacallEN11QMetaObject4CallEiPPv
FNDA:0,_ZN6optikg18BatchProcessDialog18qt_static_metacallEP7QObjectN11QMetaObject4CallEiPPv
FNDA:0,_ZNK6optikg18BatchProcessDialog10metaObjectEv
FNDA:0,_ZN6optikg18BatchProcessDialog11qt_metacastEPKc
FNDA:0,_ZN6optikg18BatchProcessDialog11qt_metacallEN11QMetaObject4CallEiPPv
FNF:4
FNH:0
DA:141,0
DA:143,0
DA:144,0
DA:145,0
DA:146,0
DA:147,0
DA:148,0
DA:149,0
DA:150,0
DA:151,0
DA:152,0
DA:153,0
DA:154,0
DA:155,0
DA:156,0
DA:157,0
DA:158,0
DA:159,0
DA:160,0
DA:161,0
DA:162,0
DA:165,0
DA:166,0
DA:167,0
DA:168,0
DA:169,0
DA:170,0
DA:171,0
DA:172,0
DA:174,0
DA:177,0
DA:179,0
DA:181,0
DA:184,0
DA:186,0
DA:187,0
DA:188,0
DA:189,0
DA:192,0
DA:194,0
DA:195,0
DA:196,0
DA:197,0
DA:198,0
DA:199,0
DA:200,0
DA:202,0
DA:203,0
DA:204,0
DA:205,0
DA:207,0
LF:51
LH:0
end_of_record
TN:
SF:/home/fed/Documents/clion-workspace/qt-try/build/tests/test_datamodel_autogen/RF5KSEWXUK/moc_extractionpanel.cpp
FN:105,108,_ZNK6optikg15ExtractionPanel10metaObjectEv
FN:110,116,_ZN6optikg15ExtractionPanel11qt_metacastEPKc
FN:118,134,_ZN6optikg15ExtractionPanel11qt_metacallEN11QMetaObject4CallEiPPv
FN:137,140,_ZN6optikg15ExtractionPanel14extractClickedEv
FN:143,146,_ZN6optikg15ExtractionPanel12clearClickedEv
FN:149,152,_ZN6optikg15ExtractionPanel11textChangedERK7QString
FN:82,103,_ZN6optikg15ExtractionPanel18qt_static_metacallEP7QObjectN11QMetaObject4CallEiPPv
FNDA:0,_ZNK6optikg15ExtractionPanel10metaObjectEv
FNDA:0,_ZN6optikg15ExtractionPanel11qt_metacastEPKc
FNDA:0,_ZN6optikg15ExtractionPanel11qt_metacallEN11QMetaObject4CallEiPPv
FNDA:0,_ZN6optikg15ExtractionPanel14extractClickedEv
FNDA:0,_ZN6optikg15ExtractionPanel12clearClickedEv
FNDA:0,_ZN6optikg15ExtractionPanel11textChangedERK7QString
FNDA:0,_ZN6optikg15ExtractionPanel18qt_static_metacallEP7QObjectN11QMetaObject4CallEiPPv
FNF:7
FNH:0
DA:82,0
DA:84,0
DA:85,0
DA:86,0
DA:87,0
DA:88,0
DA:89,0
DA:90,0
DA:91,0
DA:92,0
DA:95,0
DA:96,0
DA:97,0
DA:98,0
DA:99,0
DA:100,0
DA:101,0
DA:105,0
DA:107,0
DA:110,0
DA:112,0
DA:113,0
DA:114,0
DA:115,0
DA:118,0
DA:120,0
DA:121,0
DA:122,0
DA:123,0
DA:124,0
DA:125,0
DA:126,0
DA:128,0
DA:129,0
DA:130,0
DA:131,0
DA:133,0
DA:137,0
DA:139,0
DA:140,0
DA:143,0
DA:145,0
DA:146,0
DA:149,0
DA:151,0
DA:152,0
LF:46
LH:0
end_of_record
TN:
SF:/home/fed/Documents/clion-workspace/qt-try/build/tests/test_datamodel_autogen/RF5KSEWXUK/moc_graphwidget.cpp
FN:102,108,_ZN6optikg11GraphWidget11qt_metacastEPKc
FN:110,126,_ZN6optikg11GraphWidget11qt_metacallEN11QMetaObject4CallEiPPv
FN:129,132,_ZN6optikg11GraphWidget11nodeClickedERK7QStringS3_
FN:135,138,_ZN6optikg11GraphWidget11edgeClickedERK7QStringS3_S3_
FN:79,95,_ZN6optikg11GraphWidget18qt_static_metacallEP7QObjectN11QMetaObject4CallEiPPv
FN:97,100,_ZNK6optikg11GraphWidget10metaObjectEv
FNDA:0,_ZN6optikg11GraphWidget11qt_metacastEPKc
FNDA:0,_ZN6optikg11GraphWidget11qt_metacallEN11QMetaObject4CallEiPPv
FNDA:0,_ZN6optikg11GraphWidget11nodeClickedERK7QStringS3_
FNDA:0,_ZN6optikg11GraphWidget11edgeClickedERK7QStringS3_S3_
FNDA:0,_ZN6optikg11GraphWidget18qt_static_metacallEP7QObjectN11QMetaObject4CallEiPPv
FNDA:0,_ZNK6optikg11GraphWidget10metaObjectEv
FNF:6
FNH:0
DA:79,0
DA:81,0
DA:82,0
DA:83,0
DA:84,0
DA:85,0
DA:86,0
DA:89,0
DA:90,0
DA:91,0
DA:92,0
DA:93,0
DA:97,0
DA:99,0
DA:102,0
DA:104,0
DA:105,0
DA:106,0
DA:107,0
DA:110,0
DA:112,0
DA:113,0
DA:114,0
DA:115,0
DA:116,0
DA:117,0
DA:118,0
DA:120,0
DA:121,0
DA:122,0
DA:123,0
DA:125,0
DA:129,0
DA:131,0
DA:132,0
DA:135,0
DA:137,0
DA:138,0
LF:38
LH:0
end_of_record
TN:
SF:/home/fed/Documents/clion-workspace/qt-try/build/tests/test_datamodel_autogen/RF5KSEWXUK/moc_historypanel.cpp
FN:115,163,_ZN6optikg12HistoryPanel18qt_static_metacallEP7QObjectN11QMetaObject4CallEiPPv
FN:165,168,_ZNK6optikg12HistoryPanel10metaObjectEv
FN:170,176,_ZN6optikg12HistoryPanel11qt_metacastEPKc
FN:178,194,_ZN6optikg12HistoryPanel11qt_metacallEN11QMetaObject4CallEiPPv
FN:197,200,_ZN6optikg12HistoryPanel13recordClickedEx
FN:203,206,_ZN6optikg12HistoryPanel19recordDoubleClickedEx
FN:209,212,_ZN6optikg12HistoryPanel13exportClickedERK5QListIxE
FN:215,218,_ZN6optikg12HistoryPanel18batchDeleteClickedERK5QListIxE
FNDA:0,_ZN6optikg12HistoryPanel18qt_static_metacallEP7QObjectN11QMetaObject4CallEiPPv
FNDA:0,_ZNK6optikg12HistoryPanel10metaObjectEv
FNDA:0,_ZN6optikg12HistoryPanel11qt_metacastEPKc
FNDA:0,_ZN6optikg12HistoryPanel11qt_metacallEN11QMetaObject4CallEiPPv
FNDA:0,_ZN6optikg12HistoryPanel13recordClickedEx
FNDA:0,_ZN6optikg12HistoryPanel19recordDoubleClickedEx
FNDA:0,_ZN6optikg12HistoryPanel13exportClickedERK5QListIxE
FNDA:0,_ZN6optikg12HistoryPanel18batchDeleteClickedERK5QListIxE
FNF:8
FNH:0
DA:115,0
DA:117,0
DA:118,0
DA:119,0
DA:120,0
DA:121,0
DA:122,0
DA:123,0
DA:124,0
DA:125,0
DA:126,0
DA:127,0
DA:128,0
DA:129,0
DA:130,0
DA:131,0
DA:134,0
DA:135,0
DA:136,0
DA:137,0
DA:138,0
DA:139,0
DA:140,0
DA:141,0
DA:143,0
DA:144,0
DA:145,0
DA:146,0
DA:147,0
DA:148,0
DA:150,0
DA:153,0
DA:154,0
DA:155,0
DA:156,0
DA:157,0
DA:158,0
DA:159,0
DA:160,0
DA:161,0
DA:165,0
DA:167,0
DA:170,0
DA:172,0
DA:173,0
DA:174,0
DA:175,0
DA:178,0
DA:180,0
DA:181,0
DA:182,0
DA:183,0
DA:184,0
DA:185,0
DA:186,0
DA:188,0
DA:189,0
DA:190,0
DA:191,0
DA:193,0
DA:197,0
DA:199,0
DA:200,0
DA:203,0
DA:205,0
DA:206,0
DA:209,0
DA:211,0
DA:212,0
DA:215,0
DA:217,0
DA:218,0
LF:72
LH:0
end_of_record
TN:
SF:/home/fed/Documents/clion-workspace/qt-try/build/tests/test_datamodel_autogen/RF5KSEWXUK/moc_mainwindow.cpp
FN:124,159,_ZN6optikg10MainWindow18qt_static_metacallEP7QObjectN11QMetaObject4CallEiPPv
FN:161,164,_ZNK6optikg10MainWindow10metaObjectEv
FN:166,172,_ZN6optikg10MainWindow11qt_metacastEPKc
FN:174,190,_ZN6optikg10MainWindow11qt_metacallEN11QMetaObject4CallEiPPv
FNDA:0,_ZN6optikg10MainWindow18qt_static_metacallEP7QObjectN11QMetaObject4CallEiPPv
FNDA:0,_ZNK6optikg10MainWindow10metaObjectEv
FNDA:0,_ZN6optikg10MainWindow11qt_metacastEPKc
FNDA:0,_ZN6optikg10MainWindow11qt_metacallEN11QMetaObject4CallEiPPv
FNF:4
FNH:0
DA:124,0
DA:126,0
DA:127,0
DA:128,0
DA:129,0
DA:130,0
DA:131,0
DA:132,0
DA:133,0
DA:134,0
DA:135,0
DA:136,0
DA:137,0
DA:138,0
DA:139,0
DA:140,0
DA:141,0
DA:142,0
DA:143,0
DA:144,0
DA:147,0
DA:148,0
DA:149,0
DA:150,0
DA:151,0
DA:152,0
DA:153,0
DA:154,0
DA:156,0
DA:159,0
DA:161,0
DA:163,0
DA:166,0
DA:168,0
DA:169,0
DA:170,0
DA:171,0
DA:174,0
DA:176,0
DA:177,0
DA:178,0
DA:179,0
DA:180,0
DA:181,0
DA:182,0
DA:184,0
DA:185,0
DA:186,0
DA:187,0
DA:189,0
LF:50
LH:0
end_of_record
TN:
SF:/home/fed/Documents/clion-workspace/qt-try/build/tests/test_datamodel_autogen/RF5KSEWXUK/moc_resulttreewidget.cpp
FN:101,107,_ZN6optikg16ResultTreeWidget11qt_metacastEPKc
FN:109,125,_ZN6optikg16ResultTreeWidget11qt_metacallEN11QMetaObject4CallEiPPv
FN:128,131,_ZN6optikg16ResultTreeWidget13entityClickedERK7QStringS3_
FN:134,137,_ZN6optikg16ResultTreeWidget13tripleClickedERKNS_6TripleE
FN:78,94,_ZN6optikg16ResultTreeWidget18qt_static_metacallEP7QObjectN11QMetaObject4CallEiPPv
FN:96,99,_ZNK6optikg16ResultTreeWidget10metaObjectEv
FNDA:0,_ZN6optikg16ResultTreeWidget11qt_metacastEPKc
FNDA:0,_ZN6optikg16ResultTreeWidget11qt_metacallEN11QMetaObject4CallEiPPv
FNDA:0,_ZN6optikg16ResultTreeWidget13entityClickedERK7QStringS3_
FNDA:0,_ZN6optikg16ResultTreeWidget13tripleClickedERKNS_6TripleE
FNDA:0,_ZN6optikg16ResultTreeWidget18qt_static_metacallEP7QObjectN11QMetaObject4CallEiPPv
FNDA:0,_ZNK6optikg16ResultTreeWidget10metaObjectEv
FNF:6
FNH:0
DA:78,0
DA:80,0
DA:81,0
DA:82,0
DA:83,0
DA:84,0
DA:85,0
DA:88,0
DA:89,0
DA:90,0
DA:91,0
DA:92,0
DA:96,0
DA:98,0
DA:101,0
DA:103,0
DA:104,0
DA:105,0
DA:106,0
DA:109,0
DA:111,0
DA:112,0
DA:113,0
DA:114,0
DA:115,0
DA:116,0
DA:117,0
DA:119,0
DA:120,0
DA:121,0
DA:122,0
DA:124,0
DA:128,0
DA:130,0
DA:131,0
DA:134,0
DA:136,0
DA:137,0
LF:38
LH:0
end_of_record
TN:
SF:/home/fed/Documents/clion-workspace/qt-try/build/tests/test_datamodel_autogen/RF5KSEWXUK/moc_settingsdialog.cpp
FN:104,110,_ZN6optikg14SettingsDialog11qt_metacastEPKc
FN:112,128,_ZN6optikg14SettingsDialog11qt_metacallEN11QMetaObject4CallEiPPv
FN:82,97,_ZN6optikg14SettingsDialog18qt_static_metacallEP7QObjectN11QMetaObject4CallEiPPv
FN:99,102,_ZNK6optikg14SettingsDialog10metaObjectEv
FNDA:0,_ZN6optikg14SettingsDialog11qt_metacastEPKc
FNDA:0,_ZN6optikg14SettingsDialog11qt_metacallEN11QMetaObject4CallEiPPv
FNDA:0,_ZN6optikg14SettingsDialog18qt_static_metacallEP7QObjectN11QMetaObject4CallEiPPv
FNDA:0,_ZNK6optikg14SettingsDialog10metaObjectEv
FNF:4
FNH:0
DA:82,0
DA:84,0
DA:85,0
DA:86,0
DA:87,0
DA:88,0
DA:89,0
DA:90,0
DA:91,0
DA:92,0
DA:93,0
DA:97,0
DA:99,0
DA:101,0
DA:104,0
DA:106,0
DA:107,0
DA:108,0
DA:109,0
DA:112,0
DA:114,0
DA:115,0
DA:116,0
DA:117,0
DA:118,0
DA:119,0
DA:120,0
DA:122,0
DA:123,0
DA:124,0
DA:125,0
DA:127,0
LF:32
LH:0
end_of_record
TN:
SF:/home/fed/Documents/clion-workspace/qt-try/build/tests/test_datamodel_autogen/VTM74X6NYQ/moc_databasemanager.cpp
FN:104,120,_ZN6optikg15DatabaseManager11qt_metacallEN11QMetaObject4CallEiPPv
FN:123,126,_ZN6optikg15DatabaseManager15databaseChangedEv
FN:129,132,_ZN6optikg15DatabaseManager13errorOccurredERK7QString
FN:73,89,_ZN6optikg15DatabaseManager18qt_static_metacallEP7QObjectN11QMetaObject4CallEiPPv
FN:91,94,_ZNK6optikg15DatabaseManager10metaObjectEv
FN:96,102,_ZN6optikg15DatabaseManager11qt_metacastEPKc
FNDA:0,_ZN6optikg15DatabaseManager11qt_metacallEN11QMetaObject4CallEiPPv
FNDA:0,_ZN6optikg15DatabaseManager15databaseChangedEv
FNDA:0,_ZN6optikg15DatabaseManager13errorOccurredERK7QString
FNDA:0,_ZN6optikg15DatabaseManager18qt_static_metacallEP7QObjectN11QMetaObject4CallEiPPv
FNDA:0,_ZNK6optikg15DatabaseManager10metaObjectEv
FNDA:0,_ZN6optikg15DatabaseManager11qt_metacastEPKc
FNF:6
FNH:0
DA:73,0
DA:75,0
DA:76,0
DA:77,0
DA:78,0
DA:79,0
DA:80,0
DA:83,0
DA:84,0
DA:85,0
DA:86,0
DA:87,0
DA:91,0
DA:93,0
DA:96,0
DA:98,0
DA:99,0
DA:100,0
DA:101,0
DA:104,0
DA:106,0
DA:107,0
DA:108,0
DA:109,0
DA:110,0
DA:111,0
DA:112,0
DA:114,0
DA:115,0
DA:116,0
DA:117,0
DA:119,0
DA:123,0
DA:125,0
DA:126,0
DA:129,0
DA:131,0
DA:132,0
LF:38
LH:0
end_of_record
TN:
SF:/home/fed/Documents/clion-workspace/qt-try/build/tests/test_datamodel_autogen/include/test_datamodel.moc
FN:111,136,_ZN13TestDataModel18qt_static_metacallEP7QObjectN11QMetaObject4CallEiPPv
FN:138,141,_ZNK13TestDataModel10metaObjectEv
FN:143,149,_ZN13TestDataModel11qt_metacastEPKc
FN:151,167,_ZN13TestDataModel11qt_metacallEN11QMetaObject4CallEiPPv
FNDA:32,_ZN13TestDataModel18qt_static_metacallEP7QObjectN11QMetaObject4CallEiPPv
FNDA:44,_ZNK13TestDataModel10metaObjectEv
FNDA:0,_ZN13TestDataModel11qt_metacastEPKc
FNDA:0,_ZN13TestDataModel11qt_metacallEN11QMetaObject4CallEiPPv
FNF:4
FNH:2
DA:111,32
DA:113,32
DA:114,32
DA:115,32
DA:116,2
DA:117,2
DA:118,2
DA:119,2
DA:120,2
DA:121,2
DA:122,2
DA:123,2
DA:124,2
DA:125,2
DA:126,2
DA:127,2
DA:128,2
DA:129,2
DA:130,2
DA:131,2
DA:132,32
DA:136,32
DA:138,44
DA:140,44
DA:143,0
DA:145,0
DA:146,0
DA:147,0
DA:148,0
DA:151,0
DA:153,0
DA:154,0
DA:155,0
DA:156,0
DA:157,0
DA:158,0
DA:159,0
DA:161,0
DA:162,0
DA:163,0
DA:164,0
DA:166,0
LF:42
LH:24
end_of_record
TN:
SF:/home/fed/Documents/clion-workspace/qt-try/build/tests/test_datamodel_autogen/include/ui_mainwindow.h
FN:31,56,_ZN13Ui_MainWindow7setupUiEP11QMainWindow
FN:58,61,_ZN13Ui_MainWindow13retranslateUiEP11QMainWindow
FNDA:0,_ZN13Ui_MainWindow7setupUiEP11QMainWindow
FNDA:0,_ZN13Ui_MainWindow13retranslateUiEP11QMainWindow
FNF:2
FNH:0
DA:31,0
DA:33,0
DA:34,0
DA:35,0
DA:36,0
DA:37,0
DA:38,0
DA:39,0
DA:40,0
DA:41,0
DA:42,0
DA:43,0
DA:44,0
DA:45,0
DA:46,0
DA:47,0
DA:48,0
DA:49,0
DA:50,0
DA:51,0
DA:53,0
DA:55,0
DA:56,0
DA:58,0
DA:60,0
DA:61,0
LF:26
LH:0
end_of_record
TN:
SF:/home/fed/Documents/clion-workspace/qt-try/build/tests/test_graphwidget_autogen/7KRDZL6R5E/moc_configmanager.cpp
FN:117,120,_ZN6optikg13ConfigManager14settingChangedERK7QString
FN:70,83,_ZN6optikg13ConfigManager18qt_static_metacallEP7QObjectN11QMetaObject4CallEiPPv
FN:85,88,_ZNK6optikg13ConfigManager10metaObjectEv
FN:90,96,_ZN6optikg13ConfigManager11qt_metacastEPKc
FN:98,114,_ZN6optikg13ConfigManager11qt_metacallEN11QMetaObject4CallEiPPv
FNDA:0,_ZN6optikg13ConfigManager14settingChangedERK7QString
FNDA:0,_ZN6optikg13ConfigManager18qt_static_metacallEP7QObjectN11QMetaObject4CallEiPPv
FNDA:0,_ZNK6optikg13ConfigManager10metaObjectEv
FNDA:0,_ZN6optikg13ConfigManager11qt_metacastEPKc
FNDA:0,_ZN6optikg13ConfigManager11qt_metacallEN11QMetaObject4CallEiPPv
FNF:5
FNH:0
DA:70,0
DA:72,0
DA:73,0
DA:74,0
DA:75,0
DA:76,0
DA:79,0
DA:80,0
DA:81,0
DA:85,0
DA:87,0
DA:90,0
DA:92,0
DA:93,0
DA:94,0
DA:95,0
DA:98,0
DA:100,0
DA:101,0
DA:102,0
DA:103,0
DA:104,0
DA:105,0
DA:106,0
DA:108,0
DA:109,0
DA:110,0
DA:111,0
DA:113,0
DA:117,0
DA:119,0
DA:120,0
LF:32
LH:0
end_of_record
TN:
SF:/home/fed/Documents/clion-workspace/qt-try/build/tests/test_graphwidget_autogen/MV7IEL3DTJ/moc_batchprocessor.cpp
FN:105,145,_ZN6optikg14BatchProcessor18qt_static_metacallEP7QObjectN11QMetaObject4CallEiPPv
FN:147,150,_ZNK6optikg14BatchProcessor10metaObjectEv
FN:152,158,_ZN6optikg14BatchProcessor11qt_metacastEPKc
FN:160,176,_ZN6optikg14BatchProcessor11qt_metacallEN11QMetaObject4CallEiPPv
FN:179,182,_ZN6optikg14BatchProcessor15progressChangedEiiRK7QString
FN:185,188,_ZN6optikg14BatchProcessor12scanProgressEiiRK7QString
FN:191,194,_ZN6optikg14BatchProcessor12scanFinishedEii
FN:197,200,_ZN6optikg14BatchProcessor13fileProcessedERKNS_17FileProcessResultE
FN:203,206,_ZN6optikg14BatchProcessor13errorOccurredERK7QStringS3_
FN:209,212,_ZN6optikg14BatchProcessor13batchFinishedEiii
FNDA:0,_ZN6optikg14BatchProcessor18qt_static_metacallEP7QObjectN11QMetaObject4CallEiPPv
FNDA:0,_ZNK6optikg14BatchProcessor10metaObjectEv
FNDA:0,_ZN6optikg14BatchProcessor11qt_metacastEPKc
FNDA:0,_ZN6optikg14BatchProcessor11qt_metacallEN11QMetaObject4CallEiPPv
FNDA:0,_ZN6optikg14BatchProcessor15progressChangedEiiRK7QString
FNDA:0,_ZN6optikg14BatchProcessor12scanProgressEiiRK7QString
FNDA:0,_ZN6optikg14BatchProcessor12scanFinishedEii
FNDA:0,_ZN6optikg14BatchProcessor13fileProcessedERKNS_17FileProcessResultE
FNDA:0,_ZN6optikg14BatchProcessor13errorOccurredERK7QStringS3_
FNDA:0,_ZN6optikg14BatchProcessor13batchFinishedEiii
FNF:10
FNH:0
DA:105,0
DA:107,0
DA:108,0
DA:109,0
DA:110,0
DA:111,0
DA:112,0
DA:113,0
DA:114,0
DA:115,0
DA:116,0
DA:119,0
DA:120,0
DA:121,0
DA:122,0
DA:123,0
DA:124,0
DA:125,0
DA:126,0
DA:128,0
DA:131,0
DA:132,0
DA:133,0
DA:134,0
DA:135,0
DA:136,0
DA:137,0
DA:138,0
DA:139,0
DA:140,0
DA:141,0
DA:142,0
DA:143,0
DA:147,0
DA:149,0
DA:152,0
DA:154,0
DA:155,0
DA:156,0
DA:157,0
DA:160,0
DA:162,0
DA:163,0
DA:164,0
DA:165,0
DA:166,0
DA:167,0
DA:168,0
DA:170,0
DA:171,0
DA:172,0
DA:173,0
DA:175,0
DA:179,0
DA:181,0
DA:182,0
DA:185,0
DA:187,0
DA:188,0
DA:191,0
DA:193,0
DA:194,0
DA:197,0
DA:199,0
DA:200,0
DA:203,0
DA:205,0
DA:206,0
DA:209,0
DA:211,0
DA:212,0
LF:71
LH:0
end_of_record
TN:
SF:/home/fed/Documents/clion-workspace/qt-try/build/tests/test_graphwidget_autogen/MV7IEL3DTJ/moc_inferenceworker.cpp
FN:105,108,_ZNK6optikg15InferenceWorker10metaObjectEv
FN:110,116,_ZN6optikg15InferenceWorker11qt_metacastEPKc
FN:118,134,_ZN6optikg15InferenceWorker11qt_metacallEN11QMetaObject4CallEiPPv
FN:137,140,_ZN6optikg15InferenceWorker15progressChangedEi
FN:143,146,_ZN6optikg15InferenceWorker11resultReadyERK5QListINS_6TripleEE
FN:149,152,_ZN6optikg15InferenceWorker13errorOccurredERK7QString
FN:84,103,_ZN6optikg15InferenceWorker18qt_static_metacallEP7QObjectN11QMetaObject4CallEiPPv
FNDA:0,_ZNK6optikg15InferenceWorker10metaObjectEv
FNDA:0,_ZN6optikg15InferenceWorker11qt_metacastEPKc
FNDA:0,_ZN6optikg15InferenceWorker11qt_metacallEN11QMetaObject4CallEiPPv
FNDA:0,_ZN6optikg15InferenceWorker15progressChangedEi
FNDA:0,_ZN6optikg15InferenceWorker11resultReadyERK5QListINS_6TripleEE
FNDA:0,_ZN6optikg15InferenceWorker13errorOccurredERK7QString
FNDA:0,_ZN6optikg15InferenceWorker18qt_static_metacallEP7QObjectN11QMetaObject4CallEiPPv
FNF:7
FNH:0
DA:84,0
DA:86,0
DA:87,0
DA:88,0
DA:89,0
DA:90,0
DA:91,0
DA:92,0
DA:95,0
DA:96,0
DA:97,0
DA:98,0
DA:99,0
DA:100,0
DA:101,0
DA:105,0
DA:107,0
DA:110,0
DA:112,0
DA:113,0
DA:114,0
DA:115,0
DA:118,0
DA:120,0
DA:121,0
DA:122,0
DA:123,0
DA:124,0
DA:125,0
DA:126,0
DA:128,0
DA:129,0
DA:130,0
DA:131,0
DA:133,0
DA:137,0
DA:139,0
DA:140,0
DA:143,0
DA:145,0
DA:146,0
DA:149,0
DA:151,0
DA:152,0
LF:44
LH:0
end_of_record
TN:
SF:/home/fed/Documents/clion-workspace/qt-try/build/tests/test_graphwidget_autogen/RF5KSEWXUK/moc_batchprocessdialog.cpp
FN:141,177,_ZN6optikg18BatchProcessDialog18qt_static_metacallEP7QObjectN11QMetaObject4CallEiPPv
FN:179,182,_ZNK6optikg18BatchProcessDialog10metaObjectEv
FN:184,190,_ZN6optikg18BatchProcessDialog11qt_metacastEPKc
FN:192,208,_ZN6optikg18BatchProcessDialog11qt_metacallEN11QMetaObject4CallEiPPv
FNDA:0,_ZN6optikg18BatchProcessDialog18qt_static_metacallEP7QObjectN11QMetaObject4CallEiPPv
FNDA:0,_ZNK6optikg18BatchProcessDialog10metaObjectEv
FNDA:0,_ZN6optikg18BatchProcessDialog11qt_metacastEPKc
FNDA:0,_ZN6optikg18BatchProcessDialog11qt_metacallEN11QMetaObject4CallEiPPv
FNF:4
FNH:0
DA:141,0
DA:143,0
DA:144,0
DA:145,0
DA:146,0
DA:147,0
DA:148,0
DA:149,0
DA:150,0
DA:151,0
DA:152,0
DA:153,0
DA:154,0
DA:155,0
DA:156,0
DA:157,0
DA:158,0
DA:159,0
DA:160,0
DA:161,0
DA:162,0
DA:165,0
DA:166,0
DA:167,0
DA:168,0
DA:169,0
DA:170,0
DA:171,0
DA:172,0
DA:174,0
DA:177,0
DA:179,0
DA:181,0
DA:184,0
DA:186,0
DA:187,0
DA:188,0
DA:189,0
DA:192,0
DA:194,0
DA:195,0
DA:196,0
DA:197,0
DA:198,0
DA:199,0
DA:200,0
DA:202,0
DA:203,0
DA:204,0
DA:205,0
DA:207,0
LF:51
LH:0
end_of_record
TN:
SF:/home/fed/Documents/clion-workspace/qt-try/build/tests/test_graphwidget_autogen/RF5KSEWXUK/moc_extractionpanel.cpp
FN:105,108,_ZNK6optikg15ExtractionPanel10metaObjectEv
FN:110,116,_ZN6optikg15ExtractionPanel11qt_metacastEPKc
FN:118,134,_ZN6optikg15ExtractionPanel11qt_metacallEN11QMetaObject4CallEiPPv
FN:137,140,_ZN6optikg15ExtractionPanel14extractClickedEv
FN:143,146,_ZN6optikg15ExtractionPanel12clearClickedEv
FN:149,152,_ZN6optikg15ExtractionPanel11textChangedERK7QString
FN:82,103,_ZN6optikg15ExtractionPanel18qt_static_metacallEP7QObjectN11QMetaObject4CallEiPPv
FNDA:0,_ZNK6optikg15ExtractionPanel10metaObjectEv
FNDA:0,_ZN6optikg15ExtractionPanel11qt_metacastEPKc
FNDA:0,_ZN6optikg15ExtractionPanel11qt_metacallEN11QMetaObject4CallEiPPv
FNDA:0,_ZN6optikg15ExtractionPanel14extractClickedEv
FNDA:0,_ZN6optikg15ExtractionPanel12clearClickedEv
FNDA:0,_ZN6optikg15ExtractionPanel11textChangedERK7QString
FNDA:0,_ZN6optikg15ExtractionPanel18qt_static_metacallEP7QObjectN11QMetaObject4CallEiPPv
FNF:7
FNH:0
DA:82,0
DA:84,0
DA:85,0
DA:86,0
DA:87,0
DA:88,0
DA:89,0
DA:90,0
DA:91,0
DA:92,0
DA:95,0
DA:96,0
DA:97,0
DA:98,0
DA:99,0
DA:100,0
DA:101,0
DA:105,0
DA:107,0
DA:110,0
DA:112,0
DA:113,0
DA:114,0
DA:115,0
DA:118,0
DA:120,0
DA:121,0
DA:122,0
DA:123,0
DA:124,0
DA:125,0
DA:126,0
DA:128,0
DA:129,0
DA:130,0
DA:131,0
DA:133,0
DA:137,0
DA:139,0
DA:140,0
DA:143,0
DA:145,0
DA:146,0
DA:149,0
DA:151,0
DA:152,0
LF:46
LH:0
end_of_record
TN:
SF:/home/fed/Documents/clion-workspace/qt-try/build/tests/test_graphwidget_autogen/RF5KSEWXUK/moc_graphwidget.cpp
FN:102,108,_ZN6optikg11GraphWidget11qt_metacastEPKc
FN:110,126,_ZN6optikg11GraphWidget11qt_metacallEN11QMetaObject4CallEiPPv
FN:129,132,_ZN6optikg11GraphWidget11nodeClickedERK7QStringS3_
FN:135,138,_ZN6optikg11GraphWidget11edgeClickedERK7QStringS3_S3_
FN:79,95,_ZN6optikg11GraphWidget18qt_static_metacallEP7QObjectN11QMetaObject4CallEiPPv
FN:97,100,_ZNK6optikg11GraphWidget10metaObjectEv
FNDA:0,_ZN6optikg11GraphWidget11qt_metacastEPKc
FNDA:0,_ZN6optikg11GraphWidget11qt_metacallEN11QMetaObject4CallEiPPv
FNDA:0,_ZN6optikg11GraphWidget11nodeClickedERK7QStringS3_
FNDA:0,_ZN6optikg11GraphWidget11edgeClickedERK7QStringS3_S3_
FNDA:4,_ZN6optikg11GraphWidget18qt_static_metacallEP7QObjectN11QMetaObject4CallEiPPv
FNDA:212,_ZNK6optikg11GraphWidget10metaObjectEv
FNF:6
FNH:2
DA:79,4
DA:81,4
DA:82,4
DA:83,0
DA:84,0
DA:85,0
DA:86,0
DA:89,4
DA:90,4
DA:91,2
DA:92,2
DA:93,2
DA:97,212
DA:99,212
DA:102,0
DA:104,0
DA:105,0
DA:106,0
DA:107,0
DA:110,0
DA:112,0
DA:113,0
DA:114,0
DA:115,0
DA:116,0
DA:117,0
DA:118,0
DA:120,0
DA:121,0
DA:122,0
DA:123,0
DA:125,0
DA:129,0
DA:131,0
DA:132,0
DA:135,0
DA:137,0
DA:138,0
LF:38
LH:10
end_of_record
TN:
SF:/home/fed/Documents/clion-workspace/qt-try/build/tests/test_graphwidget_autogen/RF5KSEWXUK/moc_historypanel.cpp
FN:115,163,_ZN6optikg12HistoryPanel18qt_static_metacallEP7QObjectN11QMetaObject4CallEiPPv
FN:165,168,_ZNK6optikg12HistoryPanel10metaObjectEv
FN:170,176,_ZN6optikg12HistoryPanel11qt_metacastEPKc
FN:178,194,_ZN6optikg12HistoryPanel11qt_metacallEN11QMetaObject4CallEiPPv
FN:197,200,_ZN6optikg12HistoryPanel13recordClickedEx
FN:203,206,_ZN6optikg12HistoryPanel19recordDoubleClickedEx
FN:209,212,_ZN6optikg12HistoryPanel13exportClickedERK5QListIxE
FN:215,218,_ZN6optikg12HistoryPanel18batchDeleteClickedERK5QListIxE
FNDA:0,_ZN6optikg12HistoryPanel18qt_static_metacallEP7QObjectN11QMetaObject4CallEiPPv
FNDA:0,_ZNK6optikg12HistoryPanel10metaObjectEv
FNDA:0,_ZN6optikg12HistoryPanel11qt_metacastEPKc
FNDA:0,_ZN6optikg12HistoryPanel11qt_metacallEN11QMetaObject4CallEiPPv
FNDA:0,_ZN6optikg12HistoryPanel13recordClickedEx
FNDA:0,_ZN6optikg12HistoryPanel19recordDoubleClickedEx
FNDA:0,_ZN6optikg12HistoryPanel13exportClickedERK5QListIxE
FNDA:0,_ZN6optikg12HistoryPanel18batchDeleteClickedERK5QListIxE
FNF:8
FNH:0
DA:115,0
DA:117,0
DA:118,0
DA:119,0
DA:120,0
DA:121,0
DA:122,0
DA:123,0
DA:124,0
DA:125,0
DA:126,0
DA:127,0
DA:128,0
DA:129,0
DA:130,0
DA:131,0
DA:134,0
DA:135,0
DA:136,0
DA:137,0
DA:138,0
DA:139,0
DA:140,0
DA:141,0
DA:143,0
DA:144,0
DA:145,0
DA:146,0
DA:147,0
DA:148,0
DA:150,0
DA:153,0
DA:154,0
DA:155,0
DA:156,0
DA:157,0
DA:158,0
DA:159,0
DA:160,0
DA:161,0
DA:165,0
DA:167,0
DA:170,0
DA:172,0
DA:173,0
DA:174,0
DA:175,0
DA:178,0
DA:180,0
DA:181,0
DA:182,0
DA:183,0
DA:184,0
DA:185,0
DA:186,0
DA:188,0
DA:189,0
DA:190,0
DA:191,0
DA:193,0
DA:197,0
DA:199,0
DA:200,0
DA:203,0
DA:205,0
DA:206,0
DA:209,0
DA:211,0
DA:212,0
DA:215,0
DA:217,0
DA:218,0
LF:72
LH:0
end_of_record
TN:
SF:/home/fed/Documents/clion-workspace/qt-try/build/tests/test_graphwidget_autogen/RF5KSEWXUK/moc_mainwindow.cpp
FN:124,159,_ZN6optikg10MainWindow18qt_static_metacallEP7QObjectN11QMetaObject4CallEiPPv
FN:161,164,_ZNK6optikg10MainWindow10metaObjectEv
FN:166,172,_ZN6optikg10MainWindow11qt_metacastEPKc
FN:174,190,_ZN6optikg10MainWindow11qt_metacallEN11QMetaObject4CallEiPPv
FNDA:0,_ZN6optikg10MainWindow18qt_static_metacallEP7QObjectN11QMetaObject4CallEiPPv
FNDA:0,_ZNK6optikg10MainWindow10metaObjectEv
FNDA:0,_ZN6optikg10MainWindow11qt_metacastEPKc
FNDA:0,_ZN6optikg10MainWindow11qt_metacallEN11QMetaObject4CallEiPPv
FNF:4
FNH:0
DA:124,0
DA:126,0
DA:127,0
DA:128,0
DA:129,0
DA:130,0
DA:131,0
DA:132,0
DA:133,0
DA:134,0
DA:135,0
DA:136,0
DA:137,0
DA:138,0
DA:139,0
DA:140,0
DA:141,0
DA:142,0
DA:143,0
DA:144,0
DA:147,0
DA:148,0
DA:149,0
DA:150,0
DA:151,0
DA:152,0
DA:153,0
DA:154,0
DA:156,0
DA:159,0
DA:161,0
DA:163,0
DA:166,0
DA:168,0
DA:169,0
DA:170,0
DA:171,0
DA:174,0
DA:176,0
DA:177,0
DA:178,0
DA:179,0
DA:180,0
DA:181,0
DA:182,0
DA:184,0
DA:185,0
DA:186,0
DA:187,0
DA:189,0
LF:50
LH:0
end_of_record
TN:
SF:/home/fed/Documents/clion-workspace/qt-try/build/tests/test_graphwidget_autogen/RF5KSEWXUK/moc_resulttreewidget.cpp
FN:101,107,_ZN6optikg16ResultTreeWidget11qt_metacastEPKc
FN:109,125,_ZN6optikg16ResultTreeWidget11qt_metacallEN11QMetaObject4CallEiPPv
FN:128,131,_ZN6optikg16ResultTreeWidget13entityClickedERK7QStringS3_
FN:134,137,_ZN6optikg16ResultTreeWidget13tripleClickedERKNS_6TripleE
FN:78,94,_ZN6optikg16ResultTreeWidget18qt_static_metacallEP7QObjectN11QMetaObject4CallEiPPv
FN:96,99,_ZNK6optikg16ResultTreeWidget10metaObjectEv
FNDA:0,_ZN6optikg16ResultTreeWidget11qt_metacastEPKc
FNDA:0,_ZN6optikg16ResultTreeWidget11qt_metacallEN11QMetaObject4CallEiPPv
FNDA:0,_ZN6optikg16ResultTreeWidget13entityClickedERK7QStringS3_
FNDA:0,_ZN6optikg16ResultTreeWidget13tripleClickedERKNS_6TripleE
FNDA:0,_ZN6optikg16ResultTreeWidget18qt_static_metacallEP7QObjectN11QMetaObject4CallEiPPv
FNDA:0,_ZNK6optikg16ResultTreeWidget10metaObjectEv
FNF:6
FNH:0
DA:78,0
DA:80,0
DA:81,0
DA:82,0
DA:83,0
DA:84,0
DA:85,0
DA:88,0
DA:89,0
DA:90,0
DA:91,0
DA:92,0
DA:96,0
DA:98,0
DA:101,0
DA:103,0
DA:104,0
DA:105,0
DA:106,0
DA:109,0
DA:111,0
DA:112,0
DA:113,0
DA:114,0
DA:115,0
DA:116,0
DA:117,0
DA:119,0
DA:120,0
DA:121,0
DA:122,0
DA:124,0
DA:128,0
DA:130,0
DA:131,0
DA:134,0
DA:136,0
DA:137,0
LF:38
LH:0
end_of_record
TN:
SF:/home/fed/Documents/clion-workspace/qt-try/build/tests/test_graphwidget_autogen/RF5KSEWXUK/moc_settingsdialog.cpp
FN:104,110,_ZN6optikg14SettingsDialog11qt_metacastEPKc
FN:112,128,_ZN6optikg14SettingsDialog11qt_metacallEN11QMetaObject4CallEiPPv
FN:82,97,_ZN6optikg14SettingsDialog18qt_static_metacallEP7QObjectN11QMetaObject4CallEiPPv
FN:99,102,_ZNK6optikg14SettingsDialog10metaObjectEv
FNDA:0,_ZN6optikg14SettingsDialog11qt_metacastEPKc
FNDA:0,_ZN6optikg14SettingsDialog11qt_metacallEN11QMetaObject4CallEiPPv
FNDA:0,_ZN6optikg14SettingsDialog18qt_static_metacallEP7QObjectN11QMetaObject4CallEiPPv
FNDA:0,_ZNK6optikg14SettingsDialog10metaObjectEv
FNF:4
FNH:0
DA:82,0
DA:84,0
DA:85,0
DA:86,0
DA:87,0
DA:88,0
DA:89,0
DA:90,0
DA:91,0
DA:92,0
DA:93,0
DA:97,0
DA:99,0
DA:101,0
DA:104,0
DA:106,0
DA:107,0
DA:108,0
DA:109,0
DA:112,0
DA:114,0
DA:115,0
DA:116,0
DA:117,0
DA:118,0
DA:119,0
DA:120,0
DA:122,0
DA:123,0
DA:124,0
DA:125,0
DA:127,0
LF:32
LH:0
end_of_record
TN:
SF:/home/fed/Documents/clion-workspace/qt-try/build/tests/test_graphwidget_autogen/VTM74X6NYQ/moc_databasemanager.cpp
FN:104,120,_ZN6optikg15DatabaseManager11qt_metacallEN11QMetaObject4CallEiPPv
FN:123,126,_ZN6optikg15DatabaseManager15databaseChangedEv
FN:129,132,_ZN6optikg15DatabaseManager13errorOccurredERK7QString
FN:73,89,_ZN6optikg15DatabaseManager18qt_static_metacallEP7QObjectN11QMetaObject4CallEiPPv
FN:91,94,_ZNK6optikg15DatabaseManager10metaObjectEv
FN:96,102,_ZN6optikg15DatabaseManager11qt_metacastEPKc
FNDA:0,_ZN6optikg15DatabaseManager11qt_metacallEN11QMetaObject4CallEiPPv
FNDA:0,_ZN6optikg15DatabaseManager15databaseChangedEv
FNDA:0,_ZN6optikg15DatabaseManager13errorOccurredERK7QString
FNDA:0,_ZN6optikg15DatabaseManager18qt_static_metacallEP7QObjectN11QMetaObject4CallEiPPv
FNDA:0,_ZNK6optikg15DatabaseManager10metaObjectEv
FNDA:0,_ZN6optikg15DatabaseManager11qt_metacastEPKc
FNF:6
FNH:0
DA:73,0
DA:75,0
DA:76,0
DA:77,0
DA:78,0
DA:79,0
DA:80,0
DA:83,0
DA:84,0
DA:85,0
DA:86,0
DA:87,0
DA:91,0
DA:93,0
DA:96,0
DA:98,0
DA:99,0
DA:100,0
DA:101,0
DA:104,0
DA:106,0
DA:107,0
DA:108,0
DA:109,0
DA:110,0
DA:111,0
DA:112,0
DA:114,0
DA:115,0
DA:116,0
DA:117,0
DA:119,0
DA:123,0
DA:125,0
DA:126,0
DA:129,0
DA:131,0
DA:132,0
LF:38
LH:0
end_of_record
TN:
SF:/home/fed/Documents/clion-workspace/qt-try/build/tests/test_graphwidget_autogen/include/test_graphwidget.moc
FN:111,136,_ZN15TestGraphWidget18qt_static_metacallEP7QObjectN11QMetaObject4CallEiPPv
FN:138,141,_ZNK15TestGraphWidget10metaObjectEv
FN:143,149,_ZN15TestGraphWidget11qt_metacastEPKc
FN:151,167,_ZN15TestGraphWidget11qt_metacallEN11QMetaObject4CallEiPPv
FNDA:32,_ZN15TestGraphWidget18qt_static_metacallEP7QObjectN11QMetaObject4CallEiPPv
FNDA:44,_ZNK15TestGraphWidget10metaObjectEv
FNDA:0,_ZN15TestGraphWidget11qt_metacastEPKc
FNDA:0,_ZN15TestGraphWidget11qt_metacallEN11QMetaObject4CallEiPPv
FNF:4
FNH:2
DA:111,32
DA:113,32
DA:114,32
DA:115,32
DA:116,2
DA:117,2
DA:118,2
DA:119,2
DA:120,2
DA:121,2
DA:122,2
DA:123,2
DA:124,2
DA:125,2
DA:126,2
DA:127,2
DA:128,2
DA:129,2
DA:130,2
DA:131,2
DA:132,32
DA:136,32
DA:138,44
DA:140,44
DA:143,0
DA:145,0
DA:146,0
DA:147,0
DA:148,0
DA:151,0
DA:153,0
DA:154,0
DA:155,0
DA:156,0
DA:157,0
DA:158,0
DA:159,0
DA:161,0
DA:162,0
DA:163,0
DA:164,0
DA:166,0
LF:42
LH:24
end_of_record
TN:
SF:/home/fed/Documents/clion-workspace/qt-try/build/tests/test_graphwidget_autogen/include/ui_mainwindow.h
FN:31,56,_ZN13Ui_MainWindow7setupUiEP11QMainWindow
FN:58,61,_ZN13Ui_MainWindow13retranslateUiEP11QMainWindow
FNDA:0,_ZN13Ui_MainWindow7setupUiEP11QMainWindow
FNDA:0,_ZN13Ui_MainWindow13retranslateUiEP11QMainWindow
FNF:2
FNH:0
DA:31,0
DA:33,0
DA:34,0
DA:35,0
DA:36,0
DA:37,0
DA:38,0
DA:39,0
DA:40,0
DA:41,0
DA:42,0
DA:43,0
DA:44,0
DA:45,0
DA:46,0
DA:47,0
DA:48,0
DA:49,0
DA:50,0
DA:51,0
DA:53,0
DA:55,0
DA:56,0
DA:58,0
DA:60,0
DA:61,0
LF:26
LH:0
end_of_record
TN:
SF:/home/fed/Documents/clion-workspace/qt-try/build/tests/test_inferenceengine_autogen/7KRDZL6R5E/moc_configmanager.cpp
FN:117,120,_ZN6optikg13ConfigManager14settingChangedERK7QString
FN:70,83,_ZN6optikg13ConfigManager18qt_static_metacallEP7QObjectN11QMetaObject4CallEiPPv
FN:85,88,_ZNK6optikg13ConfigManager10metaObjectEv
FN:90,96,_ZN6optikg13ConfigManager11qt_metacastEPKc
FN:98,114,_ZN6optikg13ConfigManager11qt_metacallEN11QMetaObject4CallEiPPv
FNDA:0,_ZN6optikg13ConfigManager14settingChangedERK7QString
FNDA:0,_ZN6optikg13ConfigManager18qt_static_metacallEP7QObjectN11QMetaObject4CallEiPPv
FNDA:0,_ZNK6optikg13ConfigManager10metaObjectEv
FNDA:0,_ZN6optikg13ConfigManager11qt_metacastEPKc
FNDA:0,_ZN6optikg13ConfigManager11qt_metacallEN11QMetaObject4CallEiPPv
FNF:5
FNH:0
DA:70,0
DA:72,0
DA:73,0
DA:74,0
DA:75,0
DA:76,0
DA:79,0
DA:80,0
DA:81,0
DA:85,0
DA:87,0
DA:90,0
DA:92,0
DA:93,0
DA:94,0
DA:95,0
DA:98,0
DA:100,0
DA:101,0
DA:102,0
DA:103,0
DA:104,0
DA:105,0
DA:106,0
DA:108,0
DA:109,0
DA:110,0
DA:111,0
DA:113,0
DA:117,0
DA:119,0
DA:120,0
LF:32
LH:0
end_of_record
TN:
SF:/home/fed/Documents/clion-workspace/qt-try/build/tests/test_inferenceengine_autogen/MV7IEL3DTJ/moc_batchprocessor.cpp
FN:105,145,_ZN6optikg14BatchProcessor18qt_static_metacallEP7QObjectN11QMetaObject4CallEiPPv
FN:147,150,_ZNK6optikg14BatchProcessor10metaObjectEv
FN:152,158,_ZN6optikg14BatchProcessor11qt_metacastEPKc
FN:160,176,_ZN6optikg14BatchProcessor11qt_metacallEN11QMetaObject4CallEiPPv
FN:179,182,_ZN6optikg14BatchProcessor15progressChangedEiiRK7QString
FN:185,188,_ZN6optikg14BatchProcessor12scanProgressEiiRK7QString
FN:191,194,_ZN6optikg14BatchProcessor12scanFinishedEii
FN:197,200,_ZN6optikg14BatchProcessor13fileProcessedERKNS_17FileProcessResultE
FN:203,206,_ZN6optikg14BatchProcessor13errorOccurredERK7QStringS3_
FN:209,212,_ZN6optikg14BatchProcessor13batchFinishedEiii
FNDA:0,_ZN6optikg14BatchProcessor18qt_static_metacallEP7QObjectN11QMetaObject4CallEiPPv
FNDA:0,_ZNK6optikg14BatchProcessor10metaObjectEv
FNDA:0,_ZN6optikg14BatchProcessor11qt_metacastEPKc
FNDA:0,_ZN6optikg14BatchProcessor11qt_metacallEN11QMetaObject4CallEiPPv
FNDA:0,_ZN6optikg14BatchProcessor15progressChangedEiiRK7QString
FNDA:0,_ZN6optikg14BatchProcessor12scanProgressEiiRK7QString
FNDA:0,_ZN6optikg14BatchProcessor12scanFinishedEii
FNDA:0,_ZN6optikg14BatchProcessor13fileProcessedERKNS_17FileProcessResultE
FNDA:0,_ZN6optikg14BatchProcessor13errorOccurredERK7QStringS3_
FNDA:0,_ZN6optikg14BatchProcessor13batchFinishedEiii
FNF:10
FNH:0
DA:105,0
DA:107,0
DA:108,0
DA:109,0
DA:110,0
DA:111,0
DA:112,0
DA:113,0
DA:114,0
DA:115,0
DA:116,0
DA:119,0
DA:120,0
DA:121,0
DA:122,0
DA:123,0
DA:124,0
DA:125,0
DA:126,0
DA:128,0
DA:131,0
DA:132,0
DA:133,0
DA:134,0
DA:135,0
DA:136,0
DA:137,0
DA:138,0
DA:139,0
DA:140,0
DA:141,0
DA:142,0
DA:143,0
DA:147,0
DA:149,0
DA:152,0
DA:154,0
DA:155,0
DA:156,0
DA:157,0
DA:160,0
DA:162,0
DA:163,0
DA:164,0
DA:165,0
DA:166,0
DA:167,0
DA:168,0
DA:170,0
DA:171,0
DA:172,0
DA:173,0
DA:175,0
DA:179,0
DA:181,0
DA:182,0
DA:185,0
DA:187,0
DA:188,0
DA:191,0
DA:193,0
DA:194,0
DA:197,0
DA:199,0
DA:200,0
DA:203,0
DA:205,0
DA:206,0
DA:209,0
DA:211,0
DA:212,0
LF:71
LH:0
end_of_record
TN:
SF:/home/fed/Documents/clion-workspace/qt-try/build/tests/test_inferenceengine_autogen/MV7IEL3DTJ/moc_inferenceworker.cpp
FN:105,108,_ZNK6optikg15InferenceWorker10metaObjectEv
FN:110,116,_ZN6optikg15InferenceWorker11qt_metacastEPKc
FN:118,134,_ZN6optikg15InferenceWorker11qt_metacallEN11QMetaObject4CallEiPPv
FN:137,140,_ZN6optikg15InferenceWorker15progressChangedEi
FN:143,146,_ZN6optikg15InferenceWorker11resultReadyERK5QListINS_6TripleEE
FN:149,152,_ZN6optikg15InferenceWorker13errorOccurredERK7QString
FN:84,103,_ZN6optikg15InferenceWorker18qt_static_metacallEP7QObjectN11QMetaObject4CallEiPPv
FNDA:0,_ZNK6optikg15InferenceWorker10metaObjectEv
FNDA:0,_ZN6optikg15InferenceWorker11qt_metacastEPKc
FNDA:0,_ZN6optikg15InferenceWorker11qt_metacallEN11QMetaObject4CallEiPPv
FNDA:0,_ZN6optikg15InferenceWorker15progressChangedEi
FNDA:0,_ZN6optikg15InferenceWorker11resultReadyERK5QListINS_6TripleEE
FNDA:0,_ZN6optikg15InferenceWorker13errorOccurredERK7QString
FNDA:0,_ZN6optikg15InferenceWorker18qt_static_metacallEP7QObjectN11QMetaObject4CallEiPPv
FNF:7
FNH:0
DA:84,0
DA:86,0
DA:87,0
DA:88,0
DA:89,0
DA:90,0
DA:91,0
DA:92,0
DA:95,0
DA:96,0
DA:97,0
DA:98,0
DA:99,0
DA:100,0
DA:101,0
DA:105,0
DA:107,0
DA:110,0
DA:112,0
DA:113,0
DA:114,0
DA:115,0
DA:118,0
DA:120,0
DA:121,0
DA:122,0
DA:123,0
DA:124,0
DA:125,0
DA:126,0
DA:128,0
DA:129,0
DA:130,0
DA:131,0
DA:133,0
DA:137,0
DA:139,0
DA:140,0
DA:143,0
DA:145,0
DA:146,0
DA:149,0
DA:151,0
DA:152,0
LF:44
LH:0
end_of_record
TN:
SF:/home/fed/Documents/clion-workspace/qt-try/build/tests/test_inferenceengine_autogen/RF5KSEWXUK/moc_batchprocessdialog.cpp
FN:141,177,_ZN6optikg18BatchProcessDialog18qt_static_metacallEP7QObjectN11QMetaObject4CallEiPPv
FN:179,182,_ZNK6optikg18BatchProcessDialog10metaObjectEv
FN:184,190,_ZN6optikg18BatchProcessDialog11qt_metacastEPKc
FN:192,208,_ZN6optikg18BatchProcessDialog11qt_metacallEN11QMetaObject4CallEiPPv
FNDA:0,_ZN6optikg18BatchProcessDialog18qt_static_metacallEP7QObjectN11QMetaObject4CallEiPPv
FNDA:0,_ZNK6optikg18BatchProcessDialog10metaObjectEv
FNDA:0,_ZN6optikg18BatchProcessDialog11qt_metacastEPKc
FNDA:0,_ZN6optikg18BatchProcessDialog11qt_metacallEN11QMetaObject4CallEiPPv
FNF:4
FNH:0
DA:141,0
DA:143,0
DA:144,0
DA:145,0
DA:146,0
DA:147,0
DA:148,0
DA:149,0
DA:150,0
DA:151,0
DA:152,0
DA:153,0
DA:154,0
DA:155,0
DA:156,0
DA:157,0
DA:158,0
DA:159,0
DA:160,0
DA:161,0
DA:162,0
DA:165,0
DA:166,0
DA:167,0
DA:168,0
DA:169,0
DA:170,0
DA:171,0
DA:172,0
DA:174,0
DA:177,0
DA:179,0
DA:181,0
DA:184,0
DA:186,0
DA:187,0
DA:188,0
DA:189,0
DA:192,0
DA:194,0
DA:195,0
DA:196,0
DA:197,0
DA:198,0
DA:199,0
DA:200,0
DA:202,0
DA:203,0
DA:204,0
DA:205,0
DA:207,0
LF:51
LH:0
end_of_record
TN:
SF:/home/fed/Documents/clion-workspace/qt-try/build/tests/test_inferenceengine_autogen/RF5KSEWXUK/moc_extractionpanel.cpp
FN:105,108,_ZNK6optikg15ExtractionPanel10metaObjectEv
FN:110,116,_ZN6optikg15ExtractionPanel11qt_metacastEPKc
FN:118,134,_ZN6optikg15ExtractionPanel11qt_metacallEN11QMetaObject4CallEiPPv
FN:137,140,_ZN6optikg15ExtractionPanel14extractClickedEv
FN:143,146,_ZN6optikg15ExtractionPanel12clearClickedEv
FN:149,152,_ZN6optikg15ExtractionPanel11textChangedERK7QString
FN:82,103,_ZN6optikg15ExtractionPanel18qt_static_metacallEP7QObjectN11QMetaObject4CallEiPPv
FNDA:0,_ZNK6optikg15ExtractionPanel10metaObjectEv
FNDA:0,_ZN6optikg15ExtractionPanel11qt_metacastEPKc
FNDA:0,_ZN6optikg15ExtractionPanel11qt_metacallEN11QMetaObject4CallEiPPv
FNDA:0,_ZN6optikg15ExtractionPanel14extractClickedEv
FNDA:0,_ZN6optikg15ExtractionPanel12clearClickedEv
FNDA:0,_ZN6optikg15ExtractionPanel11textChangedERK7QString
FNDA:0,_ZN6optikg15ExtractionPanel18qt_static_metacallEP7QObjectN11QMetaObject4CallEiPPv
FNF:7
FNH:0
DA:82,0
DA:84,0
DA:85,0
DA:86,0
DA:87,0
DA:88,0
DA:89,0
DA:90,0
DA:91,0
DA:92,0
DA:95,0
DA:96,0
DA:97,0
DA:98,0
DA:99,0
DA:100,0
DA:101,0
DA:105,0
DA:107,0
DA:110,0
DA:112,0
DA:113,0
DA:114,0
DA:115,0
DA:118,0
DA:120,0
DA:121,0
DA:122,0
DA:123,0
DA:124,0
DA:125,0
DA:126,0
DA:128,0
DA:129,0
DA:130,0
DA:131,0
DA:133,0
DA:137,0
DA:139,0
DA:140,0
DA:143,0
DA:145,0
DA:146,0
DA:149,0
DA:151,0
DA:152,0
LF:46
LH:0
end_of_record
TN:
SF:/home/fed/Documents/clion-workspace/qt-try/build/tests/test_inferenceengine_autogen/RF5KSEWXUK/moc_graphwidget.cpp
FN:102,108,_ZN6optikg11GraphWidget11qt_metacastEPKc
FN:110,126,_ZN6optikg11GraphWidget11qt_metacallEN11QMetaObject4CallEiPPv
FN:129,132,_ZN6optikg11GraphWidget11nodeClickedERK7QStringS3_
FN:135,138,_ZN6optikg11GraphWidget11edgeClickedERK7QStringS3_S3_
FN:79,95,_ZN6optikg11GraphWidget18qt_static_metacallEP7QObjectN11QMetaObject4CallEiPPv
FN:97,100,_ZNK6optikg11GraphWidget10metaObjectEv
FNDA:0,_ZN6optikg11GraphWidget11qt_metacastEPKc
FNDA:0,_ZN6optikg11GraphWidget11qt_metacallEN11QMetaObject4CallEiPPv
FNDA:0,_ZN6optikg11GraphWidget11nodeClickedERK7QStringS3_
FNDA:0,_ZN6optikg11GraphWidget11edgeClickedERK7QStringS3_S3_
FNDA:0,_ZN6optikg11GraphWidget18qt_static_metacallEP7QObjectN11QMetaObject4CallEiPPv
FNDA:0,_ZNK6optikg11GraphWidget10metaObjectEv
FNF:6
FNH:0
DA:79,0
DA:81,0
DA:82,0
DA:83,0
DA:84,0
DA:85,0
DA:86,0
DA:89,0
DA:90,0
DA:91,0
DA:92,0
DA:93,0
DA:97,0
DA:99,0
DA:102,0
DA:104,0
DA:105,0
DA:106,0
DA:107,0
DA:110,0
DA:112,0
DA:113,0
DA:114,0
DA:115,0
DA:116,0
DA:117,0
DA:118,0
DA:120,0
DA:121,0
DA:122,0
DA:123,0
DA:125,0
DA:129,0
DA:131,0
DA:132,0
DA:135,0
DA:137,0
DA:138,0
LF:38
LH:0
end_of_record
TN:
SF:/home/fed/Documents/clion-workspace/qt-try/build/tests/test_inferenceengine_autogen/RF5KSEWXUK/moc_historypanel.cpp
FN:115,163,_ZN6optikg12HistoryPanel18qt_static_metacallEP7QObjectN11QMetaObject4CallEiPPv
FN:165,168,_ZNK6optikg12HistoryPanel10metaObjectEv
FN:170,176,_ZN6optikg12HistoryPanel11qt_metacastEPKc
FN:178,194,_ZN6optikg12HistoryPanel11qt_metacallEN11QMetaObject4CallEiPPv
FN:197,200,_ZN6optikg12HistoryPanel13recordClickedEx
FN:203,206,_ZN6optikg12HistoryPanel19recordDoubleClickedEx
FN:209,212,_ZN6optikg12HistoryPanel13exportClickedERK5QListIxE
FN:215,218,_ZN6optikg12HistoryPanel18batchDeleteClickedERK5QListIxE
FNDA:0,_ZN6optikg12HistoryPanel18qt_static_metacallEP7QObjectN11QMetaObject4CallEiPPv
FNDA:0,_ZNK6optikg12HistoryPanel10metaObjectEv
FNDA:0,_ZN6optikg12HistoryPanel11qt_metacastEPKc
FNDA:0,_ZN6optikg12HistoryPanel11qt_metacallEN11QMetaObject4CallEiPPv
FNDA:0,_ZN6optikg12HistoryPanel13recordClickedEx
FNDA:0,_ZN6optikg12HistoryPanel19recordDoubleClickedEx
FNDA:0,_ZN6optikg12HistoryPanel13exportClickedERK5QListIxE
FNDA:0,_ZN6optikg12HistoryPanel18batchDeleteClickedERK5QListIxE
FNF:8
FNH:0
DA:115,0
DA:117,0
DA:118,0
DA:119,0
DA:120,0
DA:121,0
DA:122,0
DA:123,0
DA:124,0
DA:125,0
DA:126,0
DA:127,0
DA:128,0
DA:129,0
DA:130,0
DA:131,0
DA:134,0
DA:135,0
DA:136,0
DA:137,0
DA:138,0
DA:139,0
DA:140,0
DA:141,0
DA:143,0
DA:144,0
DA:145,0
DA:146,0
DA:147,0
DA:148,0
DA:150,0
DA:153,0
DA:154,0
DA:155,0
DA:156,0
DA:157,0
DA:158,0
DA:159,0
DA:160,0
DA:161,0
DA:165,0
DA:167,0
DA:170,0
DA:172,0
DA:173,0
DA:174,0
DA:175,0
DA:178,0
DA:180,0
DA:181,0
DA:182,0
DA:183,0
DA:184,0
DA:185,0
DA:186,0
DA:188,0
DA:189,0
DA:190,0
DA:191,0
DA:193,0
DA:197,0
DA:199,0
DA:200,0
DA:203,0
DA:205,0
DA:206,0
DA:209,0
DA:211,0
DA:212,0
DA:215,0
DA:217,0
DA:218,0
LF:72
LH:0
end_of_record
TN:
SF:/home/fed/Documents/clion-workspace/qt-try/build/tests/test_inferenceengine_autogen/RF5KSEWXUK/moc_mainwindow.cpp
FN:124,159,_ZN6optikg10MainWindow18qt_static_metacallEP7QObjectN11QMetaObject4CallEiPPv
FN:161,164,_ZNK6optikg10MainWindow10metaObjectEv
FN:166,172,_ZN6optikg10MainWindow11qt_metacastEPKc
FN:174,190,_ZN6optikg10MainWindow11qt_metacallEN11QMetaObject4CallEiPPv
FNDA:0,_ZN6optikg10MainWindow18qt_static_metacallEP7QObjectN11QMetaObject4CallEiPPv
FNDA:0,_ZNK6optikg10MainWindow10metaObjectEv
FNDA:0,_ZN6optikg10MainWindow11qt_metacastEPKc
FNDA:0,_ZN6optikg10MainWindow11qt_metacallEN11QMetaObject4CallEiPPv
FNF:4
FNH:0
DA:124,0
DA:126,0
DA:127,0
DA:128,0
DA:129,0
DA:130,0
DA:131,0
DA:132,0
DA:133,0
DA:134,0
DA:135,0
DA:136,0
DA:137,0
DA:138,0
DA:139,0
DA:140,0
DA:141,0
DA:142,0
DA:143,0
DA:144,0
DA:147,0
DA:148,0
DA:149,0
DA:150,0
DA:151,0
DA:152,0
DA:153,0
DA:154,0
DA:156,0
DA:159,0
DA:161,0
DA:163,0
DA:166,0
DA:168,0
DA:169,0
DA:170,0
DA:171,0
DA:174,0
DA:176,0
DA:177,0
DA:178,0
DA:179,0
DA:180,0
DA:181,0
DA:182,0
DA:184,0
DA:185,0
DA:186,0
DA:187,0
DA:189,0
LF:50
LH:0
end_of_record
TN:
SF:/home/fed/Documents/clion-workspace/qt-try/build/tests/test_inferenceengine_autogen/RF5KSEWXUK/moc_resulttreewidget.cpp
FN:101,107,_ZN6optikg16ResultTreeWidget11qt_metacastEPKc
FN:109,125,_ZN6optikg16ResultTreeWidget11qt_metacallEN11QMetaObject4CallEiPPv
FN:128,131,_ZN6optikg16ResultTreeWidget13entityClickedERK7QStringS3_
FN:134,137,_ZN6optikg16ResultTreeWidget13tripleClickedERKNS_6TripleE
FN:78,94,_ZN6optikg16ResultTreeWidget18qt_static_metacallEP7QObjectN11QMetaObject4CallEiPPv
FN:96,99,_ZNK6optikg16ResultTreeWidget10metaObjectEv
FNDA:0,_ZN6optikg16ResultTreeWidget11qt_metacastEPKc
FNDA:0,_ZN6optikg16ResultTreeWidget11qt_metacallEN11QMetaObject4CallEiPPv
FNDA:0,_ZN6optikg16ResultTreeWidget13entityClickedERK7QStringS3_
FNDA:0,_ZN6optikg16ResultTreeWidget13tripleClickedERKNS_6TripleE
FNDA:0,_ZN6optikg16ResultTreeWidget18qt_static_metacallEP7QObjectN11QMetaObject4CallEiPPv
FNDA:0,_ZNK6optikg16ResultTreeWidget10metaObjectEv
FNF:6
FNH:0
DA:78,0
DA:80,0
DA:81,0
DA:82,0
DA:83,0
DA:84,0
DA:85,0
DA:88,0
DA:89,0
DA:90,0
DA:91,0
DA:92,0
DA:96,0
DA:98,0
DA:101,0
DA:103,0
DA:104,0
DA:105,0
DA:106,0
DA:109,0
DA:111,0
DA:112,0
DA:113,0
DA:114,0
DA:115,0
DA:116,0
DA:117,0
DA:119,0
DA:120,0
DA:121,0
DA:122,0
DA:124,0
DA:128,0
DA:130,0
DA:131,0
DA:134,0
DA:136,0
DA:137,0
LF:38
LH:0
end_of_record
TN:
SF:/home/fed/Documents/clion-workspace/qt-try/build/tests/test_inferenceengine_autogen/RF5KSEWXUK/moc_settingsdialog.cpp
FN:104,110,_ZN6optikg14SettingsDialog11qt_metacastEPKc
FN:112,128,_ZN6optikg14SettingsDialog11qt_metacallEN11QMetaObject4CallEiPPv
FN:82,97,_ZN6optikg14SettingsDialog18qt_static_metacallEP7QObjectN11QMetaObject4CallEiPPv
FN:99,102,_ZNK6optikg14SettingsDialog10metaObjectEv
FNDA:0,_ZN6optikg14SettingsDialog11qt_metacastEPKc
FNDA:0,_ZN6optikg14SettingsDialog11qt_metacallEN11QMetaObject4CallEiPPv
FNDA:0,_ZN6optikg14SettingsDialog18qt_static_metacallEP7QObjectN11QMetaObject4CallEiPPv
FNDA:0,_ZNK6optikg14SettingsDialog10metaObjectEv
FNF:4
FNH:0
DA:82,0
DA:84,0
DA:85,0
DA:86,0
DA:87,0
DA:88,0
DA:89,0
DA:90,0
DA:91,0
DA:92,0
DA:93,0
DA:97,0
DA:99,0
DA:101,0
DA:104,0
DA:106,0
DA:107,0
DA:108,0
DA:109,0
DA:112,0
DA:114,0
DA:115,0
DA:116,0
DA:117,0
DA:118,0
DA:119,0
DA:120,0
DA:122,0
DA:123,0
DA:124,0
DA:125,0
DA:127,0
LF:32
LH:0
end_of_record
TN:
SF:/home/fed/Documents/clion-workspace/qt-try/build/tests/test_inferenceengine_autogen/VTM74X6NYQ/moc_databasemanager.cpp
FN:104,120,_ZN6optikg15DatabaseManager11qt_metacallEN11QMetaObject4CallEiPPv
FN:123,126,_ZN6optikg15DatabaseManager15databaseChangedEv
FN:129,132,_ZN6optikg15DatabaseManager13errorOccurredERK7QString
FN:73,89,_ZN6optikg15DatabaseManager18qt_static_metacallEP7QObjectN11QMetaObject4CallEiPPv
FN:91,94,_ZNK6optikg15DatabaseManager10metaObjectEv
FN:96,102,_ZN6optikg15DatabaseManager11qt_metacastEPKc
FNDA:0,_ZN6optikg15DatabaseManager11qt_metacallEN11QMetaObject4CallEiPPv
FNDA:0,_ZN6optikg15DatabaseManager15databaseChangedEv
FNDA:0,_ZN6optikg15DatabaseManager13errorOccurredERK7QString
FNDA:0,_ZN6optikg15DatabaseManager18qt_static_metacallEP7QObjectN11QMetaObject4CallEiPPv
FNDA:0,_ZNK6optikg15DatabaseManager10metaObjectEv
FNDA:0,_ZN6optikg15DatabaseManager11qt_metacastEPKc
FNF:6
FNH:0
DA:73,0
DA:75,0
DA:76,0
DA:77,0
DA:78,0
DA:79,0
DA:80,0
DA:83,0
DA:84,0
DA:85,0
DA:86,0
DA:87,0
DA:91,0
DA:93,0
DA:96,0
DA:98,0
DA:99,0
DA:100,0
DA:101,0
DA:104,0
DA:106,0
DA:107,0
DA:108,0
DA:109,0
DA:110,0
DA:111,0
DA:112,0
DA:114,0
DA:115,0
DA:116,0
DA:117,0
DA:119,0
DA:123,0
DA:125,0
DA:126,0
DA:129,0
DA:131,0
DA:132,0
LF:38
LH:0
end_of_record
TN:
SF:/home/fed/Documents/clion-workspace/qt-try/build/tests/test_inferenceengine_autogen/include/test_inferenceengine.moc
FN:114,140,_ZN19TestInferenceEngine18qt_static_metacallEP7QObjectN11QMetaObject4CallEiPPv
FN:142,145,_ZNK19TestInferenceEngine10metaObjectEv
FN:147,153,_ZN19TestInferenceEngine11qt_metacastEPKc
FN:155,171,_ZN19TestInferenceEngine11qt_metacallEN11QMetaObject4CallEiPPv
FNDA:34,_ZN19TestInferenceEngine18qt_static_metacallEP7QObjectN11QMetaObject4CallEiPPv
FNDA:48,_ZNK19TestInferenceEngine10metaObjectEv
FNDA:0,_ZN19TestInferenceEngine11qt_metacastEPKc
FNDA:0,_ZN19TestInferenceEngine11qt_metacallEN11QMetaObject4CallEiPPv
FNF:4
FNH:2
DA:114,34
DA:116,34
DA:117,34
DA:118,34
DA:119,2
DA:120,2
DA:121,2
DA:122,2
DA:123,2
DA:124,2
DA:125,2
DA:126,2
DA:127,2
DA:128,2
DA:129,2
DA:130,2
DA:131,2
DA:132,2
DA:133,2
DA:134,2
DA:135,2
DA:136,34
DA:140,34
DA:142,48
DA:144,48
DA:147,0
DA:149,0
DA:150,0
DA:151,0
DA:152,0
DA:155,0
DA:157,0
DA:158,0
DA:159,0
DA:160,0
DA:161,0
DA:162,0
DA:163,0
DA:165,0
DA:166,0
DA:167,0
DA:168,0
DA:170,0
LF:43
LH:25
end_of_record
TN:
SF:/home/fed/Documents/clion-workspace/qt-try/build/tests/test_inferenceengine_autogen/include/ui_mainwindow.h
FN:31,56,_ZN13Ui_MainWindow7setupUiEP11QMainWindow
FN:58,61,_ZN13Ui_MainWindow13retranslateUiEP11QMainWindow
FNDA:0,_ZN13Ui_MainWindow7setupUiEP11QMainWindow
FNDA:0,_ZN13Ui_MainWindow13retranslateUiEP11QMainWindow
FNF:2
FNH:0
DA:31,0
DA:33,0
DA:34,0
DA:35,0
DA:36,0
DA:37,0
DA:38,0
DA:39,0
DA:40,0
DA:41,0
DA:42,0
DA:43,0
DA:44,0
DA:45,0
DA:46,0
DA:47,0
DA:48,0
DA:49,0
DA:50,0
DA:51,0
DA:53,0
DA:55,0
DA:56,0
DA:58,0
DA:60,0
DA:61,0
LF:26
LH:0
end_of_record
TN:
SF:/home/fed/Documents/clion-workspace/qt-try/build/tests/test_mainwindow_autogen/7KRDZL6R5E/moc_configmanager.cpp
FN:117,120,_ZN6optikg13ConfigManager14settingChangedERK7QString
FN:70,83,_ZN6optikg13ConfigManager18qt_static_metacallEP7QObjectN11QMetaObject4CallEiPPv
FN:85,88,_ZNK6optikg13ConfigManager10metaObjectEv
FN:90,96,_ZN6optikg13ConfigManager11qt_metacastEPKc
FN:98,114,_ZN6optikg13ConfigManager11qt_metacallEN11QMetaObject4CallEiPPv
FNDA:0,_ZN6optikg13ConfigManager14settingChangedERK7QString
FNDA:0,_ZN6optikg13ConfigManager18qt_static_metacallEP7QObjectN11QMetaObject4CallEiPPv
FNDA:0,_ZNK6optikg13ConfigManager10metaObjectEv
FNDA:0,_ZN6optikg13ConfigManager11qt_metacastEPKc
FNDA:0,_ZN6optikg13ConfigManager11qt_metacallEN11QMetaObject4CallEiPPv
FNF:5
FNH:0
DA:70,0
DA:72,0
DA:73,0
DA:74,0
DA:75,0
DA:76,0
DA:79,0
DA:80,0
DA:81,0
DA:85,0
DA:87,0
DA:90,0
DA:92,0
DA:93,0
DA:94,0
DA:95,0
DA:98,0
DA:100,0
DA:101,0
DA:102,0
DA:103,0
DA:104,0
DA:105,0
DA:106,0
DA:108,0
DA:109,0
DA:110,0
DA:111,0
DA:113,0
DA:117,0
DA:119,0
DA:120,0
LF:32
LH:0
end_of_record
TN:
SF:/home/fed/Documents/clion-workspace/qt-try/build/tests/test_mainwindow_autogen/MV7IEL3DTJ/moc_batchprocessor.cpp
FN:105,145,_ZN6optikg14BatchProcessor18qt_static_metacallEP7QObjectN11QMetaObject4CallEiPPv
FN:147,150,_ZNK6optikg14BatchProcessor10metaObjectEv
FN:152,158,_ZN6optikg14BatchProcessor11qt_metacastEPKc
FN:160,176,_ZN6optikg14BatchProcessor11qt_metacallEN11QMetaObject4CallEiPPv
FN:179,182,_ZN6optikg14BatchProcessor15progressChangedEiiRK7QString
FN:185,188,_ZN6optikg14BatchProcessor12scanProgressEiiRK7QString
FN:191,194,_ZN6optikg14BatchProcessor12scanFinishedEii
FN:197,200,_ZN6optikg14BatchProcessor13fileProcessedERKNS_17FileProcessResultE
FN:203,206,_ZN6optikg14BatchProcessor13errorOccurredERK7QStringS3_
FN:209,212,_ZN6optikg14BatchProcessor13batchFinishedEiii
FNDA:0,_ZN6optikg14BatchProcessor18qt_static_metacallEP7QObjectN11QMetaObject4CallEiPPv
FNDA:0,_ZNK6optikg14BatchProcessor10metaObjectEv
FNDA:0,_ZN6optikg14BatchProcessor11qt_metacastEPKc
FNDA:0,_ZN6optikg14BatchProcessor11qt_metacallEN11QMetaObject4CallEiPPv
FNDA:0,_ZN6optikg14BatchProcessor15progressChangedEiiRK7QString
FNDA:0,_ZN6optikg14BatchProcessor12scanProgressEiiRK7QString
FNDA:0,_ZN6optikg14BatchProcessor12scanFinishedEii
FNDA:0,_ZN6optikg14BatchProcessor13fileProcessedERKNS_17FileProcessResultE
FNDA:0,_ZN6optikg14BatchProcessor13errorOccurredERK7QStringS3_
FNDA:0,_ZN6optikg14BatchProcessor13batchFinishedEiii
FNF:10
FNH:0
DA:105,0
DA:107,0
DA:108,0
DA:109,0
DA:110,0
DA:111,0
DA:112,0
DA:113,0
DA:114,0
DA:115,0
DA:116,0
DA:119,0
DA:120,0
DA:121,0
DA:122,0
DA:123,0
DA:124,0
DA:125,0
DA:126,0
DA:128,0
DA:131,0
DA:132,0
DA:133,0
DA:134,0
DA:135,0
DA:136,0
DA:137,0
DA:138,0
DA:139,0
DA:140,0
DA:141,0
DA:142,0
DA:143,0
DA:147,0
DA:149,0
DA:152,0
DA:154,0
DA:155,0
DA:156,0
DA:157,0
DA:160,0
DA:162,0
DA:163,0
DA:164,0
DA:165,0
DA:166,0
DA:167,0
DA:168,0
DA:170,0
DA:171,0
DA:172,0
DA:173,0
DA:175,0
DA:179,0
DA:181,0
DA:182,0
DA:185,0
DA:187,0
DA:188,0
DA:191,0
DA:193,0
DA:194,0
DA:197,0
DA:199,0
DA:200,0
DA:203,0
DA:205,0
DA:206,0
DA:209,0
DA:211,0
DA:212,0
LF:71
LH:0
end_of_record
TN:
SF:/home/fed/Documents/clion-workspace/qt-try/build/tests/test_mainwindow_autogen/MV7IEL3DTJ/moc_inferenceworker.cpp
FN:105,108,_ZNK6optikg15InferenceWorker10metaObjectEv
FN:110,116,_ZN6optikg15InferenceWorker11qt_metacastEPKc
FN:118,134,_ZN6optikg15InferenceWorker11qt_metacallEN11QMetaObject4CallEiPPv
FN:137,140,_ZN6optikg15InferenceWorker15progressChangedEi
FN:143,146,_ZN6optikg15InferenceWorker11resultReadyERK5QListINS_6TripleEE
FN:149,152,_ZN6optikg15InferenceWorker13errorOccurredERK7QString
FN:84,103,_ZN6optikg15InferenceWorker18qt_static_metacallEP7QObjectN11QMetaObject4CallEiPPv
FNDA:0,_ZNK6optikg15InferenceWorker10metaObjectEv
FNDA:0,_ZN6optikg15InferenceWorker11qt_metacastEPKc
FNDA:0,_ZN6optikg15InferenceWorker11qt_metacallEN11QMetaObject4CallEiPPv
FNDA:0,_ZN6optikg15InferenceWorker15progressChangedEi
FNDA:0,_ZN6optikg15InferenceWorker11resultReadyERK5QListINS_6TripleEE
FNDA:0,_ZN6optikg15InferenceWorker13errorOccurredERK7QString
FNDA:0,_ZN6optikg15InferenceWorker18qt_static_metacallEP7QObjectN11QMetaObject4CallEiPPv
FNF:7
FNH:0
DA:84,0
DA:86,0
DA:87,0
DA:88,0
DA:89,0
DA:90,0
DA:91,0
DA:92,0
DA:95,0
DA:96,0
DA:97,0
DA:98,0
DA:99,0
DA:100,0
DA:101,0
DA:105,0
DA:107,0
DA:110,0
DA:112,0
DA:113,0
DA:114,0
DA:115,0
DA:118,0
DA:120,0
DA:121,0
DA:122,0
DA:123,0
DA:124,0
DA:125,0
DA:126,0
DA:128,0
DA:129,0
DA:130,0
DA:131,0
DA:133,0
DA:137,0
DA:139,0
DA:140,0
DA:143,0
DA:145,0
DA:146,0
DA:149,0
DA:151,0
DA:152,0
LF:44
LH:0
end_of_record
TN:
SF:/home/fed/Documents/clion-workspace/qt-try/build/tests/test_mainwindow_autogen/RF5KSEWXUK/moc_batchprocessdialog.cpp
FN:141,177,_ZN6optikg18BatchProcessDialog18qt_static_metacallEP7QObjectN11QMetaObject4CallEiPPv
FN:179,182,_ZNK6optikg18BatchProcessDialog10metaObjectEv
FN:184,190,_ZN6optikg18BatchProcessDialog11qt_metacastEPKc
FN:192,208,_ZN6optikg18BatchProcessDialog11qt_metacallEN11QMetaObject4CallEiPPv
FNDA:0,_ZN6optikg18BatchProcessDialog18qt_static_metacallEP7QObjectN11QMetaObject4CallEiPPv
FNDA:0,_ZNK6optikg18BatchProcessDialog10metaObjectEv
FNDA:0,_ZN6optikg18BatchProcessDialog11qt_metacastEPKc
FNDA:0,_ZN6optikg18BatchProcessDialog11qt_metacallEN11QMetaObject4CallEiPPv
FNF:4
FNH:0
DA:141,0
DA:143,0
DA:144,0
DA:145,0
DA:146,0
DA:147,0
DA:148,0
DA:149,0
DA:150,0
DA:151,0
DA:152,0
DA:153,0
DA:154,0
DA:155,0
DA:156,0
DA:157,0
DA:158,0
DA:159,0
DA:160,0
DA:161,0
DA:162,0
DA:165,0
DA:166,0
DA:167,0
DA:168,0
DA:169,0
DA:170,0
DA:171,0
DA:172,0
DA:174,0
DA:177,0
DA:179,0
DA:181,0
DA:184,0
DA:186,0
DA:187,0
DA:188,0
DA:189,0
DA:192,0
DA:194,0
DA:195,0
DA:196,0
DA:197,0
DA:198,0
DA:199,0
DA:200,0
DA:202,0
DA:203,0
DA:204,0
DA:205,0
DA:207,0
LF:51
LH:0
end_of_record
TN:
SF:/home/fed/Documents/clion-workspace/qt-try/build/tests/test_mainwindow_autogen/RF5KSEWXUK/moc_extractionpanel.cpp
FN:105,108,_ZNK6optikg15ExtractionPanel10metaObjectEv
FN:110,116,_ZN6optikg15ExtractionPanel11qt_metacastEPKc
FN:118,134,_ZN6optikg15ExtractionPanel11qt_metacallEN11QMetaObject4CallEiPPv
FN:137,140,_ZN6optikg15ExtractionPanel14extractClickedEv
FN:143,146,_ZN6optikg15ExtractionPanel12clearClickedEv
FN:149,152,_ZN6optikg15ExtractionPanel11textChangedERK7QString
FN:82,103,_ZN6optikg15ExtractionPanel18qt_static_metacallEP7QObjectN11QMetaObject4CallEiPPv
FNDA:9530,_ZNK6optikg15ExtractionPanel10metaObjectEv
FNDA:480,_ZN6optikg15ExtractionPanel11qt_metacastEPKc
FNDA:164,_ZN6optikg15ExtractionPanel11qt_metacallEN11QMetaObject4CallEiPPv
FNDA:0,_ZN6optikg15ExtractionPanel14extractClickedEv
FNDA:0,_ZN6optikg15ExtractionPanel12clearClickedEv
FNDA:6,_ZN6optikg15ExtractionPanel11textChangedERK7QString
FNDA:64,_ZN6optikg15ExtractionPanel18qt_static_metacallEP7QObjectN11QMetaObject4CallEiPPv
FNF:7
FNH:5
DA:82,64
DA:84,64
DA:85,64
DA:86,0
DA:87,0
DA:88,0
DA:89,0
DA:90,0
DA:91,0
DA:92,0
DA:95,64
DA:96,64
DA:97,32
DA:98,32
DA:99,32
DA:100,0
DA:101,0
DA:105,9530
DA:107,9530
DA:110,480
DA:112,480
DA:113,480
DA:114,0
DA:115,480
DA:118,164
DA:120,164
DA:121,164
DA:122,164
DA:123,0
DA:124,0
DA:125,0
DA:126,0
DA:128,0
DA:129,0
DA:130,0
DA:131,0
DA:133,0
DA:137,0
DA:139,0
DA:140,0
DA:143,0
DA:145,0
DA:146,0
DA:149,6
DA:151,6
DA:152,6
LF:46
LH:21
end_of_record
TN:
SF:/home/fed/Documents/clion-workspace/qt-try/build/tests/test_mainwindow_autogen/RF5KSEWXUK/moc_graphwidget.cpp
FN:102,108,_ZN6optikg11GraphWidget11qt_metacastEPKc
FN:110,126,_ZN6optikg11GraphWidget11qt_metacallEN11QMetaObject4CallEiPPv
FN:129,132,_ZN6optikg11GraphWidget11nodeClickedERK7QStringS3_
FN:135,138,_ZN6optikg11GraphWidget11edgeClickedERK7QStringS3_S3_
FN:79,95,_ZN6optikg11GraphWidget18qt_static_metacallEP7QObjectN11QMetaObject4CallEiPPv
FN:97,100,_ZNK6optikg11GraphWidget10metaObjectEv
FNDA:512,_ZN6optikg11GraphWidget11qt_metacastEPKc
FNDA:0,_ZN6optikg11GraphWidget11qt_metacallEN11QMetaObject4CallEiPPv
FNDA:0,_ZN6optikg11GraphWidget11nodeClickedERK7QStringS3_
FNDA:0,_ZN6optikg11GraphWidget11edgeClickedERK7QStringS3_S3_
FNDA:0,_ZN6optikg11GraphWidget18qt_static_metacallEP7QObjectN11QMetaObject4CallEiPPv
FNDA:904,_ZNK6optikg11GraphWidget10metaObjectEv
FNF:6
FNH:2
DA:79,0
DA:81,0
DA:82,0
DA:83,0
DA:84,0
DA:85,0
DA:86,0
DA:89,0
DA:90,0
DA:91,0
DA:92,0
DA:93,0
DA:97,904
DA:99,904
DA:102,512
DA:104,512
DA:105,512
DA:106,0
DA:107,512
DA:110,0
DA:112,0
DA:113,0
DA:114,0
DA:115,0
DA:116,0
DA:117,0
DA:118,0
DA:120,0
DA:121,0
DA:122,0
DA:123,0
DA:125,0
DA:129,0
DA:131,0
DA:132,0
DA:135,0
DA:137,0
DA:138,0
LF:38
LH:6
end_of_record
TN:
SF:/home/fed/Documents/clion-workspace/qt-try/build/tests/test_mainwindow_autogen/RF5KSEWXUK/moc_historypanel.cpp
FN:115,163,_ZN6optikg12HistoryPanel18qt_static_metacallEP7QObjectN11QMetaObject4CallEiPPv
FN:165,168,_ZNK6optikg12HistoryPanel10metaObjectEv
FN:170,176,_ZN6optikg12HistoryPanel11qt_metacastEPKc
FN:178,194,_ZN6optikg12HistoryPanel11qt_metacallEN11QMetaObject4CallEiPPv
FN:197,200,_ZN6optikg12HistoryPanel13recordClickedEx
FN:203,206,_ZN6optikg12HistoryPanel19recordDoubleClickedEx
FN:209,212,_ZN6optikg12HistoryPanel13exportClickedERK5QListIxE
FN:215,218,_ZN6optikg12HistoryPanel18batchDeleteClickedERK5QListIxE
FNDA:128,_ZN6optikg12HistoryPanel18qt_static_metacallEP7QObjectN11QMetaObject4CallEiPPv
FNDA:10010,_ZNK6optikg12HistoryPanel10metaObjectEv
FNDA:480,_ZN6optikg12HistoryPanel11qt_metacastEPKc
FNDA:128,_ZN6optikg12HistoryPanel11qt_metacallEN11QMetaObject4CallEiPPv
FNDA:0,_ZN6optikg12HistoryPanel13recordClickedEx
FNDA:0,_ZN6optikg12HistoryPanel19recordDoubleClickedEx
FNDA:0,_ZN6optikg12HistoryPanel13exportClickedERK5QListIxE
FNDA:0,_ZN6optikg12HistoryPanel18batchDeleteClickedERK5QListIxE
FNF:8
FNH:4
DA:115,128
DA:117,128
DA:118,128
DA:119,0
DA:120,0
DA:121,0
DA:122,0
DA:123,0
DA:124,0
DA:125,0
DA:126,0
DA:127,0
DA:128,0
DA:129,0
DA:130,0
DA:131,0
DA:134,128
DA:135,0
DA:136,0
DA:137,0
DA:138,0
DA:139,0
DA:140,0
DA:141,0
DA:143,0
DA:144,0
DA:145,0
DA:146,0
DA:147,0
DA:148,0
DA:150,0
DA:153,128
DA:154,128
DA:155,32
DA:156,96
DA:157,32
DA:158,64
DA:159,32
DA:160,32
DA:161,32
DA:165,10010
DA:167,10010
DA:170,480
DA:172,480
DA:173,480
DA:174,0
DA:175,480
DA:178,128
DA:180,128
DA:181,128
DA:182,128
DA:183,0
DA:184,0
DA:185,0
DA:186,0
DA:188,0
DA:189,0
DA:190,0
DA:191,0
DA:193,0
DA:197,0
DA:199,0
DA:200,0
DA:203,0
DA:205,0
DA:206,0
DA:209,0
DA:211,0
DA:212,0
DA:215,0
DA:217,0
DA:218,0
LF:72
LH:23
end_of_record
TN:
SF:/home/fed/Documents/clion-workspace/qt-try/build/tests/test_mainwindow_autogen/RF5KSEWXUK/moc_mainwindow.cpp
FN:124,159,_ZN6optikg10MainWindow18qt_static_metacallEP7QObjectN11QMetaObject4CallEiPPv
FN:161,164,_ZNK6optikg10MainWindow10metaObjectEv
FN:166,172,_ZN6optikg10MainWindow11qt_metacastEPKc
FN:174,190,_ZN6optikg10MainWindow11qt_metacallEN11QMetaObject4CallEiPPv
FNDA:10,_ZN6optikg10MainWindow18qt_static_metacallEP7QObjectN11QMetaObject4CallEiPPv
FNDA:10270,_ZNK6optikg10MainWindow10metaObjectEv
FNDA:544,_ZN6optikg10MainWindow11qt_metacastEPKc
FNDA:648,_ZN6optikg10MainWindow11qt_metacallEN11QMetaObject4CallEiPPv
FNF:4
FNH:4
DA:124,10
DA:126,10
DA:127,10
DA:128,10
DA:129,2
DA:130,6
DA:131,0
DA:132,2
DA:133,0
DA:134,0
DA:135,0
DA:136,0
DA:137,0
DA:138,0
DA:139,0
DA:140,0
DA:141,0
DA:142,0
DA:143,0
DA:144,10
DA:147,10
DA:148,0
DA:149,0
DA:150,0
DA:151,0
DA:152,0
DA:153,0
DA:154,0
DA:156,0
DA:159,10
DA:161,10270
DA:163,10270
DA:166,544
DA:168,544
DA:169,544
DA:170,0
DA:171,544
DA:174,648
DA:176,648
DA:177,648
DA:178,648
DA:179,0
DA:180,0
DA:181,0
DA:182,0
DA:184,0
DA:185,0
DA:186,0
DA:187,0
DA:189,0
LF:50
LH:20
end_of_record
TN:
SF:/home/fed/Documents/clion-workspace/qt-try/build/tests/test_mainwindow_autogen/RF5KSEWXUK/moc_resulttreewidget.cpp
FN:101,107,_ZN6optikg16ResultTreeWidget11qt_metacastEPKc
FN:109,125,_ZN6optikg16ResultTreeWidget11qt_metacallEN11QMetaObject4CallEiPPv
FN:128,131,_ZN6optikg16ResultTreeWidget13entityClickedERK7QStringS3_
FN:134,137,_ZN6optikg16ResultTreeWidget13tripleClickedERKNS_6TripleE
FN:78,94,_ZN6optikg16ResultTreeWidget18qt_static_metacallEP7QObjectN11QMetaObject4CallEiPPv
FN:96,99,_ZNK6optikg16ResultTreeWidget10metaObjectEv
FNDA:1008,_ZN6optikg16ResultTreeWidget11qt_metacastEPKc
FNDA:352,_ZN6optikg16ResultTreeWidget11qt_metacallEN11QMetaObject4CallEiPPv
FNDA:0,_ZN6optikg16ResultTreeWidget13entityClickedERK7QStringS3_
FNDA:0,_ZN6optikg16ResultTreeWidget13tripleClickedERKNS_6TripleE
FNDA:64,_ZN6optikg16ResultTreeWidget18qt_static_metacallEP7QObjectN11QMetaObject4CallEiPPv
FNDA:21462,_ZNK6optikg16ResultTreeWidget10metaObjectEv
FNF:6
FNH:4
DA:78,64
DA:80,64
DA:81,64
DA:82,0
DA:83,0
DA:84,0
DA:85,0
DA:88,64
DA:89,64
DA:90,32
DA:91,32
DA:92,32
DA:96,21462
DA:98,21462
DA:101,1008
DA:103,1008
DA:104,1008
DA:105,0
DA:106,1008
DA:109,352
DA:111,352
DA:112,352
DA:113,352
DA:114,0
DA:115,0
DA:116,0
DA:117,0
DA:119,0
DA:120,0
DA:121,0
DA:122,0
DA:124,0
DA:128,0
DA:130,0
DA:131,0
DA:134,0
DA:136,0
DA:137,0
LF:38
LH:18
end_of_record
TN:
SF:/home/fed/Documents/clion-workspace/qt-try/build/tests/test_mainwindow_autogen/RF5KSEWXUK/moc_settingsdialog.cpp
FN:104,110,_ZN6optikg14SettingsDialog11qt_metacastEPKc
FN:112,128,_ZN6optikg14SettingsDialog11qt_metacallEN11QMetaObject4CallEiPPv
FN:82,97,_ZN6optikg14SettingsDialog18qt_static_metacallEP7QObjectN11QMetaObject4CallEiPPv
FN:99,102,_ZNK6optikg14SettingsDialog10metaObjectEv
FNDA:0,_ZN6optikg14SettingsDialog11qt_metacastEPKc
FNDA:0,_ZN6optikg14SettingsDialog11qt_metacallEN11QMetaObject4CallEiPPv
FNDA:0,_ZN6optikg14SettingsDialog18qt_static_metacallEP7QObjectN11QMetaObject4CallEiPPv
FNDA:0,_ZNK6optikg14SettingsDialog10metaObjectEv
FNF:4
FNH:0
DA:82,0
DA:84,0
DA:85,0
DA:86,0
DA:87,0
DA:88,0
DA:89,0
DA:90,0
DA:91,0
DA:92,0
DA:93,0
DA:97,0
DA:99,0
DA:101,0
DA:104,0
DA:106,0
DA:107,0
DA:108,0
DA:109,0
DA:112,0
DA:114,0
DA:115,0
DA:116,0
DA:117,0
DA:118,0
DA:119,0
DA:120,0
DA:122,0
DA:123,0
DA:124,0
DA:125,0
DA:127,0
LF:32
LH:0
end_of_record
TN:
SF:/home/fed/Documents/clion-workspace/qt-try/build/tests/test_mainwindow_autogen/VTM74X6NYQ/moc_databasemanager.cpp
FN:104,120,_ZN6optikg15DatabaseManager11qt_metacallEN11QMetaObject4CallEiPPv
FN:123,126,_ZN6optikg15DatabaseManager15databaseChangedEv
FN:129,132,_ZN6optikg15DatabaseManager13errorOccurredERK7QString
FN:73,89,_ZN6optikg15DatabaseManager18qt_static_metacallEP7QObjectN11QMetaObject4CallEiPPv
FN:91,94,_ZNK6optikg15DatabaseManager10metaObjectEv
FN:96,102,_ZN6optikg15DatabaseManager11qt_metacastEPKc
FNDA:0,_ZN6optikg15DatabaseManager11qt_metacallEN11QMetaObject4CallEiPPv
FNDA:0,_ZN6optikg15DatabaseManager15databaseChangedEv
FNDA:0,_ZN6optikg15DatabaseManager13errorOccurredERK7QString
FNDA:32,_ZN6optikg15DatabaseManager18qt_static_metacallEP7QObjectN11QMetaObject4CallEiPPv
FNDA:32,_ZNK6optikg15DatabaseManager10metaObjectEv
FNDA:0,_ZN6optikg15DatabaseManager11qt_metacastEPKc
FNF:6
FNH:2
DA:73,32
DA:75,32
DA:76,32
DA:77,0
DA:78,0
DA:79,0
DA:80,0
DA:83,32
DA:84,32
DA:85,32
DA:86,0
DA:87,0
DA:91,32
DA:93,32
DA:96,0
DA:98,0
DA:99,0
DA:100,0
DA:101,0
DA:104,0
DA:106,0
DA:107,0
DA:108,0
DA:109,0
DA:110,0
DA:111,0
DA:112,0
DA:114,0
DA:115,0
DA:116,0
DA:117,0
DA:119,0
DA:123,0
DA:125,0
DA:126,0
DA:129,0
DA:131,0
DA:132,0
LF:38
LH:8
end_of_record
TN:
SF:/home/fed/Documents/clion-workspace/qt-try/build/tests/test_mainwindow_autogen/include/test_mainwindow.moc
FN:123,152,_ZN14TestMainWindow18qt_static_metacallEP7QObjectN11QMetaObject4CallEiPPv
FN:154,157,_ZNK14TestMainWindow10metaObjectEv
FN:159,165,_ZN14TestMainWindow11qt_metacastEPKc
FN:167,183,_ZN14TestMainWindow11qt_metacallEN11QMetaObject4CallEiPPv
FNDA:40,_ZN14TestMainWindow18qt_static_metacallEP7QObjectN11QMetaObject4CallEiPPv
FNDA:52,_ZNK14TestMainWindow10metaObjectEv
FNDA:0,_ZN14TestMainWindow11qt_metacastEPKc
FNDA:0,_ZN14TestMainWindow11qt_metacallEN11QMetaObject4CallEiPPv
FNF:4
FNH:2
DA:123,40
DA:125,40
DA:126,40
DA:127,40
DA:128,2
DA:129,2
DA:130,2
DA:131,2
DA:132,2
DA:133,2
DA:134,2
DA:135,2
DA:136,2
DA:137,2
DA:138,2
DA:139,2
DA:140,2
DA:141,2
DA:142,2
DA:143,2
DA:144,2
DA:145,2
DA:146,2
DA:147,2
DA:148,40
DA:152,40
DA:154,52
DA:156,52
DA:159,0
DA:161,0
DA:162,0
DA:163,0
DA:164,0
DA:167,0
DA:169,0
DA:170,0
DA:171,0
DA:172,0
DA:173,0
DA:174,0
DA:175,0
DA:177,0
DA:178,0
DA:179,0
DA:180,0
DA:182,0
LF:46
LH:28
end_of_record
TN:
SF:/home/fed/Documents/clion-workspace/qt-try/build/tests/test_mainwindow_autogen/include/ui_mainwindow.h
FN:31,56,_ZN13Ui_MainWindow7setupUiEP11QMainWindow
FN:58,61,_ZN13Ui_MainWindow13retranslateUiEP11QMainWindow
FNDA:32,_ZN13Ui_MainWindow7setupUiEP11QMainWindow
FNDA:32,_ZN13Ui_MainWindow13retranslateUiEP11QMainWindow
FNF:2
FNH:2
DA:31,32
DA:33,32
DA:34,64
DA:35,32
DA:36,32
DA:37,64
DA:38,32
DA:39,64
DA:40,32
DA:41,32
DA:42,64
DA:43,32
DA:44,32
DA:45,32
DA:46,64
DA:47,32
DA:48,32
DA:49,32
DA:50,64
DA:51,32
DA:53,32
DA:55,32
DA:56,32
DA:58,32
DA:60,32
DA:61,32
LF:26
LH:26
end_of_record
TN:
SF:/home/fed/Documents/clion-workspace/qt-try/build/tests/test_performance_autogen/7KRDZL6R5E/moc_configmanager.cpp
FN:117,120,_ZN6optikg13ConfigManager14settingChangedERK7QString
FN:70,83,_ZN6optikg13ConfigManager18qt_static_metacallEP7QObjectN11QMetaObject4CallEiPPv
FN:85,88,_ZNK6optikg13ConfigManager10metaObjectEv
FN:90,96,_ZN6optikg13ConfigManager11qt_metacastEPKc
FN:98,114,_ZN6optikg13ConfigManager11qt_metacallEN11QMetaObject4CallEiPPv
FNDA:0,_ZN6optikg13ConfigManager14settingChangedERK7QString
FNDA:0,_ZN6optikg13ConfigManager18qt_static_metacallEP7QObjectN11QMetaObject4CallEiPPv
FNDA:0,_ZNK6optikg13ConfigManager10metaObjectEv
FNDA:0,_ZN6optikg13ConfigManager11qt_metacastEPKc
FNDA:0,_ZN6optikg13ConfigManager11qt_metacallEN11QMetaObject4CallEiPPv
FNF:5
FNH:0
DA:70,0
DA:72,0
DA:73,0
DA:74,0
DA:75,0
DA:76,0
DA:79,0
DA:80,0
DA:81,0
DA:85,0
DA:87,0
DA:90,0
DA:92,0
DA:93,0
DA:94,0
DA:95,0
DA:98,0
DA:100,0
DA:101,0
DA:102,0
DA:103,0
DA:104,0
DA:105,0
DA:106,0
DA:108,0
DA:109,0
DA:110,0
DA:111,0
DA:113,0
DA:117,0
DA:119,0
DA:120,0
LF:32
LH:0
end_of_record
TN:
SF:/home/fed/Documents/clion-workspace/qt-try/build/tests/test_performance_autogen/MV7IEL3DTJ/moc_batchprocessor.cpp
FN:105,145,_ZN6optikg14BatchProcessor18qt_static_metacallEP7QObjectN11QMetaObject4CallEiPPv
FN:147,150,_ZNK6optikg14BatchProcessor10metaObjectEv
FN:152,158,_ZN6optikg14BatchProcessor11qt_metacastEPKc
FN:160,176,_ZN6optikg14BatchProcessor11qt_metacallEN11QMetaObject4CallEiPPv
FN:179,182,_ZN6optikg14BatchProcessor15progressChangedEiiRK7QString
FN:185,188,_ZN6optikg14BatchProcessor12scanProgressEiiRK7QString
FN:191,194,_ZN6optikg14BatchProcessor12scanFinishedEii
FN:197,200,_ZN6optikg14BatchProcessor13fileProcessedERKNS_17FileProcessResultE
FN:203,206,_ZN6optikg14BatchProcessor13errorOccurredERK7QStringS3_
FN:209,212,_ZN6optikg14BatchProcessor13batchFinishedEiii
FNDA:0,_ZN6optikg14BatchProcessor18qt_static_metacallEP7QObjectN11QMetaObject4CallEiPPv
FNDA:0,_ZNK6optikg14BatchProcessor10metaObjectEv
FNDA:0,_ZN6optikg14BatchProcessor11qt_metacastEPKc
FNDA:0,_ZN6optikg14BatchProcessor11qt_metacallEN11QMetaObject4CallEiPPv
FNDA:0,_ZN6optikg14BatchProcessor15progressChangedEiiRK7QString
FNDA:0,_ZN6optikg14BatchProcessor12scanProgressEiiRK7QString
FNDA:0,_ZN6optikg14BatchProcessor12scanFinishedEii
FNDA:0,_ZN6optikg14BatchProcessor13fileProcessedERKNS_17FileProcessResultE
FNDA:0,_ZN6optikg14BatchProcessor13errorOccurredERK7QStringS3_
FNDA:0,_ZN6optikg14BatchProcessor13batchFinishedEiii
FNF:10
FNH:0
DA:105,0
DA:107,0
DA:108,0
DA:109,0
DA:110,0
DA:111,0
DA:112,0
DA:113,0
DA:114,0
DA:115,0
DA:116,0
DA:119,0
DA:120,0
DA:121,0
DA:122,0
DA:123,0
DA:124,0
DA:125,0
DA:126,0
DA:128,0
DA:131,0
DA:132,0
DA:133,0
DA:134,0
DA:135,0
DA:136,0
DA:137,0
DA:138,0
DA:139,0
DA:140,0
DA:141,0
DA:142,0
DA:143,0
DA:147,0
DA:149,0
DA:152,0
DA:154,0
DA:155,0
DA:156,0
DA:157,0
DA:160,0
DA:162,0
DA:163,0
DA:164,0
DA:165,0
DA:166,0
DA:167,0
DA:168,0
DA:170,0
DA:171,0
DA:172,0
DA:173,0
DA:175,0
DA:179,0
DA:181,0
DA:182,0
DA:185,0
DA:187,0
DA:188,0
DA:191,0
DA:193,0
DA:194,0
DA:197,0
DA:199,0
DA:200,0
DA:203,0
DA:205,0
DA:206,0
DA:209,0
DA:211,0
DA:212,0
LF:71
LH:0
end_of_record
TN:
SF:/home/fed/Documents/clion-workspace/qt-try/build/tests/test_performance_autogen/MV7IEL3DTJ/moc_inferenceworker.cpp
FN:105,108,_ZNK6optikg15InferenceWorker10metaObjectEv
FN:110,116,_ZN6optikg15InferenceWorker11qt_metacastEPKc
FN:118,134,_ZN6optikg15InferenceWorker11qt_metacallEN11QMetaObject4CallEiPPv
FN:137,140,_ZN6optikg15InferenceWorker15progressChangedEi
FN:143,146,_ZN6optikg15InferenceWorker11resultReadyERK5QListINS_6TripleEE
FN:149,152,_ZN6optikg15InferenceWorker13errorOccurredERK7QString
FN:84,103,_ZN6optikg15InferenceWorker18qt_static_metacallEP7QObjectN11QMetaObject4CallEiPPv
FNDA:0,_ZNK6optikg15InferenceWorker10metaObjectEv
FNDA:0,_ZN6optikg15InferenceWorker11qt_metacastEPKc
FNDA:0,_ZN6optikg15InferenceWorker11qt_metacallEN11QMetaObject4CallEiPPv
FNDA:0,_ZN6optikg15InferenceWorker15progressChangedEi
FNDA:0,_ZN6optikg15InferenceWorker11resultReadyERK5QListINS_6TripleEE
FNDA:0,_ZN6optikg15InferenceWorker13errorOccurredERK7QString
FNDA:0,_ZN6optikg15InferenceWorker18qt_static_metacallEP7QObjectN11QMetaObject4CallEiPPv
FNF:7
FNH:0
DA:84,0
DA:86,0
DA:87,0
DA:88,0
DA:89,0
DA:90,0
DA:91,0
DA:92,0
DA:95,0
DA:96,0
DA:97,0
DA:98,0
DA:99,0
DA:100,0
DA:101,0
DA:105,0
DA:107,0
DA:110,0
DA:112,0
DA:113,0
DA:114,0
DA:115,0
DA:118,0
DA:120,0
DA:121,0
DA:122,0
DA:123,0
DA:124,0
DA:125,0
DA:126,0
DA:128,0
DA:129,0
DA:130,0
DA:131,0
DA:133,0
DA:137,0
DA:139,0
DA:140,0
DA:143,0
DA:145,0
DA:146,0
DA:149,0
DA:151,0
DA:152,0
LF:44
LH:0
end_of_record
TN:
SF:/home/fed/Documents/clion-workspace/qt-try/build/tests/test_performance_autogen/RF5KSEWXUK/moc_batchprocessdialog.cpp
FN:141,177,_ZN6optikg18BatchProcessDialog18qt_static_metacallEP7QObjectN11QMetaObject4CallEiPPv
FN:179,182,_ZNK6optikg18BatchProcessDialog10metaObjectEv
FN:184,190,_ZN6optikg18BatchProcessDialog11qt_metacastEPKc
FN:192,208,_ZN6optikg18BatchProcessDialog11qt_metacallEN11QMetaObject4CallEiPPv
FNDA:0,_ZN6optikg18BatchProcessDialog18qt_static_metacallEP7QObjectN11QMetaObject4CallEiPPv
FNDA:0,_ZNK6optikg18BatchProcessDialog10metaObjectEv
FNDA:0,_ZN6optikg18BatchProcessDialog11qt_metacastEPKc
FNDA:0,_ZN6optikg18BatchProcessDialog11qt_metacallEN11QMetaObject4CallEiPPv
FNF:4
FNH:0
DA:141,0
DA:143,0
DA:144,0
DA:145,0
DA:146,0
DA:147,0
DA:148,0
DA:149,0
DA:150,0
DA:151,0
DA:152,0
DA:153,0
DA:154,0
DA:155,0
DA:156,0
DA:157,0
DA:158,0
DA:159,0
DA:160,0
DA:161,0
DA:162,0
DA:165,0
DA:166,0
DA:167,0
DA:168,0
DA:169,0
DA:170,0
DA:171,0
DA:172,0
DA:174,0
DA:177,0
DA:179,0
DA:181,0
DA:184,0
DA:186,0
DA:187,0
DA:188,0
DA:189,0
DA:192,0
DA:194,0
DA:195,0
DA:196,0
DA:197,0
DA:198,0
DA:199,0
DA:200,0
DA:202,0
DA:203,0
DA:204,0
DA:205,0
DA:207,0
LF:51
LH:0
end_of_record
TN:
SF:/home/fed/Documents/clion-workspace/qt-try/build/tests/test_performance_autogen/RF5KSEWXUK/moc_extractionpanel.cpp
FN:105,108,_ZNK6optikg15ExtractionPanel10metaObjectEv
FN:110,116,_ZN6optikg15ExtractionPanel11qt_metacastEPKc
FN:118,134,_ZN6optikg15ExtractionPanel11qt_metacallEN11QMetaObject4CallEiPPv
FN:137,140,_ZN6optikg15ExtractionPanel14extractClickedEv
FN:143,146,_ZN6optikg15ExtractionPanel12clearClickedEv
FN:149,152,_ZN6optikg15ExtractionPanel11textChangedERK7QString
FN:82,103,_ZN6optikg15ExtractionPanel18qt_static_metacallEP7QObjectN11QMetaObject4CallEiPPv
FNDA:0,_ZNK6optikg15ExtractionPanel10metaObjectEv
FNDA:0,_ZN6optikg15ExtractionPanel11qt_metacastEPKc
FNDA:0,_ZN6optikg15ExtractionPanel11qt_metacallEN11QMetaObject4CallEiPPv
FNDA:0,_ZN6optikg15ExtractionPanel14extractClickedEv
FNDA:0,_ZN6optikg15ExtractionPanel12clearClickedEv
FNDA:0,_ZN6optikg15ExtractionPanel11textChangedERK7QString
FNDA:0,_ZN6optikg15ExtractionPanel18qt_static_metacallEP7QObjectN11QMetaObject4CallEiPPv
FNF:7
FNH:0
DA:82,0
DA:84,0
DA:85,0
DA:86,0
DA:87,0
DA:88,0
DA:89,0
DA:90,0
DA:91,0
DA:92,0
DA:95,0
DA:96,0
DA:97,0
DA:98,0
DA:99,0
DA:100,0
DA:101,0
DA:105,0
DA:107,0
DA:110,0
DA:112,0
DA:113,0
DA:114,0
DA:115,0
DA:118,0
DA:120,0
DA:121,0
DA:122,0
DA:123,0
DA:124,0
DA:125,0
DA:126,0
DA:128,0
DA:129,0
DA:130,0
DA:131,0
DA:133,0
DA:137,0
DA:139,0
DA:140,0
DA:143,0
DA:145,0
DA:146,0
DA:149,0
DA:151,0
DA:152,0
LF:46
LH:0
end_of_record
TN:
SF:/home/fed/Documents/clion-workspace/qt-try/build/tests/test_performance_autogen/RF5KSEWXUK/moc_graphwidget.cpp
FN:102,108,_ZN6optikg11GraphWidget11qt_metacastEPKc
FN:110,126,_ZN6optikg11GraphWidget11qt_metacallEN11QMetaObject4CallEiPPv
FN:129,132,_ZN6optikg11GraphWidget11nodeClickedERK7QStringS3_
FN:135,138,_ZN6optikg11GraphWidget11edgeClickedERK7QStringS3_S3_
FN:79,95,_ZN6optikg11GraphWidget18qt_static_metacallEP7QObjectN11QMetaObject4CallEiPPv
FN:97,100,_ZNK6optikg11GraphWidget10metaObjectEv
FNDA:0,_ZN6optikg11GraphWidget11qt_metacastEPKc
FNDA:0,_ZN6optikg11GraphWidget11qt_metacallEN11QMetaObject4CallEiPPv
FNDA:0,_ZN6optikg11GraphWidget11nodeClickedERK7QStringS3_
FNDA:0,_ZN6optikg11GraphWidget11edgeClickedERK7QStringS3_S3_
FNDA:0,_ZN6optikg11GraphWidget18qt_static_metacallEP7QObjectN11QMetaObject4CallEiPPv
FNDA:0,_ZNK6optikg11GraphWidget10metaObjectEv
FNF:6
FNH:0
DA:79,0
DA:81,0
DA:82,0
DA:83,0
DA:84,0
DA:85,0
DA:86,0
DA:89,0
DA:90,0
DA:91,0
DA:92,0
DA:93,0
DA:97,0
DA:99,0
DA:102,0
DA:104,0
DA:105,0
DA:106,0
DA:107,0
DA:110,0
DA:112,0
DA:113,0
DA:114,0
DA:115,0
DA:116,0
DA:117,0
DA:118,0
DA:120,0
DA:121,0
DA:122,0
DA:123,0
DA:125,0
DA:129,0
DA:131,0
DA:132,0
DA:135,0
DA:137,0
DA:138,0
LF:38
LH:0
end_of_record
TN:
SF:/home/fed/Documents/clion-workspace/qt-try/build/tests/test_performance_autogen/RF5KSEWXUK/moc_historypanel.cpp
FN:115,163,_ZN6optikg12HistoryPanel18qt_static_metacallEP7QObjectN11QMetaObject4CallEiPPv
FN:165,168,_ZNK6optikg12HistoryPanel10metaObjectEv
FN:170,176,_ZN6optikg12HistoryPanel11qt_metacastEPKc
FN:178,194,_ZN6optikg12HistoryPanel11qt_metacallEN11QMetaObject4CallEiPPv
FN:197,200,_ZN6optikg12HistoryPanel13recordClickedEx
FN:203,206,_ZN6optikg12HistoryPanel19recordDoubleClickedEx
FN:209,212,_ZN6optikg12HistoryPanel13exportClickedERK5QListIxE
FN:215,218,_ZN6optikg12HistoryPanel18batchDeleteClickedERK5QListIxE
FNDA:0,_ZN6optikg12HistoryPanel18qt_static_metacallEP7QObjectN11QMetaObject4CallEiPPv
FNDA:0,_ZNK6optikg12HistoryPanel10metaObjectEv
FNDA:0,_ZN6optikg12HistoryPanel11qt_metacastEPKc
FNDA:0,_ZN6optikg12HistoryPanel11qt_metacallEN11QMetaObject4CallEiPPv
FNDA:0,_ZN6optikg12HistoryPanel13recordClickedEx
FNDA:0,_ZN6optikg12HistoryPanel19recordDoubleClickedEx
FNDA:0,_ZN6optikg12HistoryPanel13exportClickedERK5QListIxE
FNDA:0,_ZN6optikg12HistoryPanel18batchDeleteClickedERK5QListIxE
FNF:8
FNH:0
DA:115,0
DA:117,0
DA:118,0
DA:119,0
DA:120,0
DA:121,0
DA:122,0
DA:123,0
DA:124,0
DA:125,0
DA:126,0
DA:127,0
DA:128,0
DA:129,0
DA:130,0
DA:131,0
DA:134,0
DA:135,0
DA:136,0
DA:137,0
DA:138,0
DA:139,0
DA:140,0
DA:141,0
DA:143,0
DA:144,0
DA:145,0
DA:146,0
DA:147,0
DA:148,0
DA:150,0
DA:153,0
DA:154,0
DA:155,0
DA:156,0
DA:157,0
DA:158,0
DA:159,0
DA:160,0
DA:161,0
DA:165,0
DA:167,0
DA:170,0
DA:172,0
DA:173,0
DA:174,0
DA:175,0
DA:178,0
DA:180,0
DA:181,0
DA:182,0
DA:183,0
DA:184,0
DA:185,0
DA:186,0
DA:188,0
DA:189,0
DA:190,0
DA:191,0
DA:193,0
DA:197,0
DA:199,0
DA:200,0
DA:203,0
DA:205,0
DA:206,0
DA:209,0
DA:211,0
DA:212,0
DA:215,0
DA:217,0
DA:218,0
LF:72
LH:0
end_of_record
TN:
SF:/home/fed/Documents/clion-workspace/qt-try/build/tests/test_performance_autogen/RF5KSEWXUK/moc_mainwindow.cpp
FN:124,159,_ZN6optikg10MainWindow18qt_static_metacallEP7QObjectN11QMetaObject4CallEiPPv
FN:161,164,_ZNK6optikg10MainWindow10metaObjectEv
FN:166,172,_ZN6optikg10MainWindow11qt_metacastEPKc
FN:174,190,_ZN6optikg10MainWindow11qt_metacallEN11QMetaObject4CallEiPPv
FNDA:0,_ZN6optikg10MainWindow18qt_static_metacallEP7QObjectN11QMetaObject4CallEiPPv
FNDA:0,_ZNK6optikg10MainWindow10metaObjectEv
FNDA:0,_ZN6optikg10MainWindow11qt_metacastEPKc
FNDA:0,_ZN6optikg10MainWindow11qt_metacallEN11QMetaObject4CallEiPPv
FNF:4
FNH:0
DA:124,0
DA:126,0
DA:127,0
DA:128,0
DA:129,0
DA:130,0
DA:131,0
DA:132,0
DA:133,0
DA:134,0
DA:135,0
DA:136,0
DA:137,0
DA:138,0
DA:139,0
DA:140,0
DA:141,0
DA:142,0
DA:143,0
DA:144,0
DA:147,0
DA:148,0
DA:149,0
DA:150,0
DA:151,0
DA:152,0
DA:153,0
DA:154,0
DA:156,0
DA:159,0
DA:161,0
DA:163,0
DA:166,0
DA:168,0
DA:169,0
DA:170,0
DA:171,0
DA:174,0
DA:176,0
DA:177,0
DA:178,0
DA:179,0
DA:180,0
DA:181,0
DA:182,0
DA:184,0
DA:185,0
DA:186,0
DA:187,0
DA:189,0
LF:50
LH:0
end_of_record
TN:
SF:/home/fed/Documents/clion-workspace/qt-try/build/tests/test_performance_autogen/RF5KSEWXUK/moc_resulttreewidget.cpp
FN:101,107,_ZN6optikg16ResultTreeWidget11qt_metacastEPKc
FN:109,125,_ZN6optikg16ResultTreeWidget11qt_metacallEN11QMetaObject4CallEiPPv
FN:128,131,_ZN6optikg16ResultTreeWidget13entityClickedERK7QStringS3_
FN:134,137,_ZN6optikg16ResultTreeWidget13tripleClickedERKNS_6TripleE
FN:78,94,_ZN6optikg16ResultTreeWidget18qt_static_metacallEP7QObjectN11QMetaObject4CallEiPPv
FN:96,99,_ZNK6optikg16ResultTreeWidget10metaObjectEv
FNDA:0,_ZN6optikg16ResultTreeWidget11qt_metacastEPKc
FNDA:0,_ZN6optikg16ResultTreeWidget11qt_metacallEN11QMetaObject4CallEiPPv
FNDA:0,_ZN6optikg16ResultTreeWidget13entityClickedERK7QStringS3_
FNDA:0,_ZN6optikg16ResultTreeWidget13tripleClickedERKNS_6TripleE
FNDA:0,_ZN6optikg16ResultTreeWidget18qt_static_metacallEP7QObjectN11QMetaObject4CallEiPPv
FNDA:0,_ZNK6optikg16ResultTreeWidget10metaObjectEv
FNF:6
FNH:0
DA:78,0
DA:80,0
DA:81,0
DA:82,0
DA:83,0
DA:84,0
DA:85,0
DA:88,0
DA:89,0
DA:90,0
DA:91,0
DA:92,0
DA:96,0
DA:98,0
DA:101,0
DA:103,0
DA:104,0
DA:105,0
DA:106,0
DA:109,0
DA:111,0
DA:112,0
DA:113,0
DA:114,0
DA:115,0
DA:116,0
DA:117,0
DA:119,0
DA:120,0
DA:121,0
DA:122,0
DA:124,0
DA:128,0
DA:130,0
DA:131,0
DA:134,0
DA:136,0
DA:137,0
LF:38
LH:0
end_of_record
TN:
SF:/home/fed/Documents/clion-workspace/qt-try/build/tests/test_performance_autogen/RF5KSEWXUK/moc_settingsdialog.cpp
FN:104,110,_ZN6optikg14SettingsDialog11qt_metacastEPKc
FN:112,128,_ZN6optikg14SettingsDialog11qt_metacallEN11QMetaObject4CallEiPPv
FN:82,97,_ZN6optikg14SettingsDialog18qt_static_metacallEP7QObjectN11QMetaObject4CallEiPPv
FN:99,102,_ZNK6optikg14SettingsDialog10metaObjectEv
FNDA:0,_ZN6optikg14SettingsDialog11qt_metacastEPKc
FNDA:0,_ZN6optikg14SettingsDialog11qt_metacallEN11QMetaObject4CallEiPPv
FNDA:0,_ZN6optikg14SettingsDialog18qt_static_metacallEP7QObjectN11QMetaObject4CallEiPPv
FNDA:0,_ZNK6optikg14SettingsDialog10metaObjectEv
FNF:4
FNH:0
DA:82,0
DA:84,0
DA:85,0
DA:86,0
DA:87,0
DA:88,0
DA:89,0
DA:90,0
DA:91,0
DA:92,0
DA:93,0
DA:97,0
DA:99,0
DA:101,0
DA:104,0
DA:106,0
DA:107,0
DA:108,0
DA:109,0
DA:112,0
DA:114,0
DA:115,0
DA:116,0
DA:117,0
DA:118,0
DA:119,0
DA:120,0
DA:122,0
DA:123,0
DA:124,0
DA:125,0
DA:127,0
LF:32
LH:0
end_of_record
TN:
SF:/home/fed/Documents/clion-workspace/qt-try/build/tests/test_performance_autogen/VTM74X6NYQ/moc_databasemanager.cpp
FN:104,120,_ZN6optikg15DatabaseManager11qt_metacallEN11QMetaObject4CallEiPPv
FN:123,126,_ZN6optikg15DatabaseManager15databaseChangedEv
FN:129,132,_ZN6optikg15DatabaseManager13errorOccurredERK7QString
FN:73,89,_ZN6optikg15DatabaseManager18qt_static_metacallEP7QObjectN11QMetaObject4CallEiPPv
FN:91,94,_ZNK6optikg15DatabaseManager10metaObjectEv
FN:96,102,_ZN6optikg15DatabaseManager11qt_metacastEPKc
FNDA:0,_ZN6optikg15DatabaseManager11qt_metacallEN11QMetaObject4CallEiPPv
FNDA:2002,_ZN6optikg15DatabaseManager15databaseChangedEv
FNDA:0,_ZN6optikg15DatabaseManager13errorOccurredERK7QString
FNDA:0,_ZN6optikg15DatabaseManager18qt_static_metacallEP7QObjectN11QMetaObject4CallEiPPv
FNDA:0,_ZNK6optikg15DatabaseManager10metaObjectEv
FNDA:0,_ZN6optikg15DatabaseManager11qt_metacastEPKc
FNF:6
FNH:1
DA:73,0
DA:75,0
DA:76,0
DA:77,0
DA:78,0
DA:79,0
DA:80,0
DA:83,0
DA:84,0
DA:85,0
DA:86,0
DA:87,0
DA:91,0
DA:93,0
DA:96,0
DA:98,0
DA:99,0
DA:100,0
DA:101,0
DA:104,0
DA:106,0
DA:107,0
DA:108,0
DA:109,0
DA:110,0
DA:111,0
DA:112,0
DA:114,0
DA:115,0
DA:116,0
DA:117,0
DA:119,0
DA:123,2002
DA:125,2002
DA:126,2002
DA:129,0
DA:131,0
DA:132,0
LF:38
LH:3
end_of_record
TN:
SF:/home/fed/Documents/clion-workspace/qt-try/build/tests/test_performance_autogen/include/test_performance.moc
FN:122,125,_ZNK15TestPerformance10metaObjectEv
FN:127,133,_ZN15TestPerformance11qt_metacastEPKc
FN:135,151,_ZN15TestPerformance11qt_metacallEN11QMetaObject4CallEiPPv
FN:99,120,_ZN15TestPerformance18qt_static_metacallEP7QObjectN11QMetaObject4CallEiPPv
FNDA:36,_ZNK15TestPerformance10metaObjectEv
FNDA:0,_ZN15TestPerformance11qt_metacastEPKc
FNDA:0,_ZN15TestPerformance11qt_metacallEN11QMetaObject4CallEiPPv
FNDA:26,_ZN15TestPerformance18qt_static_metacallEP7QObjectN11QMetaObject4CallEiPPv
FNF:4
FNH:2
DA:99,26
DA:101,26
DA:102,26
DA:103,26
DA:104,2
DA:105,2
DA:106,2
DA:107,2
DA:108,2
DA:109,2
DA:110,2
DA:111,2
DA:112,2
DA:113,3
DA:114,3
DA:115,2
DA:116,26
DA:120,26
DA:122,36
DA:124,36
DA:127,0
DA:129,0
DA:130,0
DA:131,0
DA:132,0
DA:135,0
DA:137,0
DA:138,0
DA:139,0
DA:140,0
DA:141,0
DA:142,0
DA:143,0
DA:145,0
DA:146,0
DA:147,0
DA:148,0
DA:150,0
LF:38
LH:20
end_of_record
TN:
SF:/home/fed/Documents/clion-workspace/qt-try/build/tests/test_performance_autogen/include/ui_mainwindow.h
FN:31,56,_ZN13Ui_MainWindow7setupUiEP11QMainWindow
FN:58,61,_ZN13Ui_MainWindow13retranslateUiEP11QMainWindow
FNDA:0,_ZN13Ui_MainWindow7setupUiEP11QMainWindow
FNDA:0,_ZN13Ui_MainWindow13retranslateUiEP11QMainWindow
FNF:2
FNH:0
DA:31,0
DA:33,0
DA:34,0
DA:35,0
DA:36,0
DA:37,0
DA:38,0
DA:39,0
DA:40,0
DA:41,0
DA:42,0
DA:43,0
DA:44,0
DA:45,0
DA:46,0
DA:47,0
DA:48,0
DA:49,0
DA:50,0
DA:51,0
DA:53,0
DA:55,0
DA:56,0
DA:58,0
DA:60,0
DA:61,0
LF:26
LH:0
end_of_record
TN:
SF:/home/fed/Documents/clion-workspace/qt-try/build/tests/test_reliability_autogen/7KRDZL6R5E/moc_configmanager.cpp
FN:117,120,_ZN6optikg13ConfigManager14settingChangedERK7QString
FN:70,83,_ZN6optikg13ConfigManager18qt_static_metacallEP7QObjectN11QMetaObject4CallEiPPv
FN:85,88,_ZNK6optikg13ConfigManager10metaObjectEv
FN:90,96,_ZN6optikg13ConfigManager11qt_metacastEPKc
FN:98,114,_ZN6optikg13ConfigManager11qt_metacallEN11QMetaObject4CallEiPPv
FNDA:0,_ZN6optikg13ConfigManager14settingChangedERK7QString
FNDA:0,_ZN6optikg13ConfigManager18qt_static_metacallEP7QObjectN11QMetaObject4CallEiPPv
FNDA:0,_ZNK6optikg13ConfigManager10metaObjectEv
FNDA:0,_ZN6optikg13ConfigManager11qt_metacastEPKc
FNDA:0,_ZN6optikg13ConfigManager11qt_metacallEN11QMetaObject4CallEiPPv
FNF:5
FNH:0
DA:70,0
DA:72,0
DA:73,0
DA:74,0
DA:75,0
DA:76,0
DA:79,0
DA:80,0
DA:81,0
DA:85,0
DA:87,0
DA:90,0
DA:92,0
DA:93,0
DA:94,0
DA:95,0
DA:98,0
DA:100,0
DA:101,0
DA:102,0
DA:103,0
DA:104,0
DA:105,0
DA:106,0
DA:108,0
DA:109,0
DA:110,0
DA:111,0
DA:113,0
DA:117,0
DA:119,0
DA:120,0
LF:32
LH:0
end_of_record
TN:
SF:/home/fed/Documents/clion-workspace/qt-try/build/tests/test_reliability_autogen/MV7IEL3DTJ/moc_batchprocessor.cpp
FN:105,145,_ZN6optikg14BatchProcessor18qt_static_metacallEP7QObjectN11QMetaObject4CallEiPPv
FN:147,150,_ZNK6optikg14BatchProcessor10metaObjectEv
FN:152,158,_ZN6optikg14BatchProcessor11qt_metacastEPKc
FN:160,176,_ZN6optikg14BatchProcessor11qt_metacallEN11QMetaObject4CallEiPPv
FN:179,182,_ZN6optikg14BatchProcessor15progressChangedEiiRK7QString
FN:185,188,_ZN6optikg14BatchProcessor12scanProgressEiiRK7QString
FN:191,194,_ZN6optikg14BatchProcessor12scanFinishedEii
FN:197,200,_ZN6optikg14BatchProcessor13fileProcessedERKNS_17FileProcessResultE
FN:203,206,_ZN6optikg14BatchProcessor13errorOccurredERK7QStringS3_
FN:209,212,_ZN6optikg14BatchProcessor13batchFinishedEiii
FNDA:8,_ZN6optikg14BatchProcessor18qt_static_metacallEP7QObjectN11QMetaObject4CallEiPPv
FNDA:24,_ZNK6optikg14BatchProcessor10metaObjectEv
FNDA:0,_ZN6optikg14BatchProcessor11qt_metacastEPKc
FNDA:0,_ZN6optikg14BatchProcessor11qt_metacallEN11QMetaObject4CallEiPPv
FNDA:0,_ZN6optikg14BatchProcessor15progressChangedEiiRK7QString
FNDA:26,_ZN6optikg14BatchProcessor12scanProgressEiiRK7QString
FNDA:8,_ZN6optikg14BatchProcessor12scanFinishedEii
FNDA:0,_ZN6optikg14BatchProcessor13fileProcessedERKNS_17FileProcessResultE
FNDA:18,_ZN6optikg14BatchProcessor13errorOccurredERK7QStringS3_
FNDA:8,_ZN6optikg14BatchProcessor13batchFinishedEiii
FNF:10
FNH:6
DA:105,8
DA:107,8
DA:108,8
DA:109,0
DA:110,0
DA:111,0
DA:112,0
DA:113,0
DA:114,0
DA:115,0
DA:116,0
DA:119,8
DA:120,0
DA:121,0
DA:122,0
DA:123,0
DA:124,0
DA:125,0
DA:126,0
DA:128,0
DA:131,8
DA:132,8
DA:133,0
DA:134,8
DA:135,0
DA:136,8
DA:137,0
DA:138,8
DA:139,0
DA:140,8
DA:141,6
DA:142,2
DA:143,2
DA:147,24
DA:149,24
DA:152,0
DA:154,0
DA:155,0
DA:156,0
DA:157,0
DA:160,0
DA:162,0
DA:163,0
DA:164,0
DA:165,0
DA:166,0
DA:167,0
DA:168,0
DA:170,0
DA:171,0
DA:172,0
DA:173,0
DA:175,0
DA:179,0
DA:181,0
DA:182,0
DA:185,26
DA:187,26
DA:188,26
DA:191,8
DA:193,8
DA:194,8
DA:197,0
DA:199,0
DA:200,0
DA:203,18
DA:205,18
DA:206,18
DA:209,8
DA:211,8
DA:212,8
LF:71
LH:27
end_of_record
TN:
SF:/home/fed/Documents/clion-workspace/qt-try/build/tests/test_reliability_autogen/MV7IEL3DTJ/moc_inferenceworker.cpp
FN:105,108,_ZNK6optikg15InferenceWorker10metaObjectEv
FN:110,116,_ZN6optikg15InferenceWorker11qt_metacastEPKc
FN:118,134,_ZN6optikg15InferenceWorker11qt_metacallEN11QMetaObject4CallEiPPv
FN:137,140,_ZN6optikg15InferenceWorker15progressChangedEi
FN:143,146,_ZN6optikg15InferenceWorker11resultReadyERK5QListINS_6TripleEE
FN:149,152,_ZN6optikg15InferenceWorker13errorOccurredERK7QString
FN:84,103,_ZN6optikg15InferenceWorker18qt_static_metacallEP7QObjectN11QMetaObject4CallEiPPv
FNDA:0,_ZNK6optikg15InferenceWorker10metaObjectEv
FNDA:0,_ZN6optikg15InferenceWorker11qt_metacastEPKc
FNDA:0,_ZN6optikg15InferenceWorker11qt_metacallEN11QMetaObject4CallEiPPv
FNDA:0,_ZN6optikg15InferenceWorker15progressChangedEi
FNDA:0,_ZN6optikg15InferenceWorker11resultReadyERK5QListINS_6TripleEE
FNDA:0,_ZN6optikg15InferenceWorker13errorOccurredERK7QString
FNDA:0,_ZN6optikg15InferenceWorker18qt_static_metacallEP7QObjectN11QMetaObject4CallEiPPv
FNF:7
FNH:0
DA:84,0
DA:86,0
DA:87,0
DA:88,0
DA:89,0
DA:90,0
DA:91,0
DA:92,0
DA:95,0
DA:96,0
DA:97,0
DA:98,0
DA:99,0
DA:100,0
DA:101,0
DA:105,0
DA:107,0
DA:110,0
DA:112,0
DA:113,0
DA:114,0
DA:115,0
DA:118,0
DA:120,0
DA:121,0
DA:122,0
DA:123,0
DA:124,0
DA:125,0
DA:126,0
DA:128,0
DA:129,0
DA:130,0
DA:131,0
DA:133,0
DA:137,0
DA:139,0
DA:140,0
DA:143,0
DA:145,0
DA:146,0
DA:149,0
DA:151,0
DA:152,0
LF:44
LH:0
end_of_record
TN:
SF:/home/fed/Documents/clion-workspace/qt-try/build/tests/test_reliability_autogen/RF5KSEWXUK/moc_batchprocessdialog.cpp
FN:141,177,_ZN6optikg18BatchProcessDialog18qt_static_metacallEP7QObjectN11QMetaObject4CallEiPPv
FN:179,182,_ZNK6optikg18BatchProcessDialog10metaObjectEv
FN:184,190,_ZN6optikg18BatchProcessDialog11qt_metacastEPKc
FN:192,208,_ZN6optikg18BatchProcessDialog11qt_metacallEN11QMetaObject4CallEiPPv
FNDA:0,_ZN6optikg18BatchProcessDialog18qt_static_metacallEP7QObjectN11QMetaObject4CallEiPPv
FNDA:0,_ZNK6optikg18BatchProcessDialog10metaObjectEv
FNDA:0,_ZN6optikg18BatchProcessDialog11qt_metacastEPKc
FNDA:0,_ZN6optikg18BatchProcessDialog11qt_metacallEN11QMetaObject4CallEiPPv
FNF:4
FNH:0
DA:141,0
DA:143,0
DA:144,0
DA:145,0
DA:146,0
DA:147,0
DA:148,0
DA:149,0
DA:150,0
DA:151,0
DA:152,0
DA:153,0
DA:154,0
DA:155,0
DA:156,0
DA:157,0
DA:158,0
DA:159,0
DA:160,0
DA:161,0
DA:162,0
DA:165,0
DA:166,0
DA:167,0
DA:168,0
DA:169,0
DA:170,0
DA:171,0
DA:172,0
DA:174,0
DA:177,0
DA:179,0
DA:181,0
DA:184,0
DA:186,0
DA:187,0
DA:188,0
DA:189,0
DA:192,0
DA:194,0
DA:195,0
DA:196,0
DA:197,0
DA:198,0
DA:199,0
DA:200,0
DA:202,0
DA:203,0
DA:204,0
DA:205,0
DA:207,0
LF:51
LH:0
end_of_record
TN:
SF:/home/fed/Documents/clion-workspace/qt-try/build/tests/test_reliability_autogen/RF5KSEWXUK/moc_extractionpanel.cpp
FN:105,108,_ZNK6optikg15ExtractionPanel10metaObjectEv
FN:110,116,_ZN6optikg15ExtractionPanel11qt_metacastEPKc
FN:118,134,_ZN6optikg15ExtractionPanel11qt_metacallEN11QMetaObject4CallEiPPv
FN:137,140,_ZN6optikg15ExtractionPanel14extractClickedEv
FN:143,146,_ZN6optikg15ExtractionPanel12clearClickedEv
FN:149,152,_ZN6optikg15ExtractionPanel11textChangedERK7QString
FN:82,103,_ZN6optikg15ExtractionPanel18qt_static_metacallEP7QObjectN11QMetaObject4CallEiPPv
FNDA:0,_ZNK6optikg15ExtractionPanel10metaObjectEv
FNDA:0,_ZN6optikg15ExtractionPanel11qt_metacastEPKc
FNDA:0,_ZN6optikg15ExtractionPanel11qt_metacallEN11QMetaObject4CallEiPPv
FNDA:0,_ZN6optikg15ExtractionPanel14extractClickedEv
FNDA:0,_ZN6optikg15ExtractionPanel12clearClickedEv
FNDA:0,_ZN6optikg15ExtractionPanel11textChangedERK7QString
FNDA:0,_ZN6optikg15ExtractionPanel18qt_static_metacallEP7QObjectN11QMetaObject4CallEiPPv
FNF:7
FNH:0
DA:82,0
DA:84,0
DA:85,0
DA:86,0
DA:87,0
DA:88,0
DA:89,0
DA:90,0
DA:91,0
DA:92,0
DA:95,0
DA:96,0
DA:97,0
DA:98,0
DA:99,0
DA:100,0
DA:101,0
DA:105,0
DA:107,0
DA:110,0
DA:112,0
DA:113,0
DA:114,0
DA:115,0
DA:118,0
DA:120,0
DA:121,0
DA:122,0
DA:123,0
DA:124,0
DA:125,0
DA:126,0
DA:128,0
DA:129,0
DA:130,0
DA:131,0
DA:133,0
DA:137,0
DA:139,0
DA:140,0
DA:143,0
DA:145,0
DA:146,0
DA:149,0
DA:151,0
DA:152,0
LF:46
LH:0
end_of_record
TN:
SF:/home/fed/Documents/clion-workspace/qt-try/build/tests/test_reliability_autogen/RF5KSEWXUK/moc_graphwidget.cpp
FN:102,108,_ZN6optikg11GraphWidget11qt_metacastEPKc
FN:110,126,_ZN6optikg11GraphWidget11qt_metacallEN11QMetaObject4CallEiPPv
FN:129,132,_ZN6optikg11GraphWidget11nodeClickedERK7QStringS3_
FN:135,138,_ZN6optikg11GraphWidget11edgeClickedERK7QStringS3_S3_
FN:79,95,_ZN6optikg11GraphWidget18qt_static_metacallEP7QObjectN11QMetaObject4CallEiPPv
FN:97,100,_ZNK6optikg11GraphWidget10metaObjectEv
FNDA:0,_ZN6optikg11GraphWidget11qt_metacastEPKc
FNDA:0,_ZN6optikg11GraphWidget11qt_metacallEN11QMetaObject4CallEiPPv
FNDA:0,_ZN6optikg11GraphWidget11nodeClickedERK7QStringS3_
FNDA:0,_ZN6optikg11GraphWidget11edgeClickedERK7QStringS3_S3_
FNDA:0,_ZN6optikg11GraphWidget18qt_static_metacallEP7QObjectN11QMetaObject4CallEiPPv
FNDA:0,_ZNK6optikg11GraphWidget10metaObjectEv
FNF:6
FNH:0
DA:79,0
DA:81,0
DA:82,0
DA:83,0
DA:84,0
DA:85,0
DA:86,0
DA:89,0
DA:90,0
DA:91,0
DA:92,0
DA:93,0
DA:97,0
DA:99,0
DA:102,0
DA:104,0
DA:105,0
DA:106,0
DA:107,0
DA:110,0
DA:112,0
DA:113,0
DA:114,0
DA:115,0
DA:116,0
DA:117,0
DA:118,0
DA:120,0
DA:121,0
DA:122,0
DA:123,0
DA:125,0
DA:129,0
DA:131,0
DA:132,0
DA:135,0
DA:137,0
DA:138,0
LF:38
LH:0
end_of_record
TN:
SF:/home/fed/Documents/clion-workspace/qt-try/build/tests/test_reliability_autogen/RF5KSEWXUK/moc_historypanel.cpp
FN:115,163,_ZN6optikg12HistoryPanel18qt_static_metacallEP7QObjectN11QMetaObject4CallEiPPv
FN:165,168,_ZNK6optikg12HistoryPanel10metaObjectEv
FN:170,176,_ZN6optikg12HistoryPanel11qt_metacastEPKc
FN:178,194,_ZN6optikg12HistoryPanel11qt_metacallEN11QMetaObject4CallEiPPv
FN:197,200,_ZN6optikg12HistoryPanel13recordClickedEx
FN:203,206,_ZN6optikg12HistoryPanel19recordDoubleClickedEx
FN:209,212,_ZN6optikg12HistoryPanel13exportClickedERK5QListIxE
FN:215,218,_ZN6optikg12HistoryPanel18batchDeleteClickedERK5QListIxE
FNDA:0,_ZN6optikg12HistoryPanel18qt_static_metacallEP7QObjectN11QMetaObject4CallEiPPv
FNDA:0,_ZNK6optikg12HistoryPanel10metaObjectEv
FNDA:0,_ZN6optikg12HistoryPanel11qt_metacastEPKc
FNDA:0,_ZN6optikg12HistoryPanel11qt_metacallEN11QMetaObject4CallEiPPv
FNDA:0,_ZN6optikg12HistoryPanel13recordClickedEx
FNDA:0,_ZN6optikg12HistoryPanel19recordDoubleClickedEx
FNDA:0,_ZN6optikg12HistoryPanel13exportClickedERK5QListIxE
FNDA:0,_ZN6optikg12HistoryPanel18batchDeleteClickedERK5QListIxE
FNF:8
FNH:0
DA:115,0
DA:117,0
DA:118,0
DA:119,0
DA:120,0
DA:121,0
DA:122,0
DA:123,0
DA:124,0
DA:125,0
DA:126,0
DA:127,0
DA:128,0
DA:129,0
DA:130,0
DA:131,0
DA:134,0
DA:135,0
DA:136,0
DA:137,0
DA:138,0
DA:139,0
DA:140,0
DA:141,0
DA:143,0
DA:144,0
DA:145,0
DA:146,0
DA:147,0
DA:148,0
DA:150,0
DA:153,0
DA:154,0
DA:155,0
DA:156,0
DA:157,0
DA:158,0
DA:159,0
DA:160,0
DA:161,0
DA:165,0
DA:167,0
DA:170,0
DA:172,0
DA:173,0
DA:174,0
DA:175,0
DA:178,0
DA:180,0
DA:181,0
DA:182,0
DA:183,0
DA:184,0
DA:185,0
DA:186,0
DA:188,0
DA:189,0
DA:190,0
DA:191,0
DA:193,0
DA:197,0
DA:199,0
DA:200,0
DA:203,0
DA:205,0
DA:206,0
DA:209,0
DA:211,0
DA:212,0
DA:215,0
DA:217,0
DA:218,0
LF:72
LH:0
end_of_record
TN:
SF:/home/fed/Documents/clion-workspace/qt-try/build/tests/test_reliability_autogen/RF5KSEWXUK/moc_mainwindow.cpp
FN:124,159,_ZN6optikg10MainWindow18qt_static_metacallEP7QObjectN11QMetaObject4CallEiPPv
FN:161,164,_ZNK6optikg10MainWindow10metaObjectEv
FN:166,172,_ZN6optikg10MainWindow11qt_metacastEPKc
FN:174,190,_ZN6optikg10MainWindow11qt_metacallEN11QMetaObject4CallEiPPv
FNDA:0,_ZN6optikg10MainWindow18qt_static_metacallEP7QObjectN11QMetaObject4CallEiPPv
FNDA:0,_ZNK6optikg10MainWindow10metaObjectEv
FNDA:0,_ZN6optikg10MainWindow11qt_metacastEPKc
FNDA:0,_ZN6optikg10MainWindow11qt_metacallEN11QMetaObject4CallEiPPv
FNF:4
FNH:0
DA:124,0
DA:126,0
DA:127,0
DA:128,0
DA:129,0
DA:130,0
DA:131,0
DA:132,0
DA:133,0
DA:134,0
DA:135,0
DA:136,0
DA:137,0
DA:138,0
DA:139,0
DA:140,0
DA:141,0
DA:142,0
DA:143,0
DA:144,0
DA:147,0
DA:148,0
DA:149,0
DA:150,0
DA:151,0
DA:152,0
DA:153,0
DA:154,0
DA:156,0
DA:159,0
DA:161,0
DA:163,0
DA:166,0
DA:168,0
DA:169,0
DA:170,0
DA:171,0
DA:174,0
DA:176,0
DA:177,0
DA:178,0
DA:179,0
DA:180,0
DA:181,0
DA:182,0
DA:184,0
DA:185,0
DA:186,0
DA:187,0
DA:189,0
LF:50
LH:0
end_of_record
TN:
SF:/home/fed/Documents/clion-workspace/qt-try/build/tests/test_reliability_autogen/RF5KSEWXUK/moc_resulttreewidget.cpp
FN:101,107,_ZN6optikg16ResultTreeWidget11qt_metacastEPKc
FN:109,125,_ZN6optikg16ResultTreeWidget11qt_metacallEN11QMetaObject4CallEiPPv
FN:128,131,_ZN6optikg16ResultTreeWidget13entityClickedERK7QStringS3_
FN:134,137,_ZN6optikg16ResultTreeWidget13tripleClickedERKNS_6TripleE
FN:78,94,_ZN6optikg16ResultTreeWidget18qt_static_metacallEP7QObjectN11QMetaObject4CallEiPPv
FN:96,99,_ZNK6optikg16ResultTreeWidget10metaObjectEv
FNDA:0,_ZN6optikg16ResultTreeWidget11qt_metacastEPKc
FNDA:0,_ZN6optikg16ResultTreeWidget11qt_metacallEN11QMetaObject4CallEiPPv
FNDA:0,_ZN6optikg16ResultTreeWidget13entityClickedERK7QStringS3_
FNDA:0,_ZN6optikg16ResultTreeWidget13tripleClickedERKNS_6TripleE
FNDA:0,_ZN6optikg16ResultTreeWidget18qt_static_metacallEP7QObjectN11QMetaObject4CallEiPPv
FNDA:0,_ZNK6optikg16ResultTreeWidget10metaObjectEv
FNF:6
FNH:0
DA:78,0
DA:80,0
DA:81,0
DA:82,0
DA:83,0
DA:84,0
DA:85,0
DA:88,0
DA:89,0
DA:90,0
DA:91,0
DA:92,0
DA:96,0
DA:98,0
DA:101,0
DA:103,0
DA:104,0
DA:105,0
DA:106,0
DA:109,0
DA:111,0
DA:112,0
DA:113,0
DA:114,0
DA:115,0
DA:116,0
DA:117,0
DA:119,0
DA:120,0
DA:121,0
DA:122,0
DA:124,0
DA:128,0
DA:130,0
DA:131,0
DA:134,0
DA:136,0
DA:137,0
LF:38
LH:0
end_of_record
TN:
SF:/home/fed/Documents/clion-workspace/qt-try/build/tests/test_reliability_autogen/RF5KSEWXUK/moc_settingsdialog.cpp
FN:104,110,_ZN6optikg14SettingsDialog11qt_metacastEPKc
FN:112,128,_ZN6optikg14SettingsDialog11qt_metacallEN11QMetaObject4CallEiPPv
FN:82,97,_ZN6optikg14SettingsDialog18qt_static_metacallEP7QObjectN11QMetaObject4CallEiPPv
FN:99,102,_ZNK6optikg14SettingsDialog10metaObjectEv
FNDA:0,_ZN6optikg14SettingsDialog11qt_metacastEPKc
FNDA:0,_ZN6optikg14SettingsDialog11qt_metacallEN11QMetaObject4CallEiPPv
FNDA:0,_ZN6optikg14SettingsDialog18qt_static_metacallEP7QObjectN11QMetaObject4CallEiPPv
FNDA:0,_ZNK6optikg14SettingsDialog10metaObjectEv
FNF:4
FNH:0
DA:82,0
DA:84,0
DA:85,0
DA:86,0
DA:87,0
DA:88,0
DA:89,0
DA:90,0
DA:91,0
DA:92,0
DA:93,0
DA:97,0
DA:99,0
DA:101,0
DA:104,0
DA:106,0
DA:107,0
DA:108,0
DA:109,0
DA:112,0
DA:114,0
DA:115,0
DA:116,0
DA:117,0
DA:118,0
DA:119,0
DA:120,0
DA:122,0
DA:123,0
DA:124,0
DA:125,0
DA:127,0
LF:32
LH:0
end_of_record
TN:
SF:/home/fed/Documents/clion-workspace/qt-try/build/tests/test_reliability_autogen/VTM74X6NYQ/moc_databasemanager.cpp
FN:104,120,_ZN6optikg15DatabaseManager11qt_metacallEN11QMetaObject4CallEiPPv
FN:123,126,_ZN6optikg15DatabaseManager15databaseChangedEv
FN:129,132,_ZN6optikg15DatabaseManager13errorOccurredERK7QString
FN:73,89,_ZN6optikg15DatabaseManager18qt_static_metacallEP7QObjectN11QMetaObject4CallEiPPv
FN:91,94,_ZNK6optikg15DatabaseManager10metaObjectEv
FN:96,102,_ZN6optikg15DatabaseManager11qt_metacastEPKc
FNDA:0,_ZN6optikg15DatabaseManager11qt_metacallEN11QMetaObject4CallEiPPv
FNDA:96,_ZN6optikg15DatabaseManager15databaseChangedEv
FNDA:0,_ZN6optikg15DatabaseManager13errorOccurredERK7QString
FNDA:0,_ZN6optikg15DatabaseManager18qt_static_metacallEP7QObjectN11QMetaObject4CallEiPPv
FNDA:0,_ZNK6optikg15DatabaseManager10metaObjectEv
FNDA:0,_ZN6optikg15DatabaseManager11qt_metacastEPKc
FNF:6
FNH:1
DA:73,0
DA:75,0
DA:76,0
DA:77,0
DA:78,0
DA:79,0
DA:80,0
DA:83,0
DA:84,0
DA:85,0
DA:86,0
DA:87,0
DA:91,0
DA:93,0
DA:96,0
DA:98,0
DA:99,0
DA:100,0
DA:101,0
DA:104,0
DA:106,0
DA:107,0
DA:108,0
DA:109,0
DA:110,0
DA:111,0
DA:112,0
DA:114,0
DA:115,0
DA:116,0
DA:117,0
DA:119,0
DA:123,96
DA:125,96
DA:126,96
DA:129,0
DA:131,0
DA:132,0
LF:38
LH:3
end_of_record
TN:
SF:/home/fed/Documents/clion-workspace/qt-try/build/tests/test_reliability_autogen/include/test_reliability.moc
FN:118,121,_ZNK15TestReliability10metaObjectEv
FN:123,129,_ZN15TestReliability11qt_metacastEPKc
FN:131,147,_ZN15TestReliability11qt_metacallEN11QMetaObject4CallEiPPv
FN:96,116,_ZN15TestReliability18qt_static_metacallEP7QObjectN11QMetaObject4CallEiPPv
FNDA:34,_ZNK15TestReliability10metaObjectEv
FNDA:0,_ZN15TestReliability11qt_metacastEPKc
FNDA:0,_ZN15TestReliability11qt_metacallEN11QMetaObject4CallEiPPv
FNDA:22,_ZN15TestReliability18qt_static_metacallEP7QObjectN11QMetaObject4CallEiPPv
FNF:4
FNH:2
DA:96,22
DA:98,22
DA:99,22
DA:100,22
DA:101,2
DA:102,2
DA:103,2
DA:104,2
DA:105,2
DA:106,2
DA:107,2
DA:108,2
DA:109,2
DA:110,2
DA:111,2
DA:112,22
DA:116,22
DA:118,34
DA:120,34
DA:123,0
DA:125,0
DA:126,0
DA:127,0
DA:128,0
DA:131,0
DA:133,0
DA:134,0
DA:135,0
DA:136,0
DA:137,0
DA:138,0
DA:139,0
DA:141,0
DA:142,0
DA:143,0
DA:144,0
DA:146,0
LF:37
LH:19
end_of_record
TN:
SF:/home/fed/Documents/clion-workspace/qt-try/build/tests/test_reliability_autogen/include/ui_mainwindow.h
FN:31,56,_ZN13Ui_MainWindow7setupUiEP11QMainWindow
FN:58,61,_ZN13Ui_MainWindow13retranslateUiEP11QMainWindow
FNDA:0,_ZN13Ui_MainWindow7setupUiEP11QMainWindow
FNDA:0,_ZN13Ui_MainWindow13retranslateUiEP11QMainWindow
FNF:2
FNH:0
DA:31,0
DA:33,0
DA:34,0
DA:35,0
DA:36,0
DA:37,0
DA:38,0
DA:39,0
DA:40,0
DA:41,0
DA:42,0
DA:43,0
DA:44,0
DA:45,0
DA:46,0
DA:47,0
DA:48,0
DA:49,0
DA:50,0
DA:51,0
DA:53,0
DA:55,0
DA:56,0
DA:58,0
DA:60,0
DA:61,0
LF:26
LH:0
end_of_record
TN:
SF:/home/fed/Documents/clion-workspace/qt-try/include/optikg/datamodel.h
FN:117,120,_ZN6optikg9GraphNodeC2ERKNS_6EntityEdd
FN:132,134,_ZN6optikg9GraphEdgeC2ERK7QStringS3_S3_f
FN:17,19,_ZN6optikg5qHashENS_10EntityTypeEm
FN:42,42,_ZN6optikg6EntityC2Ev
FN:44,46,_ZN6optikg6EntityC2ERK7QStringNS_10EntityTypeEf
FN:65,65,_ZN6optikg6TripleC2Ev
FN:67,69,_ZN6optikg6TripleC2ERKNS_6EntityES3_RK7QStringf
FN:89,89,_ZN6optikg16ExtractionRecordC2Ev
FN:91,103,_ZN6optikg16ExtractionRecordC2ERK7QStringRK5QListINS_6TripleEEi
FNDA:292,_ZN6optikg9GraphNodeC2ERKNS_6EntityEdd
FNDA:109,_ZN6optikg9GraphEdgeC2ERK7QStringS3_S3_f
FNDA:98,_ZN6optikg5qHashENS_10EntityTypeEm
FNDA:0,_ZN6optikg6EntityC2Ev
FNDA:11652,_ZN6optikg6EntityC2ERK7QStringNS_10EntityTypeEf
FNDA:0,_ZN6optikg6TripleC2Ev
FNDA:5675,_ZN6optikg6TripleC2ERKNS_6EntityES3_RK7QStringf
FNDA:264,_ZN6optikg16ExtractionRecordC2Ev
FNDA:2156,_ZN6optikg16ExtractionRecordC2ERK7QStringRK5QListINS_6TripleEEi
FNF:9
FNH:7
DA:17,98
DA:18,98
DA:42,0
DA:44,11652
DA:45,11652
DA:46,11652
DA:65,0
DA:67,5675
DA:68,5675
DA:69,5675
DA:89,264
DA:91,2156
DA:92,2156
DA:93,2156
DA:94,2156
DA:95,16
DA:96,36
DA:97,20
DA:99,16
DA:101,2156
DA:102,2156
DA:103,2156
DA:117,292
DA:118,292
DA:119,292
DA:120,292
DA:132,109
DA:133,109
DA:134,109
LF:29
LH:27
end_of_record
TN:
SF:/home/fed/Documents/clion-workspace/qt-try/src/core/batchprocessor.cpp
FN:101,106,_ZN6optikg14BatchProcessorC2EP7QObject
FN:108,112,_ZN6optikg14BatchProcessorD0Ev
FN:108,112,_ZN6optikg14BatchProcessorD2Ev
FN:114,116,_ZN6optikg14BatchProcessor8setFilesERK5QListI7QStringE
FN:118,120,_ZN6optikg14BatchProcessor19setJsonContentFieldERK7QString
FN:122,124,_ZN6optikg14BatchProcessor19setCsvContentColumnERK7QString
FN:126,128,_ZN6optikg14BatchProcessor14setCsvEncodingERK7QString
FN:130,132,_ZN6optikg14BatchProcessor12setThresholdEf
FN:134,136,_ZN6optikg14BatchProcessor12setModelPathERK7QString
FN:138,140,_ZN6optikg14BatchProcessor4stopEv
FN:142,144,_ZNK6optikg14BatchProcessor10getResultsEv
FN:146,288,_ZN6optikg14BatchProcessor3runEv
FN:292,355,_ZN6optikg14BatchProcessor17processSingleTextERK7QStringfS3_S3_R10QAtomicInti
FN:31,34,_ZN6optikgL16getEngineStorageEv
FN:359,518,_ZN6optikg14BatchProcessor15processJsonFileERK7QStringPNS_15InferenceEngineE
FN:37,40,_ZN6optikgL17getModelLoadMutexEv
FN:43,46,_ZN6optikgL21getModelLoadAttemptedEv
FN:520,617,_ZN6optikg14BatchProcessor14processCsvFileERK7QStringPNS_15InferenceEngineE
FN:53,99,_ZN6optikgL12parseCsvLineERK7QString
FN:619,669,_ZN6optikg14BatchProcessor15extractFromTextERK7QStringPNS_15InferenceEngineEi
FN:673,747,_ZN6optikg14BatchProcessor12scanJsonFileERK7QString
FN:749,778,_ZN6optikg14BatchProcessor11scanCsvFileERK7QString
FN:782,895,_ZN6optikg14BatchProcessor27processJsonFileWithProgressERK7QStringPNS_15InferenceEngineERii
FN:873,875,_ZZN6optikg14BatchProcessor27processJsonFileWithProgressERK7QStringPNS_15InferenceEngineERiiENKUlS3_E_clES3_
FN:897,1006,_ZN6optikg14BatchProcessor26processCsvFileWithProgressERK7QStringPNS_15InferenceEngineERii
FN:983,985,_ZZN6optikg14BatchProcessor26processCsvFileWithProgressERK7QStringPNS_15InferenceEngineERiiENKUlS3_E_clES3_
FNDA:62,_ZN6optikg14BatchProcessorC2EP7QObject
FNDA:0,_ZN6optikg14BatchProcessorD0Ev
FNDA:62,_ZN6optikg14BatchProcessorD2Ev
FNDA:44,_ZN6optikg14BatchProcessor8setFilesERK5QListI7QStringE
FNDA:34,_ZN6optikg14BatchProcessor19setJsonContentFieldERK7QString
FNDA:6,_ZN6optikg14BatchProcessor19setCsvContentColumnERK7QString
FNDA:2,_ZN6optikg14BatchProcessor14setCsvEncodingERK7QString
FNDA:4,_ZN6optikg14BatchProcessor12setThresholdEf
FNDA:34,_ZN6optikg14BatchProcessor12setModelPathERK7QString
FNDA:68,_ZN6optikg14BatchProcessor4stopEv
FNDA:10,_ZNK6optikg14BatchProcessor10getResultsEv
FNDA:46,_ZN6optikg14BatchProcessor3runEv
FNDA:0,_ZN6optikg14BatchProcessor17processSingleTextERK7QStringfS3_S3_R10QAtomicInti
FNDA:0,_ZN6optikgL16getEngineStorageEv
FNDA:0,_ZN6optikg14BatchProcessor15processJsonFileERK7QStringPNS_15InferenceEngineE
FNDA:0,_ZN6optikgL17getModelLoadMutexEv
FNDA:70,_ZN6optikgL21getModelLoadAttemptedEv
FNDA:0,_ZN6optikg14BatchProcessor14processCsvFileERK7QStringPNS_15InferenceEngineE
FNDA:0,_ZN6optikgL12parseCsvLineERK7QString
FNDA:0,_ZN6optikg14BatchProcessor15extractFromTextERK7QStringPNS_15InferenceEngineEi
FNDA:48,_ZN6optikg14BatchProcessor12scanJsonFileERK7QString
FNDA:4,_ZN6optikg14BatchProcessor11scanCsvFileERK7QString
FNDA:0,_ZN6optikg14BatchProcessor27processJsonFileWithProgressERK7QStringPNS_15InferenceEngineERii
FNDA:0,_ZZN6optikg14BatchProcessor27processJsonFileWithProgressERK7QStringPNS_15InferenceEngineERiiENKUlS3_E_clES3_
FNDA:0,_ZN6optikg14BatchProcessor26processCsvFileWithProgressERK7QStringPNS_15InferenceEngineERii
FNDA:0,_ZZN6optikg14BatchProcessor26processCsvFileWithProgressERK7QStringPNS_15InferenceEngineERiiENKUlS3_E_clES3_
FNF:26
FNH:14
DA:31,0
DA:32,0
DA:33,0
DA:37,0
DA:38,0
DA:39,0
DA:43,70
DA:45,70
DA:53,0
DA:54,0
DA:55,0
DA:56,0
DA:58,0
DA:59,0
DA:61,0
DA:62,0
DA:64,0
DA:65,0
DA:67,0
DA:69,0
DA:71,0
DA:72,0
DA:74,0
DA:79,0
DA:82,0
DA:83,0
DA:84,0
DA:85,0
DA:89,0
DA:90,0
DA:92,0
DA:95,0
DA:98,0
DA:99,0
DA:101,62
DA:103,62
DA:105,62
DA:106,62
DA:108,62
DA:109,62
DA:110,62
DA:111,62
DA:112,62
DA:114,44
DA:115,44
DA:116,44
DA:118,34
DA:119,34
DA:120,34
DA:122,6
DA:123,6
DA:124,6
DA:126,2
DA:127,2
DA:128,2
DA:130,4
DA:131,4
DA:132,4
DA:134,34
DA:135,34
DA:136,34
DA:138,68
DA:139,68
DA:140,68
DA:142,10
DA:143,10
DA:146,46
DA:147,46
DA:148,46
DA:150,46
DA:152,46
DA:153,46
DA:154,46
DA:155,46
DA:156,46
DA:158,46
DA:159,46
DA:160,92
DA:161,92
DA:162,92
DA:163,92
DA:164,46
DA:167,46
DA:168,46
DA:170,46
DA:172,100
DA:173,54
DA:174,0
DA:175,0
DA:178,54
DA:179,54
DA:180,54
DA:183,54
DA:184,54
DA:185,54
DA:186,48
DA:187,6
DA:188,4
DA:191,54
DA:192,54
DA:194,162
DA:195,54
DA:197,46
DA:198,92
DA:200,46
DA:201,22
DA:202,22
DA:203,22
DA:207,24
DA:208,24
DA:211,24
DA:212,0
DA:213,0
DA:216,24
DA:217,24
DA:218,48
DA:219,24
DA:221,48
DA:222,24
DA:223,24
DA:224,24
DA:226,0
DA:227,0
DA:228,0
DA:229,0
DA:232,0
DA:236,24
DA:238,52
DA:239,28
DA:240,0
DA:241,0
DA:244,28
DA:245,28
DA:246,28
DA:248,112
DA:249,56
DA:252,28
DA:253,28
DA:255,28
DA:256,0
DA:257,28
DA:258,0
DA:260,28
DA:261,28
DA:265,28
DA:266,0
DA:268,28
DA:269,28
DA:272,28
DA:273,28
DA:275,56
DA:276,112
DA:277,28
DA:279,24
DA:280,24
DA:281,48
DA:282,48
DA:283,48
DA:284,48
DA:285,24
DA:287,24
DA:288,46
DA:292,0
DA:297,0
DA:298,0
DA:301,0
DA:302,0
DA:305,0
DA:306,0
DA:308,0
DA:309,0
DA:311,0
DA:312,0
DA:316,0
DA:319,0
DA:320,0
DA:321,0
DA:322,0
DA:323,0
DA:324,0
DA:325,0
DA:326,0
DA:328,0
DA:330,0
DA:332,0
DA:333,0
DA:334,0
DA:335,0
DA:338,0
DA:339,0
DA:340,0
DA:344,0
DA:347,0
DA:350,0
DA:351,0
DA:354,0
DA:355,0
DA:359,0
DA:360,0
DA:361,0
DA:362,0
DA:365,0
DA:366,0
DA:367,0
DA:368,0
DA:371,0
DA:372,0
DA:375,0
DA:376,0
DA:379,0
DA:381,0
DA:383,0
DA:384,0
DA:386,0
DA:387,0
DA:389,0
DA:390,0
DA:391,0
DA:394,0
DA:395,0
DA:398,0
DA:399,0
DA:401,0
DA:402,0
DA:404,0
DA:405,0
DA:406,0
DA:407,0
DA:408,0
DA:410,0
DA:413,0
DA:414,0
DA:417,0
DA:420,0
DA:421,0
DA:422,0
DA:425,0
DA:426,0
DA:428,0
DA:430,0
DA:431,0
DA:434,0
DA:435,0
DA:436,0
DA:437,0
DA:438,0
DA:439,0
DA:440,0
DA:441,0
DA:442,0
DA:443,0
DA:445,0
DA:446,0
DA:447,0
DA:448,0
DA:449,0
DA:452,0
DA:454,0
DA:455,0
DA:456,0
DA:458,0
DA:459,0
DA:461,0
DA:462,0
DA:463,0
DA:464,0
DA:465,0
DA:466,0
DA:467,0
DA:469,0
DA:471,0
DA:473,0
DA:474,0
DA:477,0
DA:478,0
DA:479,0
DA:480,0
DA:483,0
DA:485,0
DA:486,0
DA:487,0
DA:488,0
DA:491,0
DA:492,0
DA:493,0
DA:494,0
DA:495,0
DA:498,0
DA:501,0
DA:502,0
DA:504,0
DA:508,0
DA:509,0
DA:510,0
DA:511,0
DA:512,0
DA:514,0
DA:515,0
DA:517,0
DA:518,0
DA:520,0
DA:521,0
DA:522,0
DA:523,0
DA:526,0
DA:527,0
DA:528,0
DA:529,0
DA:533,0
DA:534,0
DA:535,0
DA:536,0
DA:537,0
DA:538,0
DA:540,0
DA:543,0
DA:546,0
DA:547,0
DA:548,0
DA:549,0
DA:550,0
DA:554,0
DA:555,0
DA:557,0
DA:558,0
DA:559,0
DA:560,0
DA:561,0
DA:563,0
DA:565,0
DA:566,0
DA:567,0
DA:568,0
DA:569,0
DA:570,0
DA:574,0
DA:575,0
DA:577,0
DA:578,0
DA:579,0
DA:581,0
DA:582,0
DA:586,0
DA:588,0
DA:589,0
DA:590,0
DA:591,0
DA:593,0
DA:594,0
DA:596,0
DA:599,0
DA:600,0
DA:601,0
DA:602,0
DA:605,0
DA:608,0
DA:609,0
DA:610,0
DA:611,0
DA:613,0
DA:614,0
DA:616,0
DA:617,0
DA:619,0
DA:620,0
DA:623,0
DA:624,0
DA:625,0
DA:628,0
DA:629,0
DA:630,0
DA:633,0
DA:634,0
DA:635,0
DA:638,0
DA:639,0
DA:640,0
DA:643,0
DA:644,0
DA:645,0
DA:648,0
DA:650,0
DA:652,0
DA:653,0
DA:655,0
DA:656,0
DA:657,0
DA:658,0
DA:659,0
DA:660,0
DA:661,0
DA:663,0
DA:664,0
DA:668,0
DA:669,0
DA:673,48
DA:674,96
DA:675,48
DA:676,48
DA:677,40
DA:678,40
DA:679,20
DA:682,28
DA:683,28
DA:684,56
DA:687,28
DA:688,28
DA:690,28
DA:691,24
DA:692,24
DA:693,22
DA:694,44
DA:695,22
DA:696,2
DA:697,2
DA:698,2
DA:700,14
DA:701,8
DA:702,6
DA:703,0
DA:704,0
DA:705,0
DA:709,2
DA:710,0
DA:711,0
DA:713,4
DA:714,4
DA:715,2
DA:716,2
DA:720,8
DA:721,4
DA:722,4
DA:723,4
DA:724,4
DA:725,12
DA:726,8
DA:727,8
DA:728,8
DA:730,8
DA:731,8
DA:732,8
DA:733,6
DA:734,6
DA:736,6
DA:739,8
DA:740,8
DA:743,4
DA:744,4
DA:746,4
DA:747,48
DA:749,4
DA:750,8
DA:751,4
DA:752,4
DA:753,0
DA:754,0
DA:755,0
DA:758,4
DA:759,4
DA:760,8
DA:761,4
DA:762,0
DA:763,0
DA:764,0
DA:767,4
DA:768,14
DA:769,10
DA:770,10
DA:771,10
DA:773,10
DA:775,4
DA:776,8
DA:777,4
DA:778,4
DA:782,0
DA:788,0
DA:789,0
DA:790,0
DA:792,0
DA:793,0
DA:794,0
DA:795,0
DA:798,0
DA:799,0
DA:802,0
DA:803,0
DA:805,0
DA:807,0
DA:809,0
DA:810,0
DA:812,0
DA:813,0
DA:814,0
DA:816,0
DA:817,0
DA:818,0
DA:819,0
DA:820,0
DA:821,0
DA:822,0
DA:823,0
DA:825,0
DA:826,0
DA:827,0
DA:828,0
DA:829,0
DA:830,0
DA:831,0
DA:832,0
DA:833,0
DA:834,0
DA:835,0
DA:836,0
DA:839,0
DA:840,0
DA:842,0
DA:843,0
DA:844,0
DA:845,0
DA:846,0
DA:847,0
DA:848,0
DA:850,0
DA:854,0
DA:855,0
DA:856,0
DA:857,0
DA:858,0
DA:862,0
DA:863,0
DA:866,0
DA:869,0
DA:870,0
DA:873,0
DA:874,0
DA:875,0
DA:878,0
DA:879,0
DA:880,0
DA:883,0
DA:884,0
DA:885,0
DA:889,0
DA:891,0
DA:892,0
DA:894,0
DA:895,0
DA:897,0
DA:903,0
DA:904,0
DA:905,0
DA:907,0
DA:908,0
DA:909,0
DA:910,0
DA:914,0
DA:915,0
DA:916,0
DA:917,0
DA:918,0
DA:919,0
DA:921,0
DA:924,0
DA:926,0
DA:927,0
DA:928,0
DA:929,0
DA:930,0
DA:934,0
DA:935,0
DA:936,0
DA:937,0
DA:938,0
DA:939,0
DA:943,0
DA:944,0
DA:945,0
DA:946,0
DA:947,0
DA:948,0
DA:952,0
DA:953,0
DA:954,0
DA:955,0
DA:957,0
DA:958,0
DA:959,0
DA:960,0
DA:961,0
DA:963,0
DA:964,0
DA:966,0
DA:968,0
DA:969,0
DA:970,0
DA:971,0
DA:975,0
DA:976,0
DA:979,0
DA:980,0
DA:983,0
DA:984,0
DA:985,0
DA:988,0
DA:989,0
DA:990,0
DA:993,0
DA:994,0
DA:995,0
DA:999,0
DA:1000,0
DA:1002,0
DA:1003,0
DA:1005,0
DA:1006,0
LF:615
LH:184
end_of_record
TN:
SF:/home/fed/Documents/clion-workspace/qt-try/src/core/batchprocessor.h
FN:196,196,_ZN11QMetaTypeIdIN6optikg17FileProcessResultEE14qt_metatype_idEv
FN:29,29,_ZN6optikg17FileProcessResultC2Ev
FN:30,30,_ZN6optikg17FileProcessResultC2ERK7QString
FN:44,44,_ZN6optikg14BatchProcessor2trEPKcS2_i
FNDA:6,_ZN11QMetaTypeIdIN6optikg17FileProcessResultEE14qt_metatype_idEv
FNDA:0,_ZN6optikg17FileProcessResultC2Ev
FNDA:30,_ZN6optikg17FileProcessResultC2ERK7QString
FNDA:122,_ZN6optikg14BatchProcessor2trEPKcS2_i
FNF:4
FNH:3
DA:29,0
DA:30,30
DA:44,122
DA:196,6
LF:4
LH:3
end_of_record
TN:
SF:/home/fed/Documents/clion-workspace/qt-try/src/core/inferenceengine.cpp
FN:138,155,_ZN6optikg15InferenceEngine13loadTokenizerERK7QString
FN:157,206,_ZN6optikg15InferenceEngine12loadMetadataERK7QString
FN:208,218,_ZN6optikg15InferenceEngine5inferERK7QString
FN:227,476,_ZN6optikg15InferenceEngine12runInferenceERK7QString
FN:27,27,_ZN6optikg15InferenceEngineC2Ev
FN:29,31,_ZN6optikg15InferenceEngineD2Ev
FN:33,35,_ZN6optikg15InferenceEngine6unloadEv
FN:37,42,_ZN6optikg15InferenceEngine7cleanupEv
FN:395,402,_ZZN6optikg15InferenceEngine12runInferenceERK7QStringENKUlPfiiiE_clES4_iii
FN:44,136,_ZN6optikg15InferenceEngine9loadModelERK7QString
FN:441,457,_ZZN6optikg15InferenceEngine12runInferenceERK7QStringENKUlS3_E_clES3_
FN:478,611,_ZN6optikg15InferenceEngine13inferLongTextERK7QStringii
FN:535,542,_ZZN6optikg15InferenceEngine13inferLongTextERK7QStringiiENKUlS3_E_clES3_
FN:545,558,_ZZN6optikg15InferenceEngine13inferLongTextERK7QStringiiENKUlS3_S3_E_clES3_S3_
FNDA:55,_ZN6optikg15InferenceEngine13loadTokenizerERK7QString
FNDA:55,_ZN6optikg15InferenceEngine12loadMetadataERK7QString
FNDA:249,_ZN6optikg15InferenceEngine5inferERK7QString
FNDA:245,_ZN6optikg15InferenceEngine12runInferenceERK7QString
FNDA:89,_ZN6optikg15InferenceEngineC2Ev
FNDA:89,_ZN6optikg15InferenceEngineD2Ev
FNDA:25,_ZN6optikg15InferenceEngine6unloadEv
FNDA:116,_ZN6optikg15InferenceEngine7cleanupEv
FNDA:6565996,_ZZN6optikg15InferenceEngine12runInferenceERK7QStringENKUlPfiiiE_clES4_iii
FNDA:91,_ZN6optikg15InferenceEngine9loadModelERK7QString
FNDA:11302,_ZZN6optikg15InferenceEngine12runInferenceERK7QStringENKUlS3_E_clES3_
FNDA:3,_ZN6optikg15InferenceEngine13inferLongTextERK7QStringii
FNDA:1318,_ZZN6optikg15InferenceEngine13inferLongTextERK7QStringiiENKUlS3_E_clES3_
FNDA:774,_ZZN6optikg15InferenceEngine13inferLongTextERK7QStringiiENKUlS3_S3_E_clES3_S3_
FNF:14
FNH:14
DA:27,89
DA:29,89
DA:30,89
DA:31,89
DA:33,25
DA:34,25
DA:35,25
DA:37,116
DA:38,116
DA:39,116
DA:40,116
DA:41,116
DA:42,116
DA:44,91
DA:45,91
DA:46,4
DA:47,4
DA:50,87
DA:52,2
DA:56,85
DA:57,0
DA:60,85
DA:61,170
DA:63,85
DA:64,85
DA:65,56
DA:66,28
DA:71,57
DA:73,57
DA:74,57
DA:75,57
DA:76,57
DA:82,57
DA:83,57
DA:86,57
DA:89,55
DA:90,55
DA:91,55
DA:92,0
DA:93,0
DA:94,0
DA:98,55
DA:99,55
DA:100,55
DA:101,0
DA:102,0
DA:103,0
DA:104,0
DA:105,0
DA:106,0
DA:107,0
DA:108,0
DA:109,0
DA:110,0
DA:111,0
DA:112,0
DA:113,0
DA:116,0
DA:117,0
DA:120,55
DA:121,55
DA:122,165
DA:124,55
DA:125,55
DA:127,61
DA:128,4
DA:129,2
DA:130,2
DA:131,2
DA:132,0
DA:133,0
DA:134,0
DA:135,0
DA:136,85
DA:138,55
DA:139,55
DA:140,55
DA:141,0
DA:142,0
DA:144,55
DA:145,55
DA:148,55
DA:149,110
DA:150,55
DA:151,0
DA:152,0
DA:153,0
DA:154,0
DA:155,55
DA:157,55
DA:158,55
DA:159,55
DA:160,0
DA:161,0
DA:164,55
DA:165,55
DA:167,55
DA:168,55
DA:169,0
DA:170,0
DA:173,55
DA:176,55
DA:177,0
DA:182,55
DA:183,55
DA:185,55
DA:186,55
DA:189,55
DA:190,0
DA:191,0
DA:194,55
DA:195,275
DA:196,220
DA:197,220
DA:198,220
DA:199,220
DA:201,110
DA:202,165
DA:203,165
DA:204,110
DA:205,55
DA:206,55
DA:208,249
DA:209,249
DA:210,4
DA:211,4
DA:214,490
DA:215,245
DA:216,490
DA:217,245
DA:218,245
DA:227,245
DA:228,245
DA:229,0
DA:230,0
DA:232,245
DA:233,0
DA:234,0
DA:237,245
DA:239,245
DA:240,245
DA:241,8
DA:245,237
DA:246,237
DA:247,6
DA:249,6
DA:250,4
DA:252,36
DA:253,12
DA:254,10
DA:255,2
DA:256,4
DA:257,2
DA:260,4
DA:261,2
DA:263,6
DA:265,237
DA:266,0
DA:268,237
DA:269,237
DA:270,0
DA:271,0
DA:273,711
DA:276,237
DA:277,474
DA:278,237
DA:280,2
DA:281,2
DA:282,2
DA:283,6
DA:286,2
DA:288,2
DA:289,2
DA:290,4
DA:291,2
DA:293,2
DA:295,2
DA:296,0
DA:299,2
DA:301,4
DA:302,2
DA:304,4
DA:306,2
DA:308,474
DA:309,474
DA:310,474
DA:312,237
DA:313,237
DA:314,237
DA:315,16441
DA:316,15967
DA:318,237
DA:319,237
DA:320,105140
DA:321,104903
DA:324,237
DA:325,0
DA:326,0
DA:330,237
DA:331,16678
DA:332,16441
DA:336,237
DA:337,474
DA:340,237
DA:342,237
DA:344,237
DA:345,237
DA:346,237
DA:347,237
DA:348,237
DA:349,237
DA:350,237
DA:352,237
DA:353,237
DA:354,237
DA:356,237
DA:357,474
DA:359,237
DA:362,474
DA:365,237
DA:366,0
DA:367,0
DA:370,237
DA:371,0
DA:372,0
DA:374,237
DA:375,237
DA:376,0
DA:377,0
DA:379,237
DA:380,237
DA:381,237
DA:382,237
DA:383,237
DA:386,237
DA:387,0
DA:388,0
DA:391,237
DA:392,237
DA:393,237
DA:395,6565996
DA:396,6565996
DA:397,160832
DA:398,40208
DA:400,6525788
DA:401,6525788
DA:402,237
DA:405,237
DA:406,16678
DA:407,3259231
DA:408,3242790
DA:409,3242790
DA:410,3242790
DA:411,726
DA:413,3242790
DA:414,566
DA:420,237
DA:421,1185
DA:422,4800
DA:423,46016
DA:424,40208
DA:425,40208
DA:426,40208
DA:427,11302
DA:428,5651
DA:429,5651
DA:432,0
DA:433,22604
DA:435,0
DA:436,22604
DA:437,5651
DA:438,5651
DA:441,11302
DA:442,11302
DA:443,92982
DA:444,81680
DA:445,25973
DA:446,25973
DA:448,25973
DA:449,25973
DA:450,25973
DA:451,21941
DA:454,59739
DA:456,11302
DA:457,0
DA:459,5651
DA:460,5651
DA:462,5651
DA:464,5651
DA:465,11302
DA:466,5651
DA:467,5651
DA:468,5651
DA:469,5651
DA:474,474
DA:475,237
DA:476,245
DA:478,3
DA:479,3
DA:480,0
DA:484,3
DA:485,0
DA:488,6
DA:489,12
DA:491,3
DA:494,3
DA:495,24
DA:496,24
DA:499,24
DA:501,21
DA:502,21
DA:503,21
DA:507,24
DA:510,24
DA:511,48
DA:512,120
DA:514,24
DA:517,24
DA:518,3
DA:522,21
DA:523,21
DA:524,0
DA:528,63
DA:529,27
DA:532,3
DA:535,1318
DA:536,1318
DA:538,2636
DA:539,2636
DA:540,2636
DA:541,1318
DA:542,0
DA:545,774
DA:546,774
DA:547,119
DA:550,119
DA:551,119
DA:552,357
DA:553,238
DA:554,238
DA:557,119
DA:561,3
DA:562,3
DA:564,275
DA:565,272
DA:566,272
DA:567,272
DA:570,272
DA:572,272
DA:574,391
DA:575,387
DA:576,387
DA:577,387
DA:578,387
DA:581,387
DA:582,387
DA:583,387
DA:586,387
DA:587,268
DA:589,268
DA:590,5
DA:591,10
DA:592,20
DA:594,268
DA:596,923
DA:598,272
DA:599,4
DA:601,272
DA:603,3
DA:605,6
DA:606,6
DA:607,6
DA:608,6
DA:610,3
DA:611,3
LF:375
LH:314
end_of_record
TN:
SF:/home/fed/Documents/clion-workspace/qt-try/src/core/inferenceengine.h
FN:45,45,_ZNK6optikg15InferenceEngine13isModelLoadedEv
FN:51,51,_ZN6optikg15InferenceEngine12setThresholdEf
FNDA:16,_ZNK6optikg15InferenceEngine13isModelLoadedEv
FNDA:10,_ZN6optikg15InferenceEngine12setThresholdEf
FNF:2
FNH:2
DA:45,16
DA:51,10
LF:2
LH:2
end_of_record
TN:
SF:/home/fed/Documents/clion-workspace/qt-try/src/core/inferenceworker.cpp
FN:10,14,_ZN6optikg15InferenceWorkerC2EP7QObject
FN:16,20,_ZN6optikg15InferenceWorkerD0Ev
FN:16,20,_ZN6optikg15InferenceWorkerD2Ev
FN:22,24,_ZN6optikg15InferenceWorker7setTextERK7QString
FN:26,28,_ZN6optikg15InferenceWorker12setModelPathERK7QString
FN:30,32,_ZN6optikg15InferenceWorker12setThresholdEf
FN:34,36,_ZN6optikg15InferenceWorker4stopEv
FN:38,82,_ZN6optikg15InferenceWorker3runEv
FNDA:0,_ZN6optikg15InferenceWorkerC2EP7QObject
FNDA:0,_ZN6optikg15InferenceWorkerD0Ev
FNDA:0,_ZN6optikg15InferenceWorkerD2Ev
FNDA:0,_ZN6optikg15InferenceWorker7setTextERK7QString
FNDA:0,_ZN6optikg15InferenceWorker12setModelPathERK7QString
FNDA:0,_ZN6optikg15InferenceWorker12setThresholdEf
FNDA:0,_ZN6optikg15InferenceWorker4stopEv
FNDA:0,_ZN6optikg15InferenceWorker3runEv
FNF:8
FNH:0
DA:10,0
DA:12,0
DA:13,0
DA:14,0
DA:16,0
DA:17,0
DA:18,0
DA:19,0
DA:20,0
DA:22,0
DA:23,0
DA:24,0
DA:26,0
DA:27,0
DA:28,0
DA:30,0
DA:31,0
DA:32,0
DA:34,0
DA:35,0
DA:36,0
DA:38,0
DA:39,0
DA:40,0
DA:42,0
DA:45,0
DA:46,0
DA:47,0
DA:48,0
DA:50,0
DA:52,0
DA:54,0
DA:56,0
DA:57,0
DA:59,0
DA:61,0
DA:62,0
DA:63,0
DA:64,0
DA:66,0
DA:69,0
DA:70,0
DA:71,0
DA:72,0
DA:76,0
DA:78,0
DA:79,0
DA:81,0
DA:82,0
LF:49
LH:0
end_of_record
TN:
SF:/home/fed/Documents/clion-workspace/qt-try/src/core/inferenceworker.h
FN:13,13,_ZN6optikg15InferenceWorker2trEPKcS2_i
FNDA:0,_ZN6optikg15InferenceWorker2trEPKcS2_i
FNF:1
FNH:0
DA:13,0
LF:1
LH:0
end_of_record
TN:
SF:/home/fed/Documents/clion-workspace/qt-try/src/data/databasemanager.cpp
FN:113,139,_ZN6optikg15DatabaseManager28createExtractionRecordsTableEv
FN:141,165,_ZN6optikg15DatabaseManager19createEntitiesTableEv
FN:167,193,_ZN6optikg15DatabaseManager20createRelationsTableEv
FN:19,25,_ZN12_GLOBAL__N_1L15checkMainThreadERK7QString
FN:195,237,_ZN6optikg15DatabaseManager22insertExtractionRecordERKNS_16ExtractionRecordE
FN:239,312,_ZN6optikg15DatabaseManager11saveTriplesExRK5QListINS_6TripleEE
FN:30,33,_ZN6optikg15DatabaseManagerC2EP7QObject
FN:315,331,_ZN6optikg15DatabaseManager22deleteExtractionRecordEx
FN:333,371,_ZN6optikg15DatabaseManager23getAllExtractionRecordsEi
FN:35,37,_ZN6optikg15DatabaseManagerD0Ev
FN:35,37,_ZN6optikg15DatabaseManagerD2Ev
FN:373,409,_ZN6optikg15DatabaseManager22updateExtractionRecordERKNS_16ExtractionRecordE
FN:39,42,_ZN6optikg15DatabaseManager8instanceEv
FN:411,437,_ZN6optikg15DatabaseManager21deleteMultipleRecordsERK5QListIxE
FN:439,468,_ZN6optikg15DatabaseManager19getExtractionRecordEx
FN:44,89,_ZN6optikg15DatabaseManager10initializeERK7QString
FN:470,542,_ZN6optikg15DatabaseManager23searchExtractionRecordsERK7QStringRK9QDateTimeS6_ii
FN:544,554,_ZN6optikg15DatabaseManager14getRecordCountEv
FN:556,566,_ZN6optikg15DatabaseManager14getEntityCountEv
FN:568,578,_ZN6optikg15DatabaseManager16getRelationCountEv
FN:580,590,_ZN6optikg15DatabaseManager20getAverageConfidenceEv
FN:592,655,_ZN6optikg15DatabaseManager11loadTriplesEx
FN:657,753,_ZN6optikg15DatabaseManager14importFromJsonERK7QString
FN:755,818,_ZN6optikg15DatabaseManager12exportToJsonERK7QStringRK5QListIxE
FN:820,870,_ZN6optikg15DatabaseManager11exportToCsvERK7QStringRK5QListIxE
FN:873,902,_ZN6optikg15DatabaseManager21classifyDatabaseErrorERK7QString
FN:905,926,_ZN6optikg15DatabaseManager16executeWithRetryERKSt8functionIFbvEEiRK7QString
FN:91,95,_ZN6optikg15DatabaseManager5closeEv
FN:929,980,_ZN6optikg15DatabaseManager28retryInsertExtractionRecordsERK5QListINS_16ExtractionRecordEEi
FN:933,979,_ZZN6optikg15DatabaseManager28retryInsertExtractionRecordsERK5QListINS_16ExtractionRecordEEiENKUlvE_clEv
FN:97,111,_ZN6optikg15DatabaseManager12createTablesEv
FN:982,1066,_ZN6optikg15DatabaseManager23insertExtractionRecordsERK5QListINS_16ExtractionRecordEE
FNDA:153,_ZN6optikg15DatabaseManager28createExtractionRecordsTableEv
FNDA:153,_ZN6optikg15DatabaseManager19createEntitiesTableEv
FNDA:153,_ZN6optikg15DatabaseManager20createRelationsTableEv
FNDA:2419,_ZN12_GLOBAL__N_1L15checkMainThreadERK7QString
FNDA:2148,_ZN6optikg15DatabaseManager22insertExtractionRecordERKNS_16ExtractionRecordE
FNDA:16,_ZN6optikg15DatabaseManager11saveTriplesExRK5QListINS_6TripleEE
FNDA:10,_ZN6optikg15DatabaseManagerC2EP7QObject
FNDA:6,_ZN6optikg15DatabaseManager22deleteExtractionRecordEx
FNDA:38,_ZN6optikg15DatabaseManager23getAllExtractionRecordsEi
FNDA:0,_ZN6optikg15DatabaseManagerD0Ev
FNDA:10,_ZN6optikg15DatabaseManagerD2Ev
FNDA:0,_ZN6optikg15DatabaseManager22updateExtractionRecordERKNS_16ExtractionRecordE
FNDA:2546,_ZN6optikg15DatabaseManager8instanceEv
FNDA:4,_ZN6optikg15DatabaseManager21deleteMultipleRecordsERK5QListIxE
FNDA:10,_ZN6optikg15DatabaseManager19getExtractionRecordEx
FNDA:153,_ZN6optikg15DatabaseManager10initializeERK7QString
FNDA:12,_ZN6optikg15DatabaseManager23searchExtractionRecordsERK7QStringRK9QDateTimeS6_ii
FNDA:18,_ZN6optikg15DatabaseManager14getRecordCountEv
FNDA:10,_ZN6optikg15DatabaseManager14getEntityCountEv
FNDA:10,_ZN6optikg15DatabaseManager16getRelationCountEv
FNDA:2,_ZN6optikg15DatabaseManager20getAverageConfidenceEv
FNDA:258,_ZN6optikg15DatabaseManager11loadTriplesEx
FNDA:2,_ZN6optikg15DatabaseManager14importFromJsonERK7QString
FNDA:4,_ZN6optikg15DatabaseManager12exportToJsonERK7QStringRK5QListIxE
FNDA:2,_ZN6optikg15DatabaseManager11exportToCsvERK7QStringRK5QListIxE
FNDA:0,_ZN6optikg15DatabaseManager21classifyDatabaseErrorERK7QString
FNDA:0,_ZN6optikg15DatabaseManager16executeWithRetryERKSt8functionIFbvEEiRK7QString
FNDA:105,_ZN6optikg15DatabaseManager5closeEv
FNDA:0,_ZN6optikg15DatabaseManager28retryInsertExtractionRecordsERK5QListINS_16ExtractionRecordEEi
FNDA:0,_ZZN6optikg15DatabaseManager28retryInsertExtractionRecordsERK5QListINS_16ExtractionRecordEEiENKUlvE_clEv
FNDA:153,_ZN6optikg15DatabaseManager12createTablesEv
FNDA:4,_ZN6optikg15DatabaseManager23insertExtractionRecordsERK5QListINS_16ExtractionRecordEE
FNF:32
FNH:26
DA:19,2419
DA:20,2419
DA:21,0
DA:22,0
DA:24,2419
DA:30,10
DA:32,10
DA:33,10
DA:35,10
DA:36,10
DA:37,10
DA:39,2546
DA:40,2546
DA:41,2546
DA:44,153
DA:45,153
DA:46,0
DA:49,153
DA:50,0
DA:51,0
DA:54,153
DA:55,83
DA:58,153
DA:59,153
DA:61,32
DA:62,32
DA:63,32
DA:64,0
DA:66,32
DA:67,32
DA:69,153
DA:72,153
DA:73,153
DA:75,153
DA:76,0
DA:77,0
DA:81,153
DA:82,0
DA:83,0
DA:84,0
DA:87,306
DA:88,153
DA:89,153
DA:91,105
DA:92,105
DA:93,70
DA:95,105
DA:97,153
DA:98,153
DA:101,153
DA:102,153
DA:103,0
DA:106,153
DA:107,153
DA:108,153
DA:110,153
DA:111,153
DA:113,153
DA:114,153
DA:115,153
DA:129,153
DA:130,0
DA:131,0
DA:135,153
DA:136,153
DA:138,153
DA:139,153
DA:141,153
DA:142,153
DA:143,153
DA:156,153
DA:157,0
DA:158,0
DA:161,153
DA:162,153
DA:164,153
DA:165,153
DA:167,153
DA:168,153
DA:169,153
DA:184,153
DA:185,0
DA:186,0
DA:189,153
DA:190,153
DA:192,153
DA:193,153
DA:195,2148
DA:196,2148
DA:197,0
DA:200,2148
DA:201,0
DA:202,0
DA:205,2148
DA:206,2148
DA:212,2148
DA:213,2148
DA:214,2148
DA:215,2148
DA:216,2148
DA:217,2148
DA:218,2148
DA:219,2148
DA:221,2148
DA:222,0
DA:223,0
DA:226,2148
DA:229,2148
DA:230,14
DA:231,0
DA:235,2148
DA:236,2148
DA:237,2148
DA:239,16
DA:241,16
DA:243,34
DA:245,18
DA:246,18
DA:247,18
DA:248,18
DA:252,18
DA:253,18
DA:254,18
DA:255,18
DA:256,18
DA:257,18
DA:259,18
DA:260,0
DA:261,0
DA:262,0
DA:265,18
DA:266,18
DA:269,18
DA:270,18
DA:271,18
DA:272,18
DA:276,18
DA:277,18
DA:278,18
DA:279,18
DA:280,18
DA:281,18
DA:283,18
DA:284,0
DA:285,0
DA:286,0
DA:289,18
DA:290,18
DA:293,18
DA:294,18
DA:298,18
DA:299,18
DA:300,18
DA:301,18
DA:302,18
DA:303,18
DA:305,18
DA:306,0
DA:307,0
DA:308,0
DA:310,18
DA:311,16
DA:312,16
DA:315,6
DA:316,6
DA:317,0
DA:320,6
DA:321,6
DA:322,6
DA:324,6
DA:325,0
DA:326,0
DA:329,6
DA:330,6
DA:331,6
DA:333,38
DA:334,38
DA:335,0
DA:338,38
DA:340,38
DA:341,38
DA:347,38
DA:349,38
DA:350,0
DA:351,0
DA:354,174
DA:355,136
DA:356,136
DA:357,136
DA:358,136
DA:359,136
DA:360,136
DA:361,136
DA:362,136
DA:365,136
DA:367,136
DA:368,136
DA:370,38
DA:371,38
DA:373,0
DA:374,0
DA:375,0
DA:378,0
DA:379,0
DA:380,0
DA:383,0
DA:384,0
DA:385,0
DA:388,0
DA:389,0
DA:395,0
DA:396,0
DA:397,0
DA:398,0
DA:399,0
DA:401,0
DA:402,0
DA:403,0
DA:404,0
DA:407,0
DA:408,0
DA:409,0
DA:411,4
DA:412,4
DA:413,0
DA:416,4
DA:418,2
DA:419,6
DA:420,4
DA:422,2
DA:423,2
DA:424,4
DA:426,6
DA:427,4
DA:430,2
DA:431,0
DA:432,0
DA:435,2
DA:436,2
DA:437,2
DA:439,10
DA:440,10
DA:441,0
DA:444,10
DA:446,10
DA:447,10
DA:452,10
DA:454,10
DA:455,2
DA:458,8
DA:459,8
DA:460,8
DA:461,8
DA:462,8
DA:463,8
DA:464,8
DA:465,8
DA:467,8
DA:468,10
DA:470,12
DA:475,12
DA:476,0
DA:479,12
DA:481,12
DA:487,12
DA:489,12
DA:490,6
DA:491,6
DA:494,12
DA:495,2
DA:496,2
DA:499,12
DA:500,2
DA:501,2
DA:505,12
DA:506,2
DA:507,2
DA:510,12
DA:511,12
DA:513,12
DA:514,12
DA:516,36
DA:517,24
DA:520,12
DA:521,0
DA:522,0
DA:525,126
DA:526,114
DA:527,114
DA:528,114
DA:529,114
DA:530,114
DA:531,114
DA:532,114
DA:533,114
DA:536,114
DA:538,114
DA:539,114
DA:541,12
DA:542,12
DA:544,18
DA:545,18
DA:546,0
DA:549,18
DA:550,18
DA:551,18
DA:553,0
DA:554,18
DA:556,10
DA:557,10
DA:558,0
DA:561,10
DA:562,10
DA:563,10
DA:565,0
DA:566,10
DA:568,10
DA:569,10
DA:570,0
DA:573,10
DA:574,10
DA:575,10
DA:577,0
DA:578,10
DA:580,2
DA:581,2
DA:582,0
DA:585,2
DA:586,2
DA:587,2
DA:589,0
DA:590,2
DA:592,258
DA:593,258
DA:594,0
DA:595,0
DA:598,258
DA:600,258
DA:601,0
DA:602,0
DA:606,258
DA:607,258
DA:620,258
DA:622,258
DA:623,0
DA:624,0
DA:627,494
DA:628,236
DA:631,236
DA:632,236
DA:633,236
DA:634,236
DA:635,236
DA:636,236
DA:639,236
DA:640,236
DA:641,236
DA:642,236
DA:643,236
DA:644,236
DA:647,236
DA:648,236
DA:649,236
DA:651,236
DA:652,236
DA:654,258
DA:655,258
DA:657,2
DA:658,2
DA:659,0
DA:662,2
DA:663,0
DA:664,0
DA:668,2
DA:669,2
DA:670,0
DA:671,0
DA:674,2
DA:675,2
DA:677,2
DA:678,2
DA:679,2
DA:680,0
DA:681,0
DA:684,2
DA:685,2
DA:688,6
DA:689,4
DA:690,0
DA:691,0
DA:694,4
DA:695,4
DA:698,4
DA:699,4
DA:700,4
DA:701,4
DA:702,4
DA:705,4
DA:706,0
DA:707,0
DA:708,0
DA:709,4
DA:713,4
DA:714,4
DA:715,6
DA:716,2
DA:718,2
DA:719,2
DA:722,2
DA:723,2
DA:724,2
DA:727,2
DA:728,2
DA:729,2
DA:732,2
DA:733,2
DA:736,2
DA:737,0
DA:740,2
DA:741,2
DA:742,4
DA:744,4
DA:745,4
DA:748,2
DA:749,2
DA:752,0
DA:753,2
DA:755,4
DA:756,4
DA:757,0
DA:761,4
DA:762,4
DA:763,2
DA:765,4
DA:766,2
DA:767,2
DA:768,2
DA:770,2
DA:774,4
DA:775,6
DA:776,2
DA:777,2
DA:778,2
DA:779,2
DA:780,2
DA:781,2
DA:782,2
DA:783,2
DA:786,2
DA:787,4
DA:788,2
DA:789,2
DA:790,2
DA:791,2
DA:792,2
DA:793,2
DA:794,2
DA:795,2
DA:796,2
DA:797,2
DA:799,2
DA:800,2
DA:801,2
DA:803,2
DA:804,2
DA:807,4
DA:808,4
DA:809,0
DA:810,0
DA:813,4
DA:814,4
DA:815,4
DA:817,4
DA:818,4
DA:820,2
DA:821,2
DA:822,0
DA:826,2
DA:827,2
DA:828,0
DA:830,4
DA:831,2
DA:832,2
DA:833,2
DA:835,2
DA:839,2
DA:840,2
DA:841,0
DA:842,0
DA:845,2
DA:846,2
DA:849,2
DA:852,4
DA:854,2
DA:855,2
DA:856,0
DA:859,2
DA:860,2
DA:861,2
DA:862,2
DA:863,4
DA:864,2
DA:865,2
DA:866,2
DA:868,2
DA:869,2
DA:870,2
DA:873,0
DA:874,0
DA:876,0
DA:877,0
DA:878,0
DA:880,0
DA:881,0
DA:882,0
DA:884,0
DA:885,0
DA:886,0
DA:888,0
DA:889,0
DA:890,0
DA:892,0
DA:893,0
DA:894,0
DA:896,0
DA:897,0
DA:898,0
DA:901,0
DA:902,0
DA:905,0
DA:907,0
DA:908,0
DA:909,0
DA:910,0
DA:911,0
DA:914,0
DA:915,0
DA:917,0
DA:918,0
DA:919,0
DA:920,0
DA:924,0
DA:925,0
DA:929,0
DA:930,0
DA:931,0
DA:933,0
DA:934,0
DA:935,0
DA:939,0
DA:940,0
DA:941,0
DA:947,0
DA:948,0
DA:949,0
DA:950,0
DA:951,0
DA:952,0
DA:953,0
DA:954,0
DA:956,0
DA:957,0
DA:958,0
DA:959,0
DA:962,0
DA:964,0
DA:965,0
DA:966,0
DA:969,0
DA:971,0
DA:972,0
DA:973,0
DA:975,0
DA:976,0
DA:977,0
DA:978,0
DA:979,0
DA:982,4
DA:983,4
DA:984,0
DA:985,0
DA:988,4
DA:989,0
DA:993,4
DA:996,12
DA:997,8
DA:998,8
DA:1004,8
DA:1005,8
DA:1006,8
DA:1007,8
DA:1008,8
DA:1009,8
DA:1010,8
DA:1011,8
DA:1013,8
DA:1014,0
DA:1015,0
DA:1018,8
DA:1021,8
DA:1022,2
DA:1023,0
DA:1026,8
DA:1028,4
DA:1029,4
DA:1030,4
DA:1031,0
DA:1032,0
DA:1033,0
DA:1036,0
DA:1038,0
DA:1039,0
DA:1040,0
DA:1041,0
DA:1042,0
DA:1044,0
DA:1045,0
DA:1046,0
DA:1047,0
DA:1049,0
DA:1050,0
DA:1051,0
DA:1053,0
DA:1054,0
DA:1055,0
DA:1056,0
DA:1058,0
DA:1059,0
DA:1060,0
DA:1061,0
DA:1064,0
DA:1065,0
LF:632
LH:425
end_of_record
TN:
SF:/home/fed/Documents/clion-workspace/qt-try/src/data/databasemanager.h
FN:25,25,_ZN6optikg15DatabaseManager2trEPKcS2_i
FNDA:0,_ZN6optikg15DatabaseManager2trEPKcS2_i
FNF:1
FNH:0
DA:25,0
LF:1
LH:0
end_of_record
TN:
SF:/home/fed/Documents/clion-workspace/qt-try/src/data/datamodel.cpp
FN:11,19,_ZN6optikg6Entity12typeToStringENS_10EntityTypeE
FN:21,27,_ZN6optikg6Entity12stringToTypeERK7QString
FN:29,37,_ZNK6optikg6Entity11typeToColorEv
FN:39,41,_ZNK6optikg6Triple20relationTypeToStringEv
FN:43,51,_ZN6optikg6Triple20relationTypeToStringENS_12RelationTypeE
FN:53,59,_ZN6optikg6Triple20stringToRelationTypeERK7QString
FN:7,9,_ZNK6optikg6Entity12typeToStringEv
FNDA:116,_ZN6optikg6Entity12typeToStringENS_10EntityTypeE
FNDA:14,_ZN6optikg6Entity12stringToTypeERK7QString
FNDA:406,_ZNK6optikg6Entity11typeToColorEv
FNDA:0,_ZNK6optikg6Triple20relationTypeToStringEv
FNDA:10,_ZN6optikg6Triple20relationTypeToStringENS_12RelationTypeE
FNDA:10,_ZN6optikg6Triple20stringToRelationTypeERK7QString
FNDA:0,_ZNK6optikg6Entity12typeToStringEv
FNF:7
FNH:5
DA:7,0
DA:8,0
DA:11,116
DA:12,116
DA:13,30
DA:14,30
DA:15,28
DA:16,28
DA:17,0
DA:21,14
DA:22,14
DA:23,10
DA:24,6
DA:25,4
DA:26,2
DA:29,406
DA:30,406
DA:31,310
DA:32,38
DA:33,30
DA:34,28
DA:35,0
DA:39,0
DA:40,0
DA:43,10
DA:44,10
DA:45,4
DA:46,2
DA:47,2
DA:48,2
DA:49,0
DA:53,10
DA:54,10
DA:55,8
DA:56,6
DA:57,4
DA:58,2
LF:37
LH:30
end_of_record
TN:
SF:/home/fed/Documents/clion-workspace/qt-try/src/ui/batchprocessdialog.cpp
FN:126,140,_ZZN6optikg18BatchProcessDialog7setupUiEvENKUlvE_clEv
FN:202,213,_ZN6optikg18BatchProcessDialog18updateButtonStatesEv
FN:215,221,_ZN6optikg18BatchProcessDialog16updateStatisticsEv
FN:223,244,_ZN6optikg18BatchProcessDialog17onAddFilesClickedEv
FN:246,288,_ZN6optikg18BatchProcessDialog21onAddDirectoryClickedEv
FN:290,295,_ZN6optikg18BatchProcessDialog20onRemoveFilesClickedEv
FN:297,300,_ZN6optikg18BatchProcessDialog19onClearFilesClickedEv
FN:302,304,_ZN6optikg18BatchProcessDialog22onFileSelectionChangedEv
FN:306,365,_ZN6optikg18BatchProcessDialog14onStartClickedEv
FN:32,58,_ZN6optikg18BatchProcessDialogC2EP7QWidget
FN:367,373,_ZN6optikg18BatchProcessDialog13onStopClickedEv
FN:375,378,_ZN6optikg18BatchProcessDialog14onScanProgressEiiRK7QString
FN:380,390,_ZN6optikg18BatchProcessDialog14onScanFinishedEii
FN:392,396,_ZN6optikg18BatchProcessDialog17onProgressChangedEiiRK7QString
FN:398,433,_ZN6optikg18BatchProcessDialog15onFileProcessedERKNS_17FileProcessResultE
FN:435,440,_ZN6optikg18BatchProcessDialog15onErrorOccurredERK7QStringS3_
FN:442,487,_ZN6optikg18BatchProcessDialog15onBatchFinishedEiii
FN:489,502,_ZN6optikg18BatchProcessDialog15onExportClickedEv
FN:504,527,_ZN6optikg18BatchProcessDialog17getOutputFilePathERK7QString
FN:529,591,_ZN6optikg18BatchProcessDialog12exportToJsonERK7QString
FN:593,637,_ZN6optikg18BatchProcessDialog11exportToCsvERK7QString
FN:60,66,_ZN6optikg18BatchProcessDialogD0Ev
FN:60,66,_ZN6optikg18BatchProcessDialogD2Ev
FN:639,657,_ZN6optikg18BatchProcessDialog10closeEventEP11QCloseEvent
FN:659,686,_ZN6optikg18BatchProcessDialog14saveToDatabaseEv
FN:68,200,_ZN6optikg18BatchProcessDialog7setupUiEv
FN:688,690,_ZN6optikg18BatchProcessDialog19onAutoExportToggledEb
FN:692,694,_ZN6optikg18BatchProcessDialog17onSaveToDbToggledEb
FNDA:0,_ZZN6optikg18BatchProcessDialog7setupUiEvENKUlvE_clEv
FNDA:40,_ZN6optikg18BatchProcessDialog18updateButtonStatesEv
FNDA:4,_ZN6optikg18BatchProcessDialog16updateStatisticsEv
FNDA:0,_ZN6optikg18BatchProcessDialog17onAddFilesClickedEv
FNDA:0,_ZN6optikg18BatchProcessDialog21onAddDirectoryClickedEv
FNDA:2,_ZN6optikg18BatchProcessDialog20onRemoveFilesClickedEv
FNDA:4,_ZN6optikg18BatchProcessDialog19onClearFilesClickedEv
FNDA:8,_ZN6optikg18BatchProcessDialog22onFileSelectionChangedEv
FNDA:0,_ZN6optikg18BatchProcessDialog14onStartClickedEv
FNDA:34,_ZN6optikg18BatchProcessDialogC2EP7QWidget
FNDA:0,_ZN6optikg18BatchProcessDialog13onStopClickedEv
FNDA:0,_ZN6optikg18BatchProcessDialog14onScanProgressEiiRK7QString
FNDA:2,_ZN6optikg18BatchProcessDialog14onScanFinishedEii
FNDA:2,_ZN6optikg18BatchProcessDialog17onProgressChangedEiiRK7QString
FNDA:2,_ZN6optikg18BatchProcessDialog15onFileProcessedERKNS_17FileProcessResultE
FNDA:2,_ZN6optikg18BatchProcessDialog15onErrorOccurredERK7QStringS3_
FNDA:0,_ZN6optikg18BatchProcessDialog15onBatchFinishedEiii
FNDA:0,_ZN6optikg18BatchProcessDialog15onExportClickedEv
FNDA:0,_ZN6optikg18BatchProcessDialog17getOutputFilePathERK7QString
FNDA:0,_ZN6optikg18BatchProcessDialog12exportToJsonERK7QString
FNDA:0,_ZN6optikg18BatchProcessDialog11exportToCsvERK7QString
FNDA:0,_ZN6optikg18BatchProcessDialogD0Ev
FNDA:34,_ZN6optikg18BatchProcessDialogD2Ev
FNDA:2,_ZN6optikg18BatchProcessDialog10closeEventEP11QCloseEvent
FNDA:0,_ZN6optikg18BatchProcessDialog14saveToDatabaseEv
FNDA:34,_ZN6optikg18BatchProcessDialog7setupUiEv
FNDA:8,_ZN6optikg18BatchProcessDialog19onAutoExportToggledEb
FNDA:8,_ZN6optikg18BatchProcessDialog17onSaveToDbToggledEb
FNF:28
FNH:15
DA:32,34
DA:34,34
DA:35,34
DA:36,34
DA:37,34
DA:38,34
DA:39,34
DA:41,34
DA:42,34
DA:43,34
DA:45,34
DA:46,34
DA:49,34
DA:50,34
DA:51,34
DA:52,34
DA:53,34
DA:56,34
DA:57,34
DA:58,34
DA:60,34
DA:61,34
DA:62,0
DA:63,0
DA:65,34
DA:66,34
DA:68,34
DA:69,34
DA:72,34
DA:73,34
DA:75,34
DA:76,34
DA:77,34
DA:78,34
DA:79,34
DA:82,34
DA:83,34
DA:84,34
DA:85,34
DA:87,34
DA:88,34
DA:89,34
DA:91,34
DA:93,34
DA:94,34
DA:95,34
DA:96,34
DA:98,34
DA:99,34
DA:100,34
DA:102,34
DA:103,34
DA:106,34
DA:107,34
DA:109,34
DA:110,34
DA:112,34
DA:113,34
DA:115,34
DA:116,34
DA:117,170
DA:118,34
DA:120,34
DA:121,34
DA:122,34
DA:123,34
DA:124,34
DA:125,34
DA:126,34
DA:127,0
DA:128,0
DA:129,0
DA:130,0
DA:131,0
DA:132,0
DA:134,0
DA:135,0
DA:136,0
DA:137,0
DA:140,0
DA:141,34
DA:142,34
DA:144,34
DA:145,34
DA:148,34
DA:149,34
DA:152,34
DA:153,34
DA:154,34
DA:155,34
DA:156,34
DA:159,34
DA:160,34
DA:163,34
DA:164,34
DA:167,34
DA:168,34
DA:170,34
DA:171,34
DA:173,34
DA:176,34
DA:178,34
DA:179,34
DA:180,34
DA:181,34
DA:183,34
DA:184,34
DA:185,34
DA:186,34
DA:188,34
DA:190,34
DA:191,34
DA:192,34
DA:193,34
DA:195,34
DA:196,34
DA:197,34
DA:199,34
DA:200,34
DA:202,40
DA:203,40
DA:205,40
DA:206,40
DA:207,40
DA:208,40
DA:209,40
DA:210,40
DA:211,40
DA:212,40
DA:213,40
DA:215,4
DA:216,8
DA:217,8
DA:218,8
DA:219,8
DA:220,8
DA:221,4
DA:223,0
DA:224,0
DA:225,0
DA:226,0
DA:227,0
DA:229,0
DA:231,0
DA:232,0
DA:233,0
DA:234,0
DA:235,0
DA:238,0
DA:239,0
DA:243,0
DA:244,0
DA:246,0
DA:248,0
DA:249,0
DA:250,0
DA:252,0
DA:253,0
DA:257,0
DA:258,0
DA:259,0
DA:260,0
DA:262,0
DA:266,0
DA:267,0
DA:269,0
DA:270,0
DA:271,0
DA:272,0
DA:273,0
DA:276,0
DA:277,0
DA:279,0
DA:281,0
DA:283,0
DA:284,0
DA:286,0
DA:288,0
DA:290,2
DA:291,4
DA:292,2
DA:294,2
DA:295,2
DA:297,4
DA:298,4
DA:299,4
DA:300,4
DA:302,8
DA:303,8
DA:304,8
DA:306,0
DA:307,0
DA:308,0
DA:309,0
DA:313,0
DA:314,0
DA:315,0
DA:319,0
DA:320,0
DA:321,0
DA:322,0
DA:323,0
DA:324,0
DA:325,0
DA:328,0
DA:329,0
DA:331,0
DA:332,0
DA:333,0
DA:336,0
DA:337,0
DA:340,0
DA:341,0
DA:342,0
DA:343,0
DA:344,0
DA:345,0
DA:348,0
DA:349,0
DA:350,0
DA:351,0
DA:352,0
DA:353,0
DA:354,0
DA:355,0
DA:356,0
DA:357,0
DA:358,0
DA:359,0
DA:362,0
DA:363,0
DA:364,0
DA:365,0
DA:367,0
DA:368,0
DA:369,0
DA:370,0
DA:371,0
DA:373,0
DA:375,0
DA:376,0
DA:378,0
DA:380,2
DA:381,2
DA:382,2
DA:383,6
DA:384,6
DA:387,2
DA:388,0
DA:390,2
DA:392,2
DA:393,2
DA:394,2
DA:395,8
DA:396,2
DA:398,2
DA:399,2
DA:401,2
DA:402,2
DA:403,2
DA:405,2
DA:406,4
DA:407,4
DA:408,4
DA:409,4
DA:410,4
DA:413,2
DA:415,0
DA:416,0
DA:418,0
DA:419,0
DA:421,0
DA:425,0
DA:426,0
DA:428,0
DA:429,2
DA:431,2
DA:432,2
DA:433,2
DA:435,2
DA:436,2
DA:437,2
DA:438,6
DA:439,2
DA:440,2
DA:442,0
DA:443,0
DA:444,0
DA:446,0
DA:447,0
DA:448,0
DA:451,0
DA:452,0
DA:455,0
DA:456,0
DA:457,0
DA:458,0
DA:459,0
DA:462,0
DA:463,0
DA:464,0
DA:465,0
DA:466,0
DA:469,0
DA:470,0
DA:472,0
DA:475,0
DA:476,0
DA:479,0
DA:480,0
DA:484,0
DA:485,0
DA:486,0
DA:487,0
DA:489,0
DA:490,0
DA:491,0
DA:493,0
DA:494,0
DA:497,0
DA:498,0
DA:500,0
DA:502,0
DA:504,0
DA:505,0
DA:506,0
DA:507,0
DA:509,0
DA:510,0
DA:511,0
DA:512,0
DA:513,0
DA:514,0
DA:516,0
DA:517,0
DA:518,0
DA:519,0
DA:521,0
DA:522,0
DA:524,0
DA:526,0
DA:527,0
DA:529,0
DA:530,0
DA:531,0
DA:532,0
DA:533,0
DA:534,0
DA:535,0
DA:537,0
DA:538,0
DA:539,0
DA:540,0
DA:543,0
DA:544,0
DA:545,0
DA:546,0
DA:547,0
DA:548,0
DA:550,0
DA:551,0
DA:552,0
DA:554,0
DA:555,0
DA:556,0
DA:557,0
DA:558,0
DA:560,0
DA:561,0
DA:562,0
DA:563,0
DA:564,0
DA:566,0
DA:567,0
DA:568,0
DA:570,0
DA:571,0
DA:572,0
DA:573,0
DA:574,0
DA:575,0
DA:577,0
DA:578,0
DA:579,0
DA:580,0
DA:581,0
DA:582,0
DA:585,0
DA:586,0
DA:588,0
DA:589,0
DA:590,0
DA:591,0
DA:593,0
DA:594,0
DA:595,0
DA:596,0
DA:597,0
DA:598,0
DA:601,0
DA:602,0
DA:605,0
DA:606,0
DA:607,0
DA:609,0
DA:610,0
DA:611,0
DA:612,0
DA:615,0
DA:617,0
DA:618,0
DA:619,0
DA:620,0
DA:621,0
DA:622,0
DA:623,0
DA:624,0
DA:625,0
DA:626,0
DA:627,0
DA:628,0
DA:630,0
DA:632,0
DA:634,0
DA:635,0
DA:636,0
DA:637,0
DA:639,2
DA:640,2
DA:641,0
DA:642,0
DA:645,0
DA:646,0
DA:647,0
DA:648,0
DA:650,0
DA:652,0
DA:655,2
DA:657,2
DA:659,0
DA:661,0
DA:663,0
DA:664,0
DA:665,0
DA:669,0
DA:672,0
DA:673,0
DA:674,0
DA:678,0
DA:679,0
DA:681,0
DA:682,0
DA:684,0
DA:686,0
DA:688,8
DA:689,8
DA:690,8
DA:692,8
DA:693,8
DA:694,8
LF:460
LH:180
end_of_record
TN:
SF:/home/fed/Documents/clion-workspace/qt-try/src/ui/batchprocessdialog.h
FN:30,30,_ZN6optikg18BatchProcessDialog2trEPKcS2_i
FNDA:762,_ZN6optikg18BatchProcessDialog2trEPKcS2_i
FNF:1
FNH:1
DA:30,762
LF:1
LH:1
end_of_record
TN:
SF:/home/fed/Documents/clion-workspace/qt-try/src/ui/extractionpanel.cpp
FN:102,132,_ZN6optikg15ExtractionPanel15updateCharCountEv
FN:15,22,_ZN6optikg15ExtractionPanelC2EP7QWidget
FN:24,75,_ZN6optikg15ExtractionPanel7setupUiEv
FN:77,79,_ZNK6optikg15ExtractionPanel4textEv
FN:81,84,_ZN6optikg15ExtractionPanel7setTextERK7QString
FN:86,89,_ZN6optikg15ExtractionPanel5clearEv
FN:91,95,_ZN6optikg15ExtractionPanel10setEnabledEb
FN:97,100,_ZN6optikg15ExtractionPanel13onTextChangedEv
FNDA:44,_ZN6optikg15ExtractionPanel15updateCharCountEv
FNDA:32,_ZN6optikg15ExtractionPanelC2EP7QWidget
FNDA:32,_ZN6optikg15ExtractionPanel7setupUiEv
FNDA:8,_ZNK6optikg15ExtractionPanel4textEv
FNDA:0,_ZN6optikg15ExtractionPanel7setTextERK7QString
FNDA:6,_ZN6optikg15ExtractionPanel5clearEv
FNDA:0,_ZN6optikg15ExtractionPanel10setEnabledEb
FNDA:6,_ZN6optikg15ExtractionPanel13onTextChangedEv
FNF:8
FNH:6
DA:15,32
DA:17,32
DA:18,32
DA:19,32
DA:20,32
DA:21,32
DA:22,32
DA:24,32
DA:25,32
DA:27,32
DA:28,32
DA:31,64
DA:32,64
DA:33,32
DA:36,32
DA:37,32
DA:38,32
DA:40,32
DA:41,32
DA:42,32
DA:45,64
DA:46,64
DA:47,32
DA:48,32
DA:51,32
DA:52,32
DA:54,32
DA:55,64
DA:57,32
DA:58,32
DA:60,32
DA:61,64
DA:63,32
DA:64,32
DA:66,32
DA:67,32
DA:68,32
DA:70,32
DA:71,32
DA:74,32
DA:75,32
DA:77,8
DA:78,8
DA:81,0
DA:82,0
DA:83,0
DA:84,0
DA:86,6
DA:87,6
DA:88,6
DA:89,6
DA:91,0
DA:92,0
DA:93,0
DA:94,0
DA:95,0
DA:97,6
DA:98,6
DA:99,6
DA:100,6
DA:102,44
DA:103,44
DA:104,44
DA:107,44
DA:108,0
DA:109,0
DA:110,0
DA:111,0
DA:112,0
DA:113,0
DA:114,0
DA:117,132
DA:120,44
DA:121,0
DA:122,0
DA:123,44
DA:124,0
DA:125,0
DA:127,44
DA:128,44
DA:130,44
DA:131,44
DA:132,44
LF:83
LH:63
end_of_record
TN:
SF:/home/fed/Documents/clion-workspace/qt-try/src/ui/extractionpanel.h
FN:14,14,_ZN6optikg15ExtractionPanel2trEPKcS2_i
FNDA:204,_ZN6optikg15ExtractionPanel2trEPKcS2_i
FNF:1
FNH:1
DA:14,204
LF:1
LH:1
end_of_record
TN:
SF:/home/fed/Documents/clion-workspace/qt-try/src/ui/graphwidget.cpp
FN:102,117,_ZN6optikg11GraphWidgetC2EP7QWidget
FN:121,127,_ZN6optikg11GraphWidget10setupSceneEv
FN:129,199,_ZN6optikg11GraphWidget14showEmptyStateEv
FN:201,210,_ZN6optikg11GraphWidget14hideEmptyStateEv
FN:212,219,_ZN6optikg11GraphWidget22calculateOptimalRadiusEi
FN:221,296,_ZN6optikg11GraphWidget12setGraphDataERK5QListINS_9GraphNodeEERKS1_INS_9GraphEdgeEE
FN:299,314,_ZN6optikg11GraphWidget14clearGraphDataEv
FN:316,338,_ZN6optikg11GraphWidget10clearGraphEv
FN:340,357,_ZN6optikg11GraphWidget13highlightNodeERK7QString
FN:359,392,_ZN6optikg11GraphWidget13highlightPathERK7QStringS3_
FN:394,397,_ZN6optikg11GraphWidget6zoomInEv
FN:399,402,_ZN6optikg11GraphWidget7zoomOutEv
FN:404,407,_ZN6optikg11GraphWidget9resetZoomEv
FN:409,437,_ZN6optikg11GraphWidget9fitToViewEv
FN:41,74,_ZN6optikgL28calculateEdgeOffsetDirectionERK7QPointFS2_RK7QStringS5_
FN:439,451,_ZN6optikg11GraphWidget10wheelEventEP11QWheelEvent
FN:455,486,_ZN6optikg11GraphWidget15mousePressEventEP11QMouseEvent
FN:488,501,_ZN6optikg11GraphWidget14mouseMoveEventEP11QMouseEvent
FN:503,513,_ZN6optikg11GraphWidget17mouseReleaseEventEP11QMouseEvent
FN:515,519,_ZN6optikg11GraphWidget11resizeEventEP12QResizeEvent
FN:521,586,_ZN6optikg11GraphWidget10createNodeERKNS_9GraphNodeE
FN:588,679,_ZN6optikg11GraphWidget10createEdgeERKNS_9GraphEdgeE
FN:681,820,_ZN6optikg11GraphWidget26computeForceDirectedLayoutEdddi
FN:77,85,_ZN6optikg13GraphNodeItemC2ERK7QStringPNS_11GraphWidgetEddddP13QGraphicsItem
FN:822,893,_ZN6optikg11GraphWidget12updateLegendEv
FN:87,92,_ZN6optikg13GraphNodeItem10itemChangeEN13QGraphicsItem18GraphicsItemChangeERK8QVariant
FN:895,904,_ZN6optikg11GraphWidget25handleNodePositionChangedERK7QStringRK7QPointF
FN:906,958,_ZN6optikg11GraphWidget20updateConnectedEdgesERK7QString
FNDA:60,_ZN6optikg11GraphWidgetC2EP7QWidget
FNDA:60,_ZN6optikg11GraphWidget10setupSceneEv
FNDA:72,_ZN6optikg11GraphWidget14showEmptyStateEv
FNDA:26,_ZN6optikg11GraphWidget14hideEmptyStateEv
FNDA:26,_ZN6optikg11GraphWidget22calculateOptimalRadiusEi
FNDA:28,_ZN6optikg11GraphWidget12setGraphDataERK5QListINS_9GraphNodeEERKS1_INS_9GraphEdgeEE
FNDA:38,_ZN6optikg11GraphWidget14clearGraphDataEv
FNDA:12,_ZN6optikg11GraphWidget10clearGraphEv
FNDA:4,_ZN6optikg11GraphWidget13highlightNodeERK7QString
FNDA:4,_ZN6optikg11GraphWidget13highlightPathERK7QStringS3_
FNDA:2,_ZN6optikg11GraphWidget6zoomInEv
FNDA:2,_ZN6optikg11GraphWidget7zoomOutEv
FNDA:2,_ZN6optikg11GraphWidget9resetZoomEv
FNDA:66,_ZN6optikg11GraphWidget9fitToViewEv
FNDA:24,_ZN6optikgL28calculateEdgeOffsetDirectionERK7QPointFS2_RK7QStringS5_
FNDA:0,_ZN6optikg11GraphWidget10wheelEventEP11QWheelEvent
FNDA:0,_ZN6optikg11GraphWidget15mousePressEventEP11QMouseEvent
FNDA:0,_ZN6optikg11GraphWidget14mouseMoveEventEP11QMouseEvent
FNDA:0,_ZN6optikg11GraphWidget17mouseReleaseEventEP11QMouseEvent
FNDA:38,_ZN6optikg11GraphWidget11resizeEventEP12QResizeEvent
FNDA:210,_ZN6optikg11GraphWidget10createNodeERKNS_9GraphNodeE
FNDA:8,_ZN6optikg11GraphWidget10createEdgeERKNS_9GraphEdgeE
FNDA:26,_ZN6optikg11GraphWidget26computeForceDirectedLayoutEdddi
FNDA:210,_ZN6optikg13GraphNodeItemC2ERK7QStringPNS_11GraphWidgetEddddP13QGraphicsItem
FNDA:26,_ZN6optikg11GraphWidget12updateLegendEv
FNDA:2776,_ZN6optikg13GraphNodeItem10itemChangeEN13QGraphicsItem18GraphicsItemChangeERK8QVariant
FNDA:404,_ZN6optikg11GraphWidget25handleNodePositionChangedERK7QStringRK7QPointF
FNDA:404,_ZN6optikg11GraphWidget20updateConnectedEdgesERK7QString
FNF:28
FNH:24
DA:41,24
DA:43,24
DA:44,24
DA:45,24
DA:47,24
DA:50,24
DA:53,24
DA:57,24
DA:58,24
DA:62,96
DA:67,24
DA:70,24
DA:71,24
DA:73,24
DA:77,210
DA:78,210
DA:80,210
DA:81,210
DA:82,210
DA:83,210
DA:84,210
DA:85,210
DA:87,2776
DA:88,2776
DA:89,404
DA:91,2776
DA:102,60
DA:104,60
DA:105,60
DA:106,60
DA:107,60
DA:109,60
DA:110,60
DA:111,60
DA:112,60
DA:113,60
DA:114,60
DA:115,60
DA:116,60
DA:117,60
DA:121,60
DA:122,60
DA:124,60
DA:125,60
DA:126,60
DA:127,60
DA:129,72
DA:130,72
DA:132,12
DA:133,0
DA:135,12
DA:137,12
DA:138,12
DA:139,12
DA:140,12
DA:143,60
DA:144,60
DA:145,60
DA:151,60
DA:152,60
DA:153,60
DA:154,60
DA:155,60
DA:158,60
DA:159,60
DA:160,60
DA:161,60
DA:162,60
DA:164,60
DA:165,60
DA:166,60
DA:167,60
DA:168,60
DA:170,60
DA:171,60
DA:172,60
DA:173,60
DA:174,60
DA:176,60
DA:177,60
DA:178,60
DA:179,60
DA:180,60
DA:183,60
DA:184,60
DA:185,60
DA:186,60
DA:187,60
DA:188,60
DA:191,60
DA:192,60
DA:193,60
DA:194,60
DA:195,60
DA:196,60
DA:198,60
DA:201,26
DA:202,26
DA:203,26
DA:205,26
DA:206,26
DA:207,26
DA:209,26
DA:210,26
DA:212,26
DA:214,26
DA:215,18
DA:216,8
DA:217,4
DA:218,2
DA:221,28
DA:223,28
DA:224,2
DA:225,2
DA:229,26
DA:232,26
DA:235,26
DA:236,294
DA:237,268
DA:238,208
DA:241,60
DA:242,60
DA:244,26
DA:245,26
DA:246,26
DA:249,236
DA:250,210
DA:254,26
DA:255,26
DA:256,26
DA:257,236
DA:258,210
DA:259,210
DA:260,210
DA:262,210
DA:263,210
DA:264,210
DA:265,210
DA:266,210
DA:271,34
DA:272,8
DA:276,26
DA:278,18
DA:279,8
DA:281,0
DA:282,8
DA:284,4
DA:285,4
DA:287,2
DA:290,2
DA:294,26
DA:295,26
DA:296,26
DA:299,38
DA:301,40
DA:302,2
DA:303,2
DA:306,38
DA:308,64
DA:309,26
DA:310,26
DA:313,38
DA:314,38
DA:316,12
DA:318,12
DA:321,12
DA:322,164
DA:323,152
DA:324,96
DA:326,56
DA:328,56
DA:330,12
DA:331,12
DA:332,12
DA:335,12
DA:336,12
DA:337,12
DA:338,12
DA:340,4
DA:342,12
DA:343,8
DA:344,8
DA:345,8
DA:346,8
DA:347,8
DA:352,4
DA:353,4
DA:354,4
DA:355,4
DA:357,4
DA:359,4
DA:361,12
DA:362,8
DA:363,8
DA:364,8
DA:365,8
DA:366,8
DA:369,8
DA:370,4
DA:371,4
DA:375,4
DA:376,4
DA:377,4
DA:378,4
DA:379,4
DA:381,4
DA:382,4
DA:383,4
DA:387,4
DA:388,4
DA:389,4
DA:390,4
DA:392,4
DA:394,2
DA:395,2
DA:396,2
DA:397,2
DA:399,2
DA:400,2
DA:401,2
DA:402,2
DA:404,2
DA:405,2
DA:406,2
DA:407,2
DA:409,66
DA:410,66
DA:412,12
DA:413,12
DA:414,12
DA:418,54
DA:419,476
DA:420,422
DA:421,422
DA:425,70
DA:426,16
DA:427,16
DA:431,54
DA:433,54
DA:434,54
DA:435,54
DA:439,0
DA:441,0
DA:442,0
DA:443,0
DA:445,0
DA:447,0
DA:449,0
DA:451,0
DA:455,0
DA:456,0
DA:457,0
DA:460,0
DA:461,0
DA:464,0
DA:465,0
DA:466,0
DA:467,0
DA:469,0
DA:472,0
DA:474,0
DA:475,0
DA:476,0
DA:477,0
DA:478,0
DA:483,0
DA:485,0
DA:488,0
DA:489,0
DA:491,0
DA:492,0
DA:495,0
DA:496,0
DA:497,0
DA:499,0
DA:501,0
DA:503,0
DA:504,0
DA:505,0
DA:506,0
DA:507,0
DA:509,0
DA:512,0
DA:513,0
DA:515,38
DA:516,38
DA:518,38
DA:519,38
DA:521,210
DA:522,210
DA:523,210
DA:526,210
DA:527,210
DA:528,210
DA:529,210
DA:530,210
DA:533,210
DA:534,210
DA:535,210
DA:536,210
DA:537,210
DA:538,210
DA:540,210
DA:541,210
DA:544,210
DA:545,210
DA:548,210
DA:549,210
DA:552,210
DA:553,210
DA:554,210
DA:555,210
DA:556,210
DA:558,210
DA:559,210
DA:562,210
DA:565,210
DA:566,210
DA:568,210
DA:569,0
DA:571,210
DA:572,210
DA:573,210
DA:575,210
DA:576,210
DA:578,210
DA:581,210
DA:582,210
DA:583,210
DA:584,210
DA:585,210
DA:586,210
DA:588,8
DA:589,8
DA:590,8
DA:593,8
DA:594,8
DA:596,8
DA:597,0
DA:598,0
DA:602,8
DA:603,8
DA:604,8
DA:607,8
DA:608,8
DA:609,8
DA:610,8
DA:613,8
DA:614,8
DA:615,8
DA:616,8
DA:621,8
DA:623,8
DA:624,8
DA:626,8
DA:628,8
DA:629,8
DA:631,8
DA:632,8
DA:635,8
DA:636,8
DA:637,8
DA:638,8
DA:639,8
DA:640,0
DA:641,0
DA:642,0
DA:644,0
DA:646,8
DA:647,8
DA:648,8
DA:649,8
DA:652,8
DA:653,8
DA:654,8
DA:655,8
DA:658,8
DA:660,8
DA:661,8
DA:662,8
DA:663,8
DA:664,8
DA:666,8
DA:667,8
DA:669,8
DA:670,8
DA:673,8
DA:674,8
DA:675,8
DA:676,8
DA:679,8
DA:681,26
DA:683,26
DA:688,26
DA:692,26
DA:694,26
DA:696,26
DA:697,26
DA:699,2106
DA:700,22080
DA:701,20000
DA:705,22080
DA:706,20000
DA:707,20000
DA:709,356320
DA:710,336320
DA:711,336320
DA:713,336320
DA:714,336320
DA:715,336320
DA:717,336320
DA:718,0
DA:719,0
DA:720,0
DA:723,336320
DA:726,336320
DA:727,21500
DA:728,21500
DA:729,21500
DA:731,21500
DA:732,21500
DA:738,2720
DA:739,640
DA:740,640
DA:741,640
DA:742,640
DA:743,640
DA:745,640
DA:746,640
DA:747,640
DA:748,640
DA:750,640
DA:752,640
DA:754,640
DA:755,640
DA:757,640
DA:758,640
DA:762,22080
DA:763,20000
DA:764,20000
DA:767,20000
DA:768,40000
DA:769,40000
DA:773,22080
DA:774,20000
DA:775,20000
DA:777,20000
DA:778,20000
DA:779,19360
DA:780,19360
DA:781,19360
DA:785,2080
DA:791,236
DA:792,210
DA:793,210
DA:794,210
DA:797,34
DA:798,8
DA:799,8
DA:800,8
DA:801,8
DA:802,8
DA:804,8
DA:805,8
DA:806,8
DA:808,8
DA:809,8
DA:810,8
DA:811,8
DA:813,8
DA:814,8
DA:815,16
DA:817,8
DA:819,26
DA:820,26
DA:822,26
DA:824,26
DA:825,670
DA:826,644
DA:827,0
DA:828,0
DA:832,26
DA:835,26
DA:836,26
DA:837,26
DA:838,26
DA:841,26
DA:847,26
DA:848,130
DA:849,104
DA:850,104
DA:851,104
DA:852,104
DA:855,26
DA:856,26
DA:857,26
DA:858,26
DA:859,26
DA:860,26
DA:863,26
DA:864,26
DA:865,26
DA:866,26
DA:867,26
DA:868,26
DA:869,26
DA:870,26
DA:873,130
DA:875,104
DA:876,104
DA:877,104
DA:878,104
DA:879,104
DA:880,104
DA:883,104
DA:884,104
DA:885,104
DA:886,104
DA:887,104
DA:888,104
DA:889,104
DA:891,104
DA:893,26
DA:895,404
DA:897,404
DA:898,404
DA:899,404
DA:900,404
DA:903,404
DA:904,404
DA:906,404
DA:908,422
DA:909,18
DA:911,16
DA:912,16
DA:913,16
DA:914,16
DA:916,16
DA:918,16
DA:919,16
DA:922,16
DA:923,16
DA:924,16
DA:925,16
DA:927,16
DA:928,16
DA:929,16
DA:930,16
DA:933,16
DA:935,16
DA:936,16
DA:938,16
DA:941,16
DA:942,16
DA:943,16
DA:944,16
DA:947,16
DA:948,16
DA:949,16
DA:950,16
DA:951,16
DA:952,16
DA:953,16
DA:954,32
DA:956,16
DA:958,404
LF:566
LH:509
end_of_record
TN:
SF:/home/fed/Documents/clion-workspace/qt-try/src/ui/graphwidget.h
FN:38,38,_ZN6optikg11GraphWidget2trEPKcS2_i
FNDA:146,_ZN6optikg11GraphWidget2trEPKcS2_i
FNF:1
FNH:1
DA:38,146
LF:1
LH:1
end_of_record
TN:
SF:/home/fed/Documents/clion-workspace/qt-try/src/ui/historypanel.cpp
FN:109,109,_ZZN6optikg12HistoryPanel7setupUiEvENKUlvE_clEv
FN:119,143,_ZN6optikg12HistoryPanel10setupTableEv
FN:145,148,_ZN6optikg12HistoryPanel11loadHistoryEv
FN:150,153,_ZN6optikg12HistoryPanel9addRecordERKNS_16ExtractionRecordE
FN:155,160,_ZN6optikg12HistoryPanel12removeRecordEx
FN:162,164,_ZN6optikg12HistoryPanel12clearHistoryEv
FN:166,178,_ZNK6optikg12HistoryPanel17selectedRecordIdsEv
FN:180,204,_ZN6optikg12HistoryPanel12refreshTableERK5QListINS_16ExtractionRecordEE
FN:206,223,_ZN6optikg12HistoryPanel8onSearchEv
FN:21,34,_ZN6optikg12HistoryPanelC2EP7QWidget
FN:225,227,_ZN6optikg12HistoryPanel15onFilterChangedEv
FN:229,235,_ZN6optikg12HistoryPanel13onItemClickedEii
FN:237,243,_ZN6optikg12HistoryPanel19onItemDoubleClickedEii
FN:245,252,_ZN6optikg12HistoryPanel8onExportEv
FN:254,270,_ZN6optikg12HistoryPanel13onBatchDeleteEv
FN:272,278,_ZN6optikg12HistoryPanel13onClearFilterEv
FN:36,117,_ZN6optikg12HistoryPanel7setupUiEv
FNDA:0,_ZZN6optikg12HistoryPanel7setupUiEvENKUlvE_clEv
FNDA:32,_ZN6optikg12HistoryPanel10setupTableEv
FNDA:32,_ZN6optikg12HistoryPanel11loadHistoryEv
FNDA:0,_ZN6optikg12HistoryPanel9addRecordERKNS_16ExtractionRecordE
FNDA:0,_ZN6optikg12HistoryPanel12removeRecordEx
FNDA:0,_ZN6optikg12HistoryPanel12clearHistoryEv
FNDA:0,_ZNK6optikg12HistoryPanel17selectedRecordIdsEv
FNDA:32,_ZN6optikg12HistoryPanel12refreshTableERK5QListINS_16ExtractionRecordEE
FNDA:0,_ZN6optikg12HistoryPanel8onSearchEv
FNDA:32,_ZN6optikg12HistoryPanelC2EP7QWidget
FNDA:0,_ZN6optikg12HistoryPanel15onFilterChangedEv
FNDA:0,_ZN6optikg12HistoryPanel13onItemClickedEii
FNDA:0,_ZN6optikg12HistoryPanel19onItemDoubleClickedEii
FNDA:0,_ZN6optikg12HistoryPanel8onExportEv
FNDA:0,_ZN6optikg12HistoryPanel13onBatchDeleteEv
FNDA:0,_ZN6optikg12HistoryPanel13onClearFilterEv
FNDA:32,_ZN6optikg12HistoryPanel7setupUiEv
FNF:17
FNH:5
DA:21,32
DA:23,32
DA:24,32
DA:25,32
DA:26,32
DA:27,32
DA:28,32
DA:29,32
DA:30,32
DA:31,32
DA:32,32
DA:33,32
DA:34,32
DA:36,32
DA:37,32
DA:38,32
DA:39,32
DA:42,32
DA:43,32
DA:44,32
DA:47,32
DA:48,32
DA:50,32
DA:51,32
DA:52,32
DA:53,32
DA:55,32
DA:56,32
DA:57,32
DA:58,32
DA:59,32
DA:60,32
DA:61,32
DA:62,32
DA:64,32
DA:65,32
DA:66,32
DA:67,32
DA:68,32
DA:70,32
DA:71,32
DA:72,32
DA:73,32
DA:74,32
DA:76,32
DA:77,32
DA:78,32
DA:79,32
DA:81,32
DA:82,32
DA:83,32
DA:85,32
DA:86,32
DA:87,32
DA:88,32
DA:90,32
DA:93,32
DA:94,32
DA:97,32
DA:98,32
DA:99,32
DA:100,32
DA:102,32
DA:103,32
DA:104,32
DA:105,32
DA:107,32
DA:108,32
DA:109,32
DA:111,32
DA:112,32
DA:113,32
DA:114,32
DA:116,32
DA:117,32
DA:119,32
DA:120,32
DA:121,32
DA:122,224
DA:126,32
DA:127,32
DA:128,32
DA:129,32
DA:130,32
DA:131,32
DA:132,32
DA:133,32
DA:135,32
DA:136,32
DA:137,32
DA:139,32
DA:140,32
DA:141,32
DA:142,32
DA:143,64
DA:145,32
DA:146,32
DA:147,32
DA:148,32
DA:150,0
DA:152,0
DA:153,0
DA:155,0
DA:157,0
DA:158,0
DA:160,0
DA:162,0
DA:163,0
DA:164,0
DA:166,0
DA:167,0
DA:168,0
DA:169,0
DA:170,0
DA:171,0
DA:172,0
DA:173,0
DA:177,0
DA:178,0
DA:180,32
DA:181,32
DA:182,160
DA:183,128
DA:184,128
DA:185,128
DA:186,128
DA:187,128
DA:188,128
DA:189,128
DA:193,32
DA:194,0
DA:195,0
DA:196,0
DA:197,0
DA:198,0
DA:199,0
DA:202,32
DA:204,32
DA:206,0
DA:207,0
DA:208,0
DA:209,0
DA:210,0
DA:212,0
DA:213,0
DA:214,0
DA:216,0
DA:217,0
DA:220,0
DA:221,0
DA:222,0
DA:223,0
DA:225,0
DA:227,0
DA:229,0
DA:231,0
DA:232,0
DA:233,0
DA:235,0
DA:237,0
DA:239,0
DA:240,0
DA:241,0
DA:243,0
DA:245,0
DA:246,0
DA:247,0
DA:248,0
DA:249,0
DA:251,0
DA:252,0
DA:254,0
DA:255,0
DA:256,0
DA:257,0
DA:258,0
DA:261,0
DA:262,0
DA:263,0
DA:267,0
DA:268,0
DA:270,0
DA:272,0
DA:273,0
DA:274,0
DA:275,0
DA:276,0
DA:277,0
DA:278,0
LF:189
LH:112
end_of_record
TN:
SF:/home/fed/Documents/clion-workspace/qt-try/src/ui/historypanel.h
FN:18,18,_ZN6optikg12HistoryPanel2trEPKcS2_i
FNDA:736,_ZN6optikg12HistoryPanel2trEPKcS2_i
FNF:1
FNH:1
DA:18,736
LF:1
LH:1
end_of_record
TN:
SF:/home/fed/Documents/clion-workspace/qt-try/src/ui/mainwindow.cpp
FN:1034,1078,_ZN6optikg10MainWindow13onHelpClickedEv
FN:104,107,_ZN6optikg10MainWindow13keyPressEventEP9QKeyEvent
FN:1080,1097,_ZN6optikg10MainWindow14onAboutClickedEv
FN:109,142,_ZN6optikg10MainWindow7setupUiEv
FN:144,261,_ZN6optikg10MainWindow12setupMenuBarEv
FN:183,185,_ZZN6optikg10MainWindow12setupMenuBarEvENKUlvE_clEv
FN:189,191,_ZZN6optikg10MainWindow12setupMenuBarEvENKUlvE0_clEv
FN:195,197,_ZZN6optikg10MainWindow12setupMenuBarEvENKUlvE1_clEv
FN:201,203,_ZZN6optikg10MainWindow12setupMenuBarEvENKUlvE2_clEv
FN:210,212,_ZZN6optikg10MainWindow12setupMenuBarEvENKUlbE_clEb
FN:217,219,_ZZN6optikg10MainWindow12setupMenuBarEvENKUlbE0_clEb
FN:224,226,_ZZN6optikg10MainWindow12setupMenuBarEvENKUlbE1_clEb
FN:232,242,_ZZN6optikg10MainWindow12setupMenuBarEvENKUlvE3_clEv
FN:263,327,_ZN6optikg10MainWindow12setupToolBarEv
FN:287,289,_ZZN6optikg10MainWindow12setupToolBarEvENKUlvE_clEv
FN:295,297,_ZZN6optikg10MainWindow12setupToolBarEvENKUlvE0_clEv
FN:303,305,_ZZN6optikg10MainWindow12setupToolBarEvENKUlvE1_clEv
FN:329,350,_ZN6optikg10MainWindow14setupStatusBarEv
FN:352,354,_ZN6optikg10MainWindow14setupShortcutsEv
FN:356,402,_ZN6optikg10MainWindow14connectSignalsEv
FN:365,368,_ZZN6optikg10MainWindow14connectSignalsEvENKUlxE_clEx
FN:370,373,_ZZN6optikg10MainWindow14connectSignalsEvENKUlxE0_clEx
FN:375,377,_ZZN6optikg10MainWindow14connectSignalsEvENKUlRK5QListIxEE_clES4_
FN:379,381,_ZZN6optikg10MainWindow14connectSignalsEvENKUlRK5QListIxEE0_clES4_
FN:389,394,_ZZN6optikg10MainWindow14connectSignalsEvENKUlRK7QStringS3_E_clES3_S3_
FN:396,401,_ZZN6optikg10MainWindow14connectSignalsEvENKUlRKNS_6TripleEE_clES3_
FN:404,416,_ZN6optikg10MainWindow12loadSettingsEv
FN:418,423,_ZN6optikg10MainWindow12saveSettingsEv
FN:425,450,_ZN6optikg10MainWindow9showToastERK7QStringb
FN:444,449,_ZZN6optikg10MainWindow9showToastERK7QStringbENKUlvE_clEv
FN:452,486,_ZN6optikg10MainWindow22updateGraphFromTriplesERK5QListINS_6TripleEE
FN:46,86,_ZN6optikg10MainWindowC2EP7QWidget
FN:490,550,_ZN6optikg10MainWindow16onExtractClickedEv
FN:543,545,_ZZN6optikg10MainWindow16onExtractClickedEvENKUlvE_clEv
FN:552,569,_ZN6optikg10MainWindow14onClearClickedEv
FN:571,575,_ZN6optikg10MainWindow21onBatchProcessClickedEv
FN:577,644,_ZN6optikg10MainWindow19onExportJsonClickedEv
FN:646,714,_ZN6optikg10MainWindow18onExportCsvClickedEv
FN:676,685,_ZZN6optikg10MainWindow18onExportCsvClickedEvENKUlRK7QStringE_clES3_
FN:716,724,_ZN6optikg10MainWindow17onSettingsClickedEv
FN:726,737,_ZN6optikg10MainWindow19onExtractionStartedEv
FN:739,780,_ZN6optikg10MainWindow20onExtractionFinishedERK5QListINS_6TripleEE
FN:782,792,_ZN6optikg10MainWindow17onExtractionErrorERK7QString
FN:794,796,_ZN6optikg10MainWindow17onProgressChangedEi
FN:798,809,_ZN6optikg10MainWindow20onBatchDeleteRecordsERK5QListIxE
FN:811,969,_ZN6optikg10MainWindow13onOpenClickedEv
FN:88,97,_ZN6optikg10MainWindowD0Ev
FN:88,97,_ZN6optikg10MainWindowD2Ev
FN:971,997,_ZN6optikg10MainWindow21onOpenTextFileClickedEv
FN:99,102,_ZN6optikg10MainWindow10closeEventEP11QCloseEvent
FN:999,1032,_ZN6optikg10MainWindow17loadRecordDetailsEx
FNDA:0,_ZN6optikg10MainWindow13onHelpClickedEv
FNDA:0,_ZN6optikg10MainWindow13keyPressEventEP9QKeyEvent
FNDA:0,_ZN6optikg10MainWindow14onAboutClickedEv
FNDA:32,_ZN6optikg10MainWindow7setupUiEv
FNDA:32,_ZN6optikg10MainWindow12setupMenuBarEv
FNDA:0,_ZZN6optikg10MainWindow12setupMenuBarEvENKUlvE_clEv
FNDA:0,_ZZN6optikg10MainWindow12setupMenuBarEvENKUlvE0_clEv
FNDA:0,_ZZN6optikg10MainWindow12setupMenuBarEvENKUlvE1_clEv
FNDA:0,_ZZN6optikg10MainWindow12setupMenuBarEvENKUlvE2_clEv
FNDA:0,_ZZN6optikg10MainWindow12setupMenuBarEvENKUlbE_clEb
FNDA:0,_ZZN6optikg10MainWindow12setupMenuBarEvENKUlbE0_clEb
FNDA:0,_ZZN6optikg10MainWindow12setupMenuBarEvENKUlbE1_clEb
FNDA:0,_ZZN6optikg10MainWindow12setupMenuBarEvENKUlvE3_clEv
FNDA:32,_ZN6optikg10MainWindow12setupToolBarEv
FNDA:0,_ZZN6optikg10MainWindow12setupToolBarEvENKUlvE_clEv
FNDA:0,_ZZN6optikg10MainWindow12setupToolBarEvENKUlvE0_clEv
FNDA:0,_ZZN6optikg10MainWindow12setupToolBarEvENKUlvE1_clEv
FNDA:32,_ZN6optikg10MainWindow14setupStatusBarEv
FNDA:32,_ZN6optikg10MainWindow14setupShortcutsEv
FNDA:32,_ZN6optikg10MainWindow14connectSignalsEv
FNDA:0,_ZZN6optikg10MainWindow14connectSignalsEvENKUlxE_clEx
FNDA:0,_ZZN6optikg10MainWindow14connectSignalsEvENKUlxE0_clEx
FNDA:0,_ZZN6optikg10MainWindow14connectSignalsEvENKUlRK5QListIxEE_clES4_
FNDA:0,_ZZN6optikg10MainWindow14connectSignalsEvENKUlRK5QListIxEE0_clES4_
FNDA:0,_ZZN6optikg10MainWindow14connectSignalsEvENKUlRK7QStringS3_E_clES3_S3_
FNDA:0,_ZZN6optikg10MainWindow14connectSignalsEvENKUlRKNS_6TripleEE_clES3_
FNDA:32,_ZN6optikg10MainWindow12loadSettingsEv
FNDA:34,_ZN6optikg10MainWindow12saveSettingsEv
FNDA:4,_ZN6optikg10MainWindow9showToastERK7QStringb
FNDA:0,_ZZN6optikg10MainWindow9showToastERK7QStringbENKUlvE_clEv
FNDA:0,_ZN6optikg10MainWindow22updateGraphFromTriplesERK5QListINS_6TripleEE
FNDA:32,_ZN6optikg10MainWindowC2EP7QWidget
FNDA:2,_ZN6optikg10MainWindow16onExtractClickedEv
FNDA:0,_ZZN6optikg10MainWindow16onExtractClickedEvENKUlvE_clEv
FNDA:6,_ZN6optikg10MainWindow14onClearClickedEv
FNDA:0,_ZN6optikg10MainWindow21onBatchProcessClickedEv
FNDA:2,_ZN6optikg10MainWindow19onExportJsonClickedEv
FNDA:0,_ZN6optikg10MainWindow18onExportCsvClickedEv
FNDA:0,_ZZN6optikg10MainWindow18onExportCsvClickedEvENKUlRK7QStringE_clES3_
FNDA:0,_ZN6optikg10MainWindow17onSettingsClickedEv
FNDA:0,_ZN6optikg10MainWindow19onExtractionStartedEv
FNDA:0,_ZN6optikg10MainWindow20onExtractionFinishedERK5QListINS_6TripleEE
FNDA:0,_ZN6optikg10MainWindow17onExtractionErrorERK7QString
FNDA:0,_ZN6optikg10MainWindow17onProgressChangedEi
FNDA:0,_ZN6optikg10MainWindow20onBatchDeleteRecordsERK5QListIxE
FNDA:0,_ZN6optikg10MainWindow13onOpenClickedEv
FNDA:0,_ZN6optikg10MainWindowD0Ev
FNDA:32,_ZN6optikg10MainWindowD2Ev
FNDA:0,_ZN6optikg10MainWindow21onOpenTextFileClickedEv
FNDA:2,_ZN6optikg10MainWindow10closeEventEP11QCloseEvent
FNDA:0,_ZN6optikg10MainWindow17loadRecordDetailsEx
FNF:51
FNH:15
DA:46,32
DA:48,64
DA:49,32
DA:50,32
DA:51,32
DA:52,32
DA:53,32
DA:54,32
DA:55,32
DA:56,32
DA:57,32
DA:58,32
DA:59,32
DA:60,32
DA:62,32
DA:63,32
DA:64,32
DA:65,32
DA:66,32
DA:67,32
DA:70,32
DA:72,32
DA:75,32
DA:76,0
DA:80,32
DA:81,32
DA:84,32
DA:85,32
DA:86,32
DA:88,32
DA:89,32
DA:91,32
DA:92,0
DA:93,0
DA:96,32
DA:97,32
DA:99,2
DA:100,2
DA:101,2
DA:102,2
DA:104,0
DA:106,0
DA:107,0
DA:109,32
DA:111,32
DA:112,32
DA:113,32
DA:114,32
DA:117,32
DA:118,32
DA:119,32
DA:120,32
DA:123,32
DA:124,32
DA:125,32
DA:126,32
DA:129,32
DA:130,32
DA:131,32
DA:132,32
DA:134,32
DA:135,32
DA:138,32
DA:139,32
DA:140,32
DA:141,32
DA:142,32
DA:144,32
DA:145,32
DA:146,32
DA:147,32
DA:148,32
DA:150,32
DA:151,32
DA:152,32
DA:154,32
DA:155,32
DA:156,32
DA:158,32
DA:159,32
DA:160,32
DA:162,32
DA:163,32
DA:165,32
DA:166,32
DA:167,32
DA:168,32
DA:170,32
DA:171,32
DA:172,32
DA:173,32
DA:175,32
DA:176,32
DA:177,32
DA:179,32
DA:181,32
DA:182,32
DA:183,32
DA:184,0
DA:185,0
DA:187,32
DA:188,32
DA:189,32
DA:190,0
DA:191,0
DA:193,32
DA:194,32
DA:195,32
DA:196,0
DA:197,0
DA:199,32
DA:200,32
DA:201,32
DA:202,0
DA:203,0
DA:205,32
DA:207,32
DA:208,32
DA:209,32
DA:210,32
DA:211,0
DA:212,0
DA:214,32
DA:215,32
DA:216,32
DA:217,32
DA:218,0
DA:219,0
DA:221,32
DA:222,32
DA:223,32
DA:224,32
DA:225,0
DA:226,0
DA:228,32
DA:230,32
DA:231,32
DA:232,32
DA:234,0
DA:235,0
DA:236,0
DA:237,0
DA:238,0
DA:240,0
DA:241,0
DA:242,0
DA:244,32
DA:245,32
DA:246,32
DA:247,32
DA:249,32
DA:250,32
DA:251,32
DA:253,32
DA:254,32
DA:255,32
DA:256,32
DA:258,32
DA:259,32
DA:260,32
DA:261,32
DA:263,32
DA:264,32
DA:265,32
DA:268,32
DA:269,64
DA:270,32
DA:271,32
DA:272,32
DA:275,32
DA:276,64
DA:277,32
DA:278,32
DA:279,32
DA:281,32
DA:284,32
DA:285,32
DA:286,32
DA:287,32
DA:288,0
DA:289,0
DA:292,32
DA:293,32
DA:294,32
DA:295,32
DA:296,0
DA:297,0
DA:300,32
DA:301,32
DA:302,32
DA:303,32
DA:304,0
DA:305,0
DA:307,32
DA:310,32
DA:311,32
DA:312,32
DA:313,32
DA:316,32
DA:317,32
DA:318,32
DA:319,32
DA:322,32
DA:323,32
DA:324,32
DA:327,32
DA:329,32
DA:330,32
DA:331,32
DA:332,32
DA:334,32
DA:335,32
DA:337,32
DA:338,32
DA:340,32
DA:341,32
DA:345,32
DA:346,32
DA:347,32
DA:348,32
DA:349,32
DA:350,32
DA:352,32
DA:354,32
DA:356,32
DA:358,32
DA:359,32
DA:360,32
DA:361,32
DA:364,32
DA:365,32
DA:367,0
DA:368,0
DA:369,32
DA:370,32
DA:372,0
DA:373,0
DA:374,32
DA:375,32
DA:376,0
DA:377,0
DA:378,32
DA:379,32
DA:380,0
DA:381,0
DA:384,32
DA:385,32
DA:388,32
DA:389,32
DA:390,0
DA:391,0
DA:393,0
DA:394,0
DA:395,32
DA:396,32
DA:397,0
DA:398,0
DA:400,0
DA:401,0
DA:402,32
DA:404,32
DA:406,32
DA:409,32
DA:410,32
DA:411,32
DA:415,64
DA:416,32
DA:418,34
DA:420,34
DA:421,34
DA:422,34
DA:423,34
DA:425,4
DA:427,4
DA:430,4
DA:431,4
DA:434,4
DA:437,4
DA:438,0
DA:440,8
DA:444,4
DA:445,0
DA:446,0
DA:447,0
DA:449,0
DA:450,4
DA:452,0
DA:453,0
DA:455,0
DA:456,0
DA:457,0
DA:458,0
DA:460,0
DA:461,0
DA:462,0
DA:464,0
DA:465,0
DA:466,0
DA:467,0
DA:468,0
DA:469,0
DA:470,0
DA:471,0
DA:472,0
DA:473,0
DA:474,0
DA:475,0
DA:477,0
DA:478,0
DA:479,0
DA:480,0
DA:482,0
DA:484,0
DA:485,0
DA:486,0
DA:490,2
DA:491,2
DA:492,0
DA:493,2
DA:496,2
DA:497,2
DA:498,2
DA:499,2
DA:503,0
DA:504,0
DA:505,0
DA:506,0
DA:507,0
DA:508,0
DA:512,0
DA:513,0
DA:516,0
DA:517,0
DA:520,0
DA:521,0
DA:522,0
DA:526,0
DA:527,0
DA:530,0
DA:531,0
DA:532,0
DA:535,0
DA:536,0
DA:537,0
DA:538,0
DA:539,0
DA:540,0
DA:541,0
DA:542,0
DA:543,0
DA:544,0
DA:545,0
DA:548,0
DA:549,0
DA:550,2
DA:552,6
DA:553,6
DA:554,6
DA:556,6
DA:557,6
DA:559,6
DA:560,6
DA:564,6
DA:567,6
DA:568,6
DA:569,6
DA:571,0
DA:573,0
DA:574,0
DA:575,0
DA:577,2
DA:578,2
DA:579,2
DA:580,2
DA:584,0
DA:585,0
DA:586,0
DA:588,0
DA:589,0
DA:593,0
DA:594,0
DA:598,0
DA:599,0
DA:600,0
DA:603,0
DA:604,0
DA:605,0
DA:606,0
DA:607,0
DA:610,0
DA:611,0
DA:612,0
DA:613,0
DA:614,0
DA:617,0
DA:618,0
DA:619,0
DA:621,0
DA:622,0
DA:625,0
DA:626,0
DA:627,0
DA:628,0
DA:629,0
DA:631,0
DA:634,0
DA:635,0
DA:636,0
DA:637,0
DA:640,0
DA:641,0
DA:643,0
DA:644,0
DA:646,0
DA:647,0
DA:648,0
DA:649,0
DA:653,0
DA:654,0
DA:655,0
DA:657,0
DA:658,0
DA:662,0
DA:663,0
DA:666,0
DA:667,0
DA:668,0
DA:669,0
DA:672,0
DA:676,0
DA:678,0
DA:680,0
DA:681,0
DA:682,0
DA:683,0
DA:684,0
DA:688,0
DA:689,0
DA:690,0
DA:691,0
DA:692,0
DA:693,0
DA:694,0
DA:695,0
DA:696,0
DA:699,0
DA:700,0
DA:701,0
DA:702,0
DA:703,0
DA:704,0
DA:705,0
DA:706,0
DA:707,0
DA:708,0
DA:711,0
DA:713,0
DA:714,0
DA:716,0
DA:718,0
DA:719,0
DA:722,0
DA:723,0
DA:724,0
DA:726,0
DA:727,0
DA:729,0
DA:730,0
DA:731,0
DA:734,0
DA:735,0
DA:737,0
DA:739,0
DA:740,0
DA:741,0
DA:743,0
DA:746,0
DA:747,0
DA:748,0
DA:749,0
DA:751,0
DA:752,0
DA:754,0
DA:755,0
DA:758,0
DA:761,0
DA:764,0
DA:765,0
DA:769,0
DA:772,0
DA:775,0
DA:776,0
DA:779,0
DA:780,0
DA:782,0
DA:783,0
DA:784,0
DA:787,0
DA:788,0
DA:791,0
DA:792,0
DA:794,0
DA:795,0
DA:796,0
DA:798,0
DA:799,0
DA:800,0
DA:803,0
DA:804,0
DA:807,0
DA:811,0
DA:812,0
DA:815,0
DA:816,0
DA:817,0
DA:819,0
DA:820,0
DA:821,0
DA:824,0
DA:826,0
DA:827,0
DA:828,0
DA:829,0
DA:830,0
DA:831,0
DA:832,0
DA:833,0
DA:835,0
DA:836,0
DA:837,0
DA:838,0
DA:840,0
DA:841,0
DA:842,0
DA:843,0
DA:844,0
DA:845,0
DA:846,0
DA:847,0
DA:848,0
DA:849,0
DA:851,0
DA:852,0
DA:853,0
DA:854,0
DA:857,0
DA:858,0
DA:859,0
DA:862,0
DA:863,0
DA:864,0
DA:868,0
DA:869,0
DA:870,0
DA:871,0
DA:872,0
DA:873,0
DA:874,0
DA:875,0
DA:877,0
DA:878,0
DA:879,0
DA:880,0
DA:881,0
DA:882,0
DA:883,0
DA:884,0
DA:886,0
DA:887,0
DA:888,0
DA:889,0
DA:892,0
DA:893,0
DA:894,0
DA:895,0
DA:896,0
DA:897,0
DA:899,0
DA:900,0
DA:901,0
DA:902,0
DA:906,0
DA:907,0
DA:908,0
DA:909,0
DA:910,0
DA:913,0
DA:914,0
DA:915,0
DA:916,0
DA:919,0
DA:920,0
DA:921,0
DA:922,0
DA:923,0
DA:926,0
DA:927,0
DA:928,0
DA:929,0
DA:932,0
DA:933,0
DA:934,0
DA:935,0
DA:936,0
DA:937,0
DA:939,0
DA:940,0
DA:942,0
DA:945,0
DA:946,0
DA:949,0
DA:950,0
DA:951,0
DA:953,0
DA:957,0
DA:960,0
DA:961,0
DA:963,0
DA:964,0
DA:967,0
DA:968,0
DA:969,0
DA:971,0
DA:973,0
DA:974,0
DA:975,0
DA:977,0
DA:978,0
DA:981,0
DA:982,0
DA:983,0
DA:984,0
DA:987,0
DA:988,0
DA:989,0
DA:990,0
DA:993,0
DA:994,0
DA:995,0
DA:997,0
DA:999,0
DA:1001,0
DA:1002,0
DA:1003,0
DA:1004,0
DA:1008,0
DA:1009,0
DA:1013,0
DA:1016,0
DA:1017,0
DA:1021,0
DA:1024,0
DA:1025,0
DA:1027,0
DA:1028,0
DA:1031,0
DA:1032,0
DA:1034,0
DA:1068,0
DA:1070,0
DA:1071,0
DA:1072,0
DA:1073,0
DA:1074,0
DA:1075,0
DA:1076,0
DA:1077,0
DA:1078,0
DA:1080,0
DA:1094,0
DA:1096,0
DA:1097,0
LF:672
LH:254
end_of_record
TN:
SF:/home/fed/Documents/clion-workspace/qt-try/src/ui/mainwindow.h
FN:31,31,_ZN6optikg10MainWindow2trEPKcS2_i
FNDA:1360,_ZN6optikg10MainWindow2trEPKcS2_i
FNF:1
FNH:1
DA:31,1360
LF:1
LH:1
end_of_record
TN:
SF:/home/fed/Documents/clion-workspace/qt-try/src/ui/resulttreewidget.cpp
FN:10,13,_ZN6optikg16ResultTreeWidgetC2EP7QWidget
FN:113,115,_ZN6optikg16ResultTreeWidget12clearResultsEv
FN:117,130,_ZN6optikg16ResultTreeWidget16createEntityItemERKNS_6EntityE
FN:132,146,_ZN6optikg16ResultTreeWidget16createTripleItemERKNS_6TripleE
FN:148,150,_ZN6optikg16ResultTreeWidget18confidenceToStringEf
FN:15,48,_ZN6optikg16ResultTreeWidget7setupUiEv
FN:152,156,_ZN6optikg16ResultTreeWidget17confidenceToColorEf
FN:35,47,_ZZN6optikg16ResultTreeWidget7setupUiEvENKUlP15QTreeWidgetItemiE_clES2_i
FN:50,111,_ZN6optikg16ResultTreeWidget10setResultsERK5QListINS_6TripleEE
FNDA:32,_ZN6optikg16ResultTreeWidgetC2EP7QWidget
FNDA:6,_ZN6optikg16ResultTreeWidget12clearResultsEv
FNDA:0,_ZN6optikg16ResultTreeWidget16createEntityItemERKNS_6EntityE
FNDA:0,_ZN6optikg16ResultTreeWidget16createTripleItemERKNS_6TripleE
FNDA:0,_ZN6optikg16ResultTreeWidget18confidenceToStringEf
FNDA:32,_ZN6optikg16ResultTreeWidget7setupUiEv
FNDA:0,_ZN6optikg16ResultTreeWidget17confidenceToColorEf
FNDA:0,_ZZN6optikg16ResultTreeWidget7setupUiEvENKUlP15QTreeWidgetItemiE_clES2_i
FNDA:0,_ZN6optikg16ResultTreeWidget10setResultsERK5QListINS_6TripleEE
FNF:9
FNH:3
DA:10,32
DA:11,32
DA:12,32
DA:13,32
DA:15,32
DA:16,32
DA:17,128
DA:19,32
DA:20,32
DA:21,32
DA:22,32
DA:23,32
DA:24,32
DA:26,32
DA:27,32
DA:28,32
DA:29,32
DA:30,32
DA:33,32
DA:35,32
DA:37,0
DA:38,0
DA:39,0
DA:40,0
DA:41,0
DA:42,0
DA:43,0
DA:44,0
DA:45,0
DA:47,0
DA:48,64
DA:50,0
DA:51,0
DA:54,0
DA:55,0
DA:57,0
DA:58,0
DA:59,0
DA:60,0
DA:64,0
DA:65,0
DA:66,0
DA:68,0
DA:69,0
DA:70,0
DA:71,0
DA:74,0
DA:75,0
DA:76,0
DA:77,0
DA:81,0
DA:82,0
DA:83,0
DA:85,0
DA:88,0
DA:89,0
DA:90,0
DA:92,0
DA:93,0
DA:94,0
DA:95,0
DA:97,0
DA:98,0
DA:99,0
DA:104,0
DA:105,0
DA:106,0
DA:107,0
DA:108,0
DA:109,0
DA:111,0
DA:113,6
DA:114,6
DA:115,6
DA:117,0
DA:118,0
DA:119,0
DA:120,0
DA:121,0
DA:124,0
DA:127,0
DA:129,0
DA:132,0
DA:133,0
DA:134,0
DA:135,0
DA:136,0
DA:137,0
DA:140,0
DA:143,0
DA:145,0
DA:146,0
DA:148,0
DA:149,0
DA:152,0
DA:153,0
DA:154,0
DA:155,0
LF:98
LH:24
end_of_record
TN:
SF:/home/fed/Documents/clion-workspace/qt-try/src/ui/resulttreewidget.h
FN:9,9,_ZN6optikg16ResultTreeWidget2trEPKcS2_i
FNDA:96,_ZN6optikg16ResultTreeWidget2trEPKcS2_i
FNF:1
FNH:1
DA:9,96
LF:1
LH:1
end_of_record
TN:
SF:/home/fed/Documents/clion-workspace/qt-try/src/ui/settingsdialog.cpp
FN:122,166,_ZN6optikg14SettingsDialog15createModelPageEv
FN:168,213,_ZN6optikg14SettingsDialog15createBatchPageEv
FN:215,245,_ZN6optikg14SettingsDialog12loadSettingsEv
FN:23,30,_ZN6optikg14SettingsDialogC2EP7QWidget
FN:247,266,_ZN6optikg14SettingsDialog12saveSettingsEv
FN:268,271,_ZN6optikg14SettingsDialog14onApplyClickedEv
FN:273,276,_ZN6optikg14SettingsDialog11onOkClickedEv
FN:278,288,_ZN6optikg14SettingsDialog15onCancelClickedEv
FN:290,310,_ZN6optikg14SettingsDialog24onRestoreDefaultsClickedEv
FN:312,322,_ZN6optikg14SettingsDialog20onBrowseModelClickedEv
FN:32,32,_ZN6optikg14SettingsDialogD0Ev
FN:32,32,_ZN6optikg14SettingsDialogD2Ev
FN:324,334,_ZN6optikg14SettingsDialog24onBrowseOutputDirClickedEv
FN:34,69,_ZN6optikg14SettingsDialog7setupUiEv
FN:71,120,_ZN6optikg14SettingsDialog22createFieldMappingPageEv
FNDA:0,_ZN6optikg14SettingsDialog15createModelPageEv
FNDA:0,_ZN6optikg14SettingsDialog15createBatchPageEv
FNDA:0,_ZN6optikg14SettingsDialog12loadSettingsEv
FNDA:0,_ZN6optikg14SettingsDialogC2EP7QWidget
FNDA:0,_ZN6optikg14SettingsDialog12saveSettingsEv
FNDA:0,_ZN6optikg14SettingsDialog14onApplyClickedEv
FNDA:0,_ZN6optikg14SettingsDialog11onOkClickedEv
FNDA:0,_ZN6optikg14SettingsDialog15onCancelClickedEv
FNDA:0,_ZN6optikg14SettingsDialog24onRestoreDefaultsClickedEv
FNDA:0,_ZN6optikg14SettingsDialog20onBrowseModelClickedEv
FNDA:0,_ZN6optikg14SettingsDialogD0Ev
FNDA:0,_ZN6optikg14SettingsDialogD2Ev
FNDA:0,_ZN6optikg14SettingsDialog24onBrowseOutputDirClickedEv
FNDA:0,_ZN6optikg14SettingsDialog7setupUiEv
FNDA:0,_ZN6optikg14SettingsDialog22createFieldMappingPageEv
FNF:15
FNH:0
DA:23,0
DA:24,0
DA:25,0
DA:26,0
DA:28,0
DA:29,0
DA:30,0
DA:32,0
DA:34,0
DA:35,0
DA:38,0
DA:39,0
DA:40,0
DA:41,0
DA:42,0
DA:45,0
DA:46,0
DA:48,0
DA:49,0
DA:50,0
DA:52,0
DA:54,0
DA:55,0
DA:56,0
DA:58,0
DA:59,0
DA:60,0
DA:61,0
DA:63,0
DA:64,0
DA:65,0
DA:67,0
DA:68,0
DA:69,0
DA:71,0
DA:72,0
DA:73,0
DA:77,0
DA:79,0
DA:80,0
DA:81,0
DA:82,0
DA:85,0
DA:86,0
DA:88,0
DA:89,0
DA:90,0
DA:91,0
DA:94,0
DA:95,0
DA:96,0
DA:97,0
DA:99,0
DA:102,0
DA:103,0
DA:105,0
DA:106,0
DA:107,0
DA:108,0
DA:110,0
DA:111,0
DA:112,0
DA:113,0
DA:114,0
DA:116,0
DA:117,0
DA:119,0
DA:122,0
DA:123,0
DA:124,0
DA:128,0
DA:129,0
DA:130,0
DA:131,0
DA:132,0
DA:135,0
DA:136,0
DA:138,0
DA:139,0
DA:140,0
DA:141,0
DA:142,0
DA:143,0
DA:144,0
DA:145,0
DA:146,0
DA:148,0
DA:149,0
DA:150,0
DA:151,0
DA:152,0
DA:153,0
DA:154,0
DA:157,0
DA:158,0
DA:159,0
DA:160,0
DA:162,0
DA:163,0
DA:165,0
DA:168,0
DA:169,0
DA:170,0
DA:174,0
DA:175,0
DA:176,0
DA:177,0
DA:178,0
DA:181,0
DA:182,0
DA:184,0
DA:185,0
DA:186,0
DA:187,0
DA:188,0
DA:189,0
DA:190,0
DA:191,0
DA:192,0
DA:194,0
DA:195,0
DA:196,0
DA:197,0
DA:199,0
DA:202,0
DA:203,0
DA:205,0
DA:206,0
DA:207,0
DA:209,0
DA:210,0
DA:212,0
DA:215,0
DA:216,0
DA:219,0
DA:220,0
DA:222,0
DA:223,0
DA:224,0
DA:225,0
DA:227,0
DA:231,0
DA:232,0
DA:235,0
DA:236,0
DA:238,0
DA:239,0
DA:240,0
DA:241,0
DA:244,0
DA:245,0
DA:247,0
DA:248,0
DA:251,0
DA:252,0
DA:253,0
DA:256,0
DA:257,0
DA:260,0
DA:261,0
DA:262,0
DA:264,0
DA:265,0
DA:266,0
DA:268,0
DA:269,0
DA:270,0
DA:271,0
DA:273,0
DA:274,0
DA:275,0
DA:276,0
DA:278,0
DA:279,0
DA:280,0
DA:281,0
DA:283,0
DA:284,0
DA:287,0
DA:290,0
DA:291,0
DA:292,0
DA:295,0
DA:296,0
DA:300,0
DA:301,0
DA:302,0
DA:303,0
DA:304,0
DA:305,0
DA:306,0
DA:307,0
DA:309,0
DA:312,0
DA:313,0
DA:314,0
DA:315,0
DA:316,0
DA:318,0
DA:319,0
DA:320,0
DA:322,0
DA:324,0
DA:326,0
DA:327,0
DA:328,0
DA:330,0
DA:331,0
DA:332,0
DA:334,0
LF:210
LH:0
end_of_record
TN:
SF:/home/fed/Documents/clion-workspace/qt-try/src/ui/settingsdialog.h
FN:26,26,_ZN6optikg14SettingsDialog2trEPKcS2_i
FNDA:0,_ZN6optikg14SettingsDialog2trEPKcS2_i
FNF:1
FNH:0
DA:26,0
LF:1
LH:0
end_of_record
TN:
SF:/home/fed/Documents/clion-workspace/qt-try/src/utils/appconstants.cpp
FN:106,114,_ZN6optikg12AppConstants4File15getCsvEncodingsEv
FN:116,121,_ZN6optikg12AppConstants4File16getExportFormatsEv
FN:125,136,_ZN6optikg12AppConstants16getEntityTypeMapEv
FN:159,188,_ZN6optikg12AppConstants10initializeEv
FN:190,196,_ZN6optikg12AppConstants12saveSettingsEv
FN:198,204,_ZN6optikg12AppConstants15resetToDefaultsEv
FN:206,209,_ZN6optikg12AppConstants9chunkSizeEv
FN:211,218,_ZN6optikg12AppConstants12setChunkSizeEi
FN:220,223,_ZN6optikg12AppConstants11overlapSizeEv
FN:225,232,_ZN6optikg12AppConstants14setOverlapSizeEi
FN:234,237,_ZN6optikg12AppConstants8maxCharsEv
FN:239,246,_ZN6optikg12AppConstants11setMaxCharsEi
FN:248,251,_ZN6optikg12AppConstants5Model18DEFAULT_CHUNK_SIZEEv
FN:253,256,_ZN6optikg12AppConstants5Model20DEFAULT_OVERLAP_SIZEEv
FN:258,261,_ZN6optikg12AppConstants5Model9MAX_CHARSEv
FN:263,265,_ZN6optikg12AppConstants5Model17validateChunkSizeEi
FN:267,269,_ZN6optikg12AppConstants5Model19validateOverlapSizeEi
FN:271,273,_ZN6optikg12AppConstants5Model16validateMaxCharsEi
FN:39,94,_ZN6optikg12AppConstants5Model19getModelSearchPathsERK7QString
FNDA:0,_ZN6optikg12AppConstants4File15getCsvEncodingsEv
FNDA:0,_ZN6optikg12AppConstants4File16getExportFormatsEv
FNDA:0,_ZN6optikg12AppConstants16getEntityTypeMapEv
FNDA:0,_ZN6optikg12AppConstants10initializeEv
FNDA:0,_ZN6optikg12AppConstants12saveSettingsEv
FNDA:0,_ZN6optikg12AppConstants15resetToDefaultsEv
FNDA:0,_ZN6optikg12AppConstants9chunkSizeEv
FNDA:0,_ZN6optikg12AppConstants12setChunkSizeEi
FNDA:0,_ZN6optikg12AppConstants11overlapSizeEv
FNDA:0,_ZN6optikg12AppConstants14setOverlapSizeEi
FNDA:0,_ZN6optikg12AppConstants8maxCharsEv
FNDA:0,_ZN6optikg12AppConstants11setMaxCharsEi
FNDA:0,_ZN6optikg12AppConstants5Model18DEFAULT_CHUNK_SIZEEv
FNDA:0,_ZN6optikg12AppConstants5Model20DEFAULT_OVERLAP_SIZEEv
FNDA:0,_ZN6optikg12AppConstants5Model9MAX_CHARSEv
FNDA:0,_ZN6optikg12AppConstants5Model17validateChunkSizeEi
FNDA:0,_ZN6optikg12AppConstants5Model19validateOverlapSizeEi
FNDA:0,_ZN6optikg12AppConstants5Model16validateMaxCharsEi
FNDA:0,_ZN6optikg12AppConstants5Model19getModelSearchPathsERK7QString
FNF:19
FNH:0
DA:39,0
DA:40,0
DA:44,0
DA:45,0
DA:46,0
DA:47,0
DA:48,0
DA:49,0
DA:50,0
DA:51,0
DA:52,0
DA:55,0
DA:56,0
DA:57,0
DA:81,0
DA:82,0
DA:83,0
DA:84,0
DA:93,0
DA:94,0
DA:106,0
DA:113,0
DA:116,0
DA:120,0
DA:125,0
DA:126,0
DA:128,0
DA:129,0
DA:130,0
DA:131,0
DA:132,0
DA:135,0
DA:136,0
DA:159,0
DA:160,0
DA:161,0
DA:164,0
DA:167,0
DA:168,0
DA:169,0
DA:172,0
DA:173,0
DA:174,0
DA:176,0
DA:177,0
DA:178,0
DA:180,0
DA:181,0
DA:182,0
DA:185,0
DA:186,0
DA:187,0
DA:188,0
DA:190,0
DA:191,0
DA:192,0
DA:193,0
DA:194,0
DA:195,0
DA:196,0
DA:198,0
DA:199,0
DA:200,0
DA:201,0
DA:202,0
DA:203,0
DA:204,0
DA:206,0
DA:207,0
DA:208,0
DA:211,0
DA:212,0
DA:213,0
DA:214,0
DA:216,0
DA:218,0
DA:220,0
DA:221,0
DA:222,0
DA:225,0
DA:226,0
DA:227,0
DA:228,0
DA:230,0
DA:232,0
DA:234,0
DA:235,0
DA:236,0
DA:239,0
DA:240,0
DA:241,0
DA:242,0
DA:244,0
DA:246,0
DA:248,0
DA:249,0
DA:250,0
DA:253,0
DA:254,0
DA:255,0
DA:258,0
DA:259,0
DA:260,0
DA:263,0
DA:264,0
DA:267,0
DA:268,0
DA:271,0
DA:272,0
LF:109
LH:0
end_of_record
TN:
SF:/home/fed/Documents/clion-workspace/qt-try/src/utils/appconstants.h
FNF:0
FNH:0
LF:0
LH:0
end_of_record
TN:
SF:/home/fed/Documents/clion-workspace/qt-try/src/utils/configmanager.cpp
FN:103,105,_ZNK6optikg13ConfigManager19getCsvContentColumnEv
FN:107,113,_ZN6optikg13ConfigManager14setCsvEncodingERK7QString
FN:115,117,_ZNK6optikg13ConfigManager14getCsvEncodingEv
FN:121,127,_ZN6optikg13ConfigManager12setModelPathERK7QString
FN:129,131,_ZNK6optikg13ConfigManager12getModelPathEv
FN:133,169,_ZN6optikg13ConfigManager19autoDetectModelPathEv
FN:171,181,_ZN6optikg13ConfigManager12setThresholdEf
FN:183,185,_ZNK6optikg13ConfigManager12getThresholdEv
FN:189,195,_ZN6optikg13ConfigManager17setBatchOutputDirERK7QString
FN:197,199,_ZNK6optikg13ConfigManager17getBatchOutputDirEv
FN:201,207,_ZN6optikg13ConfigManager13setAutoExportEb
FN:209,211,_ZNK6optikg13ConfigManager13getAutoExportEv
FN:213,219,_ZN6optikg13ConfigManager22setDefaultExportFormatERK7QString
FN:221,223,_ZNK6optikg13ConfigManager22getDefaultExportFormatEv
FN:225,231,_ZN6optikg13ConfigManager17setSaveToDatabaseEb
FN:233,235,_ZNK6optikg13ConfigManager17getSaveToDatabaseEv
FN:239,241,_ZN6optikg13ConfigManager17setWindowGeometryERK10QByteArray
FN:243,245,_ZNK6optikg13ConfigManager17getWindowGeometryEv
FN:247,252,_ZN6optikg13ConfigManager12saveSettingsEv
FN:28,32,_ZN6optikg13ConfigManagerC2EP7QObject
FN:34,39,_ZN6optikg13ConfigManagerD0Ev
FN:34,39,_ZN6optikg13ConfigManagerD2Ev
FN:41,79,_ZN6optikg13ConfigManager10initializeEv
FN:83,89,_ZN6optikg13ConfigManager19setJsonContentFieldERK7QString
FN:91,93,_ZNK6optikg13ConfigManager19getJsonContentFieldEv
FN:95,101,_ZN6optikg13ConfigManager19setCsvContentColumnERK7QString
FNDA:4,_ZNK6optikg13ConfigManager19getCsvContentColumnEv
FNDA:2,_ZN6optikg13ConfigManager14setCsvEncodingERK7QString
FNDA:4,_ZNK6optikg13ConfigManager14getCsvEncodingEv
FNDA:6,_ZN6optikg13ConfigManager12setModelPathERK7QString
FNDA:2,_ZNK6optikg13ConfigManager12getModelPathEv
FNDA:8,_ZN6optikg13ConfigManager19autoDetectModelPathEv
FNDA:6,_ZN6optikg13ConfigManager12setThresholdEf
FNDA:38,_ZNK6optikg13ConfigManager12getThresholdEv
FNDA:2,_ZN6optikg13ConfigManager17setBatchOutputDirERK7QString
FNDA:2,_ZNK6optikg13ConfigManager17getBatchOutputDirEv
FNDA:12,_ZN6optikg13ConfigManager13setAutoExportEb
FNDA:44,_ZNK6optikg13ConfigManager13getAutoExportEv
FNDA:2,_ZN6optikg13ConfigManager22setDefaultExportFormatERK7QString
FNDA:36,_ZNK6optikg13ConfigManager22getDefaultExportFormatEv
FNDA:10,_ZN6optikg13ConfigManager17setSaveToDatabaseEb
FNDA:42,_ZNK6optikg13ConfigManager17getSaveToDatabaseEv
FNDA:36,_ZN6optikg13ConfigManager17setWindowGeometryERK10QByteArray
FNDA:34,_ZNK6optikg13ConfigManager17getWindowGeometryEv
FNDA:38,_ZN6optikg13ConfigManager12saveSettingsEv
FNDA:14,_ZN6optikg13ConfigManagerC2EP7QObject
FNDA:0,_ZN6optikg13ConfigManagerD0Ev
FNDA:14,_ZN6optikg13ConfigManagerD2Ev
FNDA:79,_ZN6optikg13ConfigManager10initializeEv
FNDA:8,_ZN6optikg13ConfigManager19setJsonContentFieldERK7QString
FNDA:8,_ZNK6optikg13ConfigManager19getJsonContentFieldEv
FNDA:2,_ZN6optikg13ConfigManager19setCsvContentColumnERK7QString
FNF:26
FNH:25
DA:28,14
DA:30,14
DA:31,14
DA:32,14
DA:34,14
DA:35,14
DA:36,14
DA:37,14
DA:39,14
DA:41,79
DA:42,79
DA:43,65
DA:47,14
DA:48,14
DA:49,14
DA:50,2
DA:51,0
DA:57,0
DA:60,28
DA:61,14
DA:63,28
DA:66,14
DA:67,14
DA:68,14
DA:69,14
DA:70,14
DA:71,14
DA:72,14
DA:73,14
DA:74,14
DA:76,14
DA:77,14
DA:78,14
DA:79,14
DA:83,8
DA:84,8
DA:85,4
DA:86,4
DA:87,4
DA:89,8
DA:91,8
DA:92,8
DA:95,2
DA:96,2
DA:97,2
DA:98,2
DA:99,2
DA:101,2
DA:103,4
DA:104,4
DA:107,2
DA:108,2
DA:109,2
DA:110,2
DA:111,2
DA:113,2
DA:115,4
DA:116,4
DA:121,6
DA:122,6
DA:123,6
DA:124,6
DA:125,6
DA:127,6
DA:129,2
DA:130,2
DA:133,8
DA:135,8
DA:136,6
DA:140,2
DA:141,2
DA:145,2
DA:146,2
DA:147,2
DA:148,2
DA:149,2
DA:150,2
DA:151,2
DA:152,2
DA:155,4
DA:156,4
DA:157,4
DA:158,2
DA:159,4
DA:162,2
DA:163,2
DA:164,2
DA:165,4
DA:167,0
DA:168,0
DA:169,2
DA:171,6
DA:173,6
DA:174,4
DA:176,2
DA:177,2
DA:178,2
DA:179,2
DA:183,38
DA:184,38
DA:189,2
DA:190,2
DA:191,2
DA:192,2
DA:193,2
DA:195,2
DA:197,2
DA:198,2
DA:201,12
DA:202,12
DA:203,8
DA:204,8
DA:205,8
DA:207,12
DA:209,44
DA:210,44
DA:213,2
DA:214,2
DA:215,2
DA:216,2
DA:217,2
DA:219,2
DA:221,36
DA:222,36
DA:225,10
DA:226,10
DA:227,6
DA:228,6
DA:229,6
DA:231,10
DA:233,42
DA:234,42
DA:239,36
DA:240,36
DA:241,36
DA:243,34
DA:244,34
DA:247,38
DA:248,38
DA:249,38
DA:250,38
DA:252,38
LF:142
LH:138
end_of_record
TN:
SF:/home/fed/Documents/clion-workspace/qt-try/src/utils/configmanager.h
FN:29,32,_ZN6optikg13ConfigManager8instanceEv
FNDA:221,_ZN6optikg13ConfigManager8instanceEv
FNF:1
FNH:1
DA:29,221
DA:30,221
DA:31,221
LF:3
LH:3
end_of_record
TN:
SF:/home/fed/Documents/clion-workspace/qt-try/src/utils/logger.cpp
FN:117,119,_ZN6optikg6Logger5debugERK7QString
FN:121,123,_ZN6optikg6Logger4infoERK7QString
FN:125,127,_ZN6optikg6Logger7warningERK7QString
FN:129,131,_ZN6optikg6Logger5errorERK7QString
FN:133,135,_ZN6optikg6Logger8criticalERK7QString
FN:137,148,_ZN6optikg6Logger8shutdownEv
FN:14,17,_ZN6optikg6Logger8instanceEv
FN:150,159,_ZNK6optikg6Logger13levelToStringENS_8LogLevelE
FN:161,165,_ZNK6optikg6Logger16getDefaultLogDirEv
FN:167,170,_ZNK6optikg6Logger23generateDefaultFileNameEv
FN:172,177,_ZN6optikg6Logger11writeToFileERK7QString
FN:180,231,_ZN6optikg6Logger16qtMessageHandlerE9QtMsgTypeRK18QMessageLogContextRK7QString
FN:19,22,_ZN6optikg6LoggerC2Ev
FN:233,236,_ZN6optikg6Logger23installQtMessageHandlerEb
FN:238,240,_ZN6optikg6Logger28restoreDefaultMessageHandlerEv
FN:24,26,_ZN6optikg6LoggerD2Ev
FN:28,78,_ZN6optikg6Logger10initializeERK7QStringS3_
FN:80,83,_ZN6optikg6Logger11setLogLevelENS_8LogLevelE
FN:85,88,_ZNK6optikg6Logger8logLevelEv
FN:90,115,_ZN6optikg6Logger3logENS_8LogLevelERK7QString
FNDA:2537,_ZN6optikg6Logger5debugERK7QString
FNDA:410,_ZN6optikg6Logger4infoERK7QString
FNDA:60,_ZN6optikg6Logger7warningERK7QString
FNDA:40238,_ZN6optikg6Logger5errorERK7QString
FNDA:0,_ZN6optikg6Logger8criticalERK7QString
FNDA:16,_ZN6optikg6Logger8shutdownEv
FNDA:43245,_ZN6optikg6Logger8instanceEv
FNDA:40708,_ZNK6optikg6Logger13levelToStringENS_8LogLevelE
FNDA:14,_ZNK6optikg6Logger16getDefaultLogDirEv
FNDA:14,_ZNK6optikg6Logger23generateDefaultFileNameEv
FNDA:40736,_ZN6optikg6Logger11writeToFileERK7QString
FNDA:0,_ZN6optikg6Logger16qtMessageHandlerE9QtMsgTypeRK18QMessageLogContextRK7QString
FNDA:16,_ZN6optikg6LoggerC2Ev
FNDA:0,_ZN6optikg6Logger23installQtMessageHandlerEb
FNDA:0,_ZN6optikg6Logger28restoreDefaultMessageHandlerEv
FNDA:16,_ZN6optikg6LoggerD2Ev
FNDA:14,_ZN6optikg6Logger10initializeERK7QStringS3_
FNDA:0,_ZN6optikg6Logger11setLogLevelENS_8LogLevelE
FNDA:0,_ZNK6optikg6Logger8logLevelEv
FNDA:43245,_ZN6optikg6Logger3logENS_8LogLevelERK7QString
FNF:20
FNH:14
DA:14,43245
DA:15,43245
DA:16,43245
DA:19,16
DA:20,16
DA:21,16
DA:22,16
DA:24,16
DA:25,16
DA:26,16
DA:28,14
DA:29,14
DA:31,14
DA:32,0
DA:36,14
DA:37,14
DA:38,14
DA:42,14
DA:43,14
DA:44,2
DA:45,0
DA:46,0
DA:51,14
DA:52,14
DA:53,14
DA:56,14
DA:59,14
DA:60,14
DA:61,0
DA:62,0
DA:65,14
DA:67,14
DA:70,28
DA:71,28
DA:72,28
DA:73,28
DA:75,14
DA:77,14
DA:78,14
DA:80,0
DA:81,0
DA:82,0
DA:83,0
DA:85,0
DA:86,0
DA:87,0
DA:88,0
DA:90,43245
DA:91,43245
DA:92,2537
DA:95,40708
DA:97,40708
DA:99,14
DA:101,0
DA:102,0
DA:106,40708
DA:107,40708
DA:108,40708
DA:109,81416
DA:110,81416
DA:111,81416
DA:112,40708
DA:114,40708
DA:115,40708
DA:117,2537
DA:118,2537
DA:119,2537
DA:121,410
DA:122,410
DA:123,410
DA:125,60
DA:126,60
DA:127,60
DA:129,40238
DA:130,40238
DA:131,40238
DA:133,0
DA:134,0
DA:135,0
DA:137,16
DA:138,16
DA:140,16
DA:141,28
DA:142,28
DA:144,14
DA:145,14
DA:146,14
DA:148,16
DA:150,40708
DA:151,40708
DA:152,0
DA:153,410
DA:154,60
DA:155,40238
DA:156,0
DA:157,0
DA:161,14
DA:163,14
DA:164,28
DA:165,14
DA:167,14
DA:168,14
DA:169,42
DA:170,14
DA:172,40736
DA:173,40736
DA:174,40736
DA:175,40736
DA:177,40736
DA:180,0
DA:183,0
DA:184,0
DA:185,0
DA:186,0
DA:187,0
DA:188,0
DA:189,0
DA:190,0
DA:191,0
DA:192,0
DA:193,0
DA:194,0
DA:195,0
DA:196,0
DA:197,0
DA:198,0
DA:200,0
DA:202,0
DA:204,0
DA:209,0
DA:212,0
DA:213,0
DA:214,0
DA:215,0
DA:217,0
DA:218,0
DA:219,0
DA:220,0
DA:221,0
DA:222,0
DA:223,0
DA:224,0
DA:225,0
DA:227,0
DA:229,0
DA:230,0
DA:231,0
DA:233,0
DA:234,0
DA:235,0
DA:236,0
DA:238,0
DA:239,0
DA:240,0
LF:154
LH:88
end_of_record
TN:
SF:/home/fed/Documents/clion-workspace/qt-try/src/utils/stylemanager.cpp
FN:14,33,_ZN6optikg12StyleManager10initializeEv
FN:35,53,_ZN6optikg12StyleManager14loadStyleSheetERK7QString
FN:55,73,_ZN6optikg12StyleManager26loadStyleSheetFromResourceERK7QString
FN:75,79,_ZN6optikg12StyleManager15applyStyleSheetERK7QString
FN:81,86,_ZN6optikg12StyleManager18reloadCurrentThemeEv
FN:9,12,_ZN6optikg12StyleManager8instanceEv
FNDA:0,_ZN6optikg12StyleManager10initializeEv
FNDA:0,_ZN6optikg12StyleManager14loadStyleSheetERK7QString
FNDA:0,_ZN6optikg12StyleManager26loadStyleSheetFromResourceERK7QString
FNDA:0,_ZN6optikg12StyleManager15applyStyleSheetERK7QString
FNDA:0,_ZN6optikg12StyleManager18reloadCurrentThemeEv
FNDA:0,_ZN6optikg12StyleManager8instanceEv
FNF:6
FNH:0
DA:9,0
DA:10,0
DA:11,0
DA:14,0
DA:16,0
DA:22,0
DA:24,0
DA:25,0
DA:26,0
DA:27,0
DA:31,0
DA:32,0
DA:35,0
DA:36,0
DA:37,0
DA:38,0
DA:39,0
DA:42,0
DA:43,0
DA:44,0
DA:47,0
DA:48,0
DA:49,0
DA:51,0
DA:52,0
DA:53,0
DA:55,0
DA:56,0
DA:57,0
DA:58,0
DA:59,0
DA:62,0
DA:63,0
DA:64,0
DA:67,0
DA:68,0
DA:69,0
DA:71,0
DA:72,0
DA:73,0
DA:75,0
DA:76,0
DA:77,0
DA:78,0
DA:79,0
DA:81,0
DA:83,0
DA:84,0
DA:85,0
LF:49
LH:0
end_of_record
TN:
SF:/home/fed/Documents/clion-workspace/qt-try/src/utils/stylemanager.h
FN:62,62,_ZN6optikg12StyleManagerD2Ev
FNDA:0,_ZN6optikg12StyleManagerD2Ev
FNF:1
FNH:0
DA:62,0
LF:1
LH:0
end_of_record
TN:
SF:/home/fed/Documents/clion-workspace/qt-try/tests/test_batchprocessdialog.cpp
FN:102,117,_ZN22TestBatchProcessDialog20testClearFilesButtonEv
FN:119,146,_ZN22TestBatchProcessDialog15testStartButtonEv
FN:148,165,_ZN22TestBatchProcessDialog14testStopButtonEv
FN:167,184,_ZN22TestBatchProcessDialog16testExportButtonEv
FN:186,211,_ZN22TestBatchProcessDialog22testAutoExportCheckboxEv
FN:213,238,_ZN22TestBatchProcessDialog26testSaveToDatabaseCheckboxEv
FN:240,256,_ZN22TestBatchProcessDialog22testProgressBarUpdatesEv
FN:258,285,_ZN22TestBatchProcessDialog18testFileListWidgetEv
FN:27,27,_ZN22TestBatchProcessDialog2trEPKcS1_i
FN:287,303,_ZN22TestBatchProcessDialog14testLogDisplayEv
FN:30,32,_ZN22TestBatchProcessDialog12initTestCaseEv
FN:305,335,_ZN22TestBatchProcessDialog21testStatisticsDisplayEv
FN:337,348,_ZN22TestBatchProcessDialog23testOutputPathSelectionEv
FN:34,36,_ZN22TestBatchProcessDialog15cleanupTestCaseEv
FN:350,368,_ZN22TestBatchProcessDialog25testExportFormatSelectionEv
FN:371,405,_ZN22TestBatchProcessDialog23testScanProgressSignalsEv
FN:38,52,_ZN22TestBatchProcessDialog23testDefaultConstructionEv
FN:408,420,_ZN22TestBatchProcessDialog16testErrorSignalsEv
FN:423,433,_ZN22TestBatchProcessDialog24testFileProcessedSignalsEv
FN:436,452,_ZN22TestBatchProcessDialog24testBatchFinishedSignalsEv
FN:455,487,_ZN22TestBatchProcessDialog22testButtonStateUpdatesEv
FN:490,490,main
FN:55,64,_ZN22TestBatchProcessDialog25testCloseDuringProcessingEv
FN:66,80,_ZN22TestBatchProcessDialog18testAddFilesButtonEv
FN:82,100,_ZN22TestBatchProcessDialog21testRemoveFilesButtonEv
FNDA:2,_ZN22TestBatchProcessDialog20testClearFilesButtonEv
FNDA:2,_ZN22TestBatchProcessDialog15testStartButtonEv
FNDA:2,_ZN22TestBatchProcessDialog14testStopButtonEv
FNDA:2,_ZN22TestBatchProcessDialog16testExportButtonEv
FNDA:2,_ZN22TestBatchProcessDialog22testAutoExportCheckboxEv
FNDA:2,_ZN22TestBatchProcessDialog26testSaveToDatabaseCheckboxEv
FNDA:2,_ZN22TestBatchProcessDialog22testProgressBarUpdatesEv
FNDA:2,_ZN22TestBatchProcessDialog18testFileListWidgetEv
FNDA:110,_ZN22TestBatchProcessDialog2trEPKcS1_i
FNDA:2,_ZN22TestBatchProcessDialog14testLogDisplayEv
FNDA:2,_ZN22TestBatchProcessDialog12initTestCaseEv
FNDA:2,_ZN22TestBatchProcessDialog21testStatisticsDisplayEv
FNDA:2,_ZN22TestBatchProcessDialog23testOutputPathSelectionEv
FNDA:2,_ZN22TestBatchProcessDialog15cleanupTestCaseEv
FNDA:2,_ZN22TestBatchProcessDialog25testExportFormatSelectionEv
FNDA:2,_ZN22TestBatchProcessDialog23testScanProgressSignalsEv
FNDA:2,_ZN22TestBatchProcessDialog23testDefaultConstructionEv
FNDA:2,_ZN22TestBatchProcessDialog16testErrorSignalsEv
FNDA:2,_ZN22TestBatchProcessDialog24testFileProcessedSignalsEv
FNDA:2,_ZN22TestBatchProcessDialog24testBatchFinishedSignalsEv
FNDA:2,_ZN22TestBatchProcessDialog22testButtonStateUpdatesEv
FNDA:2,main
FNDA:2,_ZN22TestBatchProcessDialog25testCloseDuringProcessingEv
FNDA:2,_ZN22TestBatchProcessDialog18testAddFilesButtonEv
FNDA:2,_ZN22TestBatchProcessDialog21testRemoveFilesButtonEv
FNF:25
FNH:25
DA:27,110
DA:30,2
DA:31,2
DA:32,2
DA:34,2
DA:36,2
DA:38,2
DA:39,2
DA:40,2
DA:41,2
DA:44,2
DA:47,2
DA:48,2
DA:49,2
DA:50,2
DA:51,2
DA:52,2
DA:55,2
DA:56,2
DA:57,2
DA:58,2
DA:61,2
DA:62,2
DA:63,2
DA:64,2
DA:66,2
DA:67,2
DA:68,2
DA:69,2
DA:71,2
DA:72,2
DA:75,2
DA:76,2
DA:79,2
DA:80,2
DA:82,2
DA:83,2
DA:84,2
DA:85,2
DA:87,2
DA:88,2
DA:91,2
DA:92,2
DA:93,2
DA:94,2
DA:97,2
DA:98,2
DA:99,2
DA:100,2
DA:102,2
DA:103,2
DA:104,2
DA:105,2
DA:107,2
DA:108,2
DA:110,2
DA:111,2
DA:112,2
DA:115,2
DA:116,2
DA:117,2
DA:119,2
DA:120,2
DA:121,2
DA:122,2
DA:125,2
DA:126,14
DA:127,12
DA:128,2
DA:129,2
DA:132,2
DA:135,2
DA:136,2
DA:137,2
DA:141,2
DA:145,2
DA:146,2
DA:148,2
DA:149,2
DA:150,2
DA:151,2
DA:154,2
DA:155,16
DA:156,14
DA:157,2
DA:158,2
DA:161,2
DA:164,2
DA:165,2
DA:167,2
DA:168,2
DA:169,2
DA:170,2
DA:173,2
DA:174,18
DA:175,16
DA:176,2
DA:177,2
DA:180,2
DA:183,2
DA:184,2
DA:186,2
DA:187,2
DA:188,2
DA:189,2
DA:191,2
DA:192,2
DA:193,2
DA:194,2
DA:195,2
DA:196,2
DA:199,2
DA:202,2
DA:203,2
DA:204,2
DA:205,2
DA:208,2
DA:209,2
DA:210,2
DA:211,2
DA:213,2
DA:214,2
DA:215,2
DA:216,2
DA:218,2
DA:219,2
DA:220,4
DA:221,4
DA:222,2
DA:223,2
DA:226,2
DA:229,2
DA:230,2
DA:231,2
DA:232,2
DA:235,2
DA:236,2
DA:237,2
DA:238,2
DA:240,2
DA:241,2
DA:242,2
DA:243,2
DA:245,2
DA:246,2
DA:249,2
DA:250,2
DA:251,2
DA:254,2
DA:255,2
DA:256,2
DA:258,2
DA:259,2
DA:260,2
DA:261,2
DA:263,2
DA:264,2
DA:267,2
DA:268,2
DA:269,2
DA:272,2
DA:273,2
DA:276,2
DA:277,8
DA:278,6
DA:279,2
DA:280,2
DA:283,2
DA:284,2
DA:285,2
DA:287,2
DA:288,2
DA:289,2
DA:290,2
DA:292,2
DA:293,2
DA:295,2
DA:298,2
DA:300,2
DA:301,2
DA:302,2
DA:303,2
DA:305,2
DA:306,2
DA:307,2
DA:308,2
DA:311,2
DA:312,8
DA:313,8
DA:314,2
DA:315,2
DA:317,2
DA:318,2
DA:321,2
DA:324,2
DA:325,2
DA:326,2
DA:327,4
DA:328,4
DA:329,6
DA:330,2
DA:331,2
DA:333,2
DA:334,2
DA:335,2
DA:337,2
DA:338,2
DA:339,2
DA:340,2
DA:342,2
DA:343,2
DA:346,2
DA:347,2
DA:348,2
DA:350,2
DA:351,2
DA:352,2
DA:353,2
DA:355,2
DA:356,2
DA:359,2
DA:360,2
DA:361,6
DA:362,4
DA:363,4
DA:364,4
DA:365,4
DA:366,2
DA:367,2
DA:368,2
DA:371,2
DA:373,2
DA:374,2
DA:375,2
DA:378,2
DA:379,2
DA:381,2
DA:382,2
DA:384,2
DA:385,8
DA:386,6
DA:387,12
DA:388,6
DA:389,6
DA:391,2
DA:392,2
DA:393,2
DA:395,4
DA:396,2
DA:397,2
DA:400,2
DA:401,2
DA:404,2
DA:405,4
DA:408,2
DA:409,2
DA:410,2
DA:413,6
DA:415,2
DA:416,2
DA:419,2
DA:420,2
DA:423,2
DA:424,2
DA:425,2
DA:428,2
DA:429,2
DA:432,2
DA:433,2
DA:436,2
DA:437,2
DA:438,2
DA:441,2
DA:442,2
DA:445,2
DA:446,2
DA:447,2
DA:448,2
DA:449,2
DA:450,2
DA:451,2
DA:452,2
DA:455,2
DA:456,2
DA:457,2
DA:458,2
DA:460,2
DA:461,2
DA:463,2
DA:464,2
DA:465,2
DA:466,20
DA:467,18
DA:468,16
DA:469,14
DA:471,2
DA:472,2
DA:473,2
DA:476,2
DA:477,2
DA:481,2
DA:482,2
DA:483,2
DA:484,2
DA:486,2
DA:487,2
DA:490,2
LF:307
LH:307
end_of_record
TN:
SF:/home/fed/Documents/clion-workspace/qt-try/tests/test_batchprocessor.cpp
FN:122,155,_ZN18TestBatchProcessor15testScanCsvFileEv
FN:157,170,_ZN18TestBatchProcessor24testProcessEmptyFileListEv
FN:172,215,_ZN18TestBatchProcessor19testProgressSignalsEv
FN:19,21,_ZN18TestBatchProcessor12initTestCaseEv
FN:217,229,_ZN18TestBatchProcessor17testErrorHandlingEv
FN:23,25,_ZN18TestBatchProcessor15cleanupTestCaseEv
FN:231,255,_ZN18TestBatchProcessor17testEmptyJsonFileEv
FN:257,287,_ZN18TestBatchProcessor23testFileProcessedSignalEv
FN:27,31,_ZN18TestBatchProcessor23testDefaultConstructionEv
FN:289,328,_ZN18TestBatchProcessor19testProcessJsonFileEv
FN:33,40,_ZN18TestBatchProcessor12testSetFilesEv
FN:330,361,_ZN18TestBatchProcessor18testProcessCsvFileEv
FN:363,398,_ZN18TestBatchProcessor24testStopDuringProcessingEv
FN:400,439,_ZN18TestBatchProcessor19testJsonLinesFormatEv
FN:42,47,_ZN18TestBatchProcessor20testJsonContentFieldEv
FN:441,492,_ZN18TestBatchProcessor21testMultipleJsonFilesEv
FN:49,53,_ZN18TestBatchProcessor20testCsvContentColumnEv
FN:495,529,_ZN18TestBatchProcessor19testAutoExportLogicEv
FN:532,583,_ZN18TestBatchProcessor23testSaveToDatabaseLogicEv
FN:55,59,_ZN18TestBatchProcessor15testCsvEncodingEv
FN:586,617,_ZN18TestBatchProcessor27testPlainTextFileProcessingEv
FN:61,65,_ZN18TestBatchProcessor13testThresholdEv
FN:620,656,_ZN18TestBatchProcessor21testBatchResultExportEv
FN:659,659,main
FN:67,71,_ZN18TestBatchProcessor13testModelPathEv
FN:73,78,_ZN18TestBatchProcessor15testStopRequestEv
FN:80,120,_ZN18TestBatchProcessor16testScanJsonFileEv
FNDA:2,_ZN18TestBatchProcessor15testScanCsvFileEv
FNDA:2,_ZN18TestBatchProcessor24testProcessEmptyFileListEv
FNDA:2,_ZN18TestBatchProcessor19testProgressSignalsEv
FNDA:2,_ZN18TestBatchProcessor12initTestCaseEv
FNDA:2,_ZN18TestBatchProcessor17testErrorHandlingEv
FNDA:2,_ZN18TestBatchProcessor15cleanupTestCaseEv
FNDA:2,_ZN18TestBatchProcessor17testEmptyJsonFileEv
FNDA:2,_ZN18TestBatchProcessor23testFileProcessedSignalEv
FNDA:2,_ZN18TestBatchProcessor23testDefaultConstructionEv
FNDA:2,_ZN18TestBatchProcessor19testProcessJsonFileEv
FNDA:2,_ZN18TestBatchProcessor12testSetFilesEv
FNDA:2,_ZN18TestBatchProcessor18testProcessCsvFileEv
FNDA:2,_ZN18TestBatchProcessor24testStopDuringProcessingEv
FNDA:2,_ZN18TestBatchProcessor19testJsonLinesFormatEv
FNDA:2,_ZN18TestBatchProcessor20testJsonContentFieldEv
FNDA:2,_ZN18TestBatchProcessor21testMultipleJsonFilesEv
FNDA:2,_ZN18TestBatchProcessor20testCsvContentColumnEv
FNDA:2,_ZN18TestBatchProcessor19testAutoExportLogicEv
FNDA:2,_ZN18TestBatchProcessor23testSaveToDatabaseLogicEv
FNDA:2,_ZN18TestBatchProcessor15testCsvEncodingEv
FNDA:2,_ZN18TestBatchProcessor27testPlainTextFileProcessingEv
FNDA:2,_ZN18TestBatchProcessor13testThresholdEv
FNDA:2,_ZN18TestBatchProcessor21testBatchResultExportEv
FNDA:2,main
FNDA:2,_ZN18TestBatchProcessor13testModelPathEv
FNDA:2,_ZN18TestBatchProcessor15testStopRequestEv
FNDA:2,_ZN18TestBatchProcessor16testScanJsonFileEv
FNF:27
FNH:27
DA:19,2
DA:20,2
DA:21,2
DA:23,2
DA:25,2
DA:27,2
DA:28,2
DA:30,2
DA:31,2
DA:33,2
DA:34,2
DA:35,10
DA:36,2
DA:39,2
DA:40,2
DA:42,2
DA:43,2
DA:44,2
DA:46,2
DA:47,2
DA:49,2
DA:50,2
DA:51,2
DA:52,2
DA:53,2
DA:55,2
DA:56,2
DA:57,2
DA:58,2
DA:59,2
DA:61,2
DA:62,2
DA:63,2
DA:64,2
DA:65,2
DA:67,2
DA:68,2
DA:69,2
DA:70,2
DA:71,2
DA:73,2
DA:74,2
DA:75,2
DA:77,2
DA:78,2
DA:80,2
DA:81,2
DA:82,2
DA:85,2
DA:86,2
DA:87,2
DA:89,2
DA:90,8
DA:91,6
DA:92,12
DA:93,6
DA:94,6
DA:96,2
DA:97,2
DA:98,2
DA:99,2
DA:102,2
DA:103,2
DA:105,4
DA:106,2
DA:107,2
DA:109,2
DA:110,2
DA:113,2
DA:114,2
DA:115,2
DA:116,2
DA:117,2
DA:118,2
DA:119,2
DA:120,4
DA:122,2
DA:123,2
DA:124,2
DA:127,2
DA:128,2
DA:129,2
DA:131,2
DA:132,2
DA:133,2
DA:134,2
DA:137,2
DA:138,2
DA:140,4
DA:141,2
DA:142,2
DA:144,2
DA:145,2
DA:148,2
DA:149,2
DA:150,2
DA:151,2
DA:152,2
DA:153,2
DA:154,2
DA:155,4
DA:157,2
DA:158,2
DA:159,2
DA:161,2
DA:162,2
DA:165,2
DA:166,2
DA:167,2
DA:168,2
DA:169,2
DA:170,2
DA:172,2
DA:173,2
DA:174,2
DA:175,2
DA:176,2
DA:177,2
DA:180,2
DA:181,2
DA:183,2
DA:184,2
DA:185,2
DA:187,2
DA:188,6
DA:189,4
DA:190,8
DA:191,4
DA:192,4
DA:194,2
DA:195,2
DA:196,2
DA:197,2
DA:199,4
DA:200,2
DA:202,2
DA:204,2
DA:205,2
DA:209,2
DA:210,2
DA:211,2
DA:213,2
DA:214,2
DA:215,4
DA:217,2
DA:218,2
DA:219,2
DA:222,6
DA:224,2
DA:225,2
DA:228,2
DA:229,2
DA:231,2
DA:232,2
DA:233,2
DA:236,2
DA:237,2
DA:238,2
DA:239,2
DA:240,2
DA:241,2
DA:243,2
DA:244,2
DA:246,4
DA:247,2
DA:248,2
DA:250,2
DA:251,2
DA:254,2
DA:255,4
DA:257,2
DA:258,2
DA:259,2
DA:262,2
DA:263,2
DA:265,2
DA:266,2
DA:267,2
DA:269,2
DA:270,2
DA:271,4
DA:273,2
DA:274,2
DA:275,2
DA:276,2
DA:278,4
DA:279,2
DA:282,2
DA:286,2
DA:287,6
DA:289,2
DA:290,2
DA:291,2
DA:294,2
DA:295,2
DA:296,2
DA:298,2
DA:299,6
DA:300,4
DA:301,8
DA:302,4
DA:303,4
DA:305,2
DA:306,2
DA:307,2
DA:308,2
DA:310,2
DA:311,2
DA:312,2
DA:314,4
DA:315,2
DA:316,2
DA:318,2
DA:319,2
DA:322,2
DA:323,2
DA:324,2
DA:326,2
DA:327,2
DA:328,4
DA:330,2
DA:331,2
DA:332,2
DA:335,2
DA:336,2
DA:337,2
DA:339,2
DA:340,2
DA:341,2
DA:342,2
DA:344,2
DA:345,2
DA:346,2
DA:348,4
DA:349,2
DA:350,2
DA:352,2
DA:353,2
DA:356,2
DA:357,2
DA:358,2
DA:359,2
DA:360,2
DA:361,4
DA:363,2
DA:365,2
DA:368,2
DA:369,2
DA:371,2
DA:372,2
DA:373,2
DA:375,2
DA:376,22
DA:377,20
DA:378,40
DA:379,20
DA:380,20
DA:382,2
DA:383,2
DA:384,2
DA:385,2
DA:387,4
DA:388,2
DA:389,2
DA:392,2
DA:393,2
DA:394,2
DA:397,2
DA:398,4
DA:400,2
DA:402,2
DA:403,2
DA:406,2
DA:407,2
DA:408,2
DA:410,2
DA:411,8
DA:412,6
DA:413,12
DA:414,6
DA:415,6
DA:417,2
DA:418,2
DA:419,2
DA:421,2
DA:422,2
DA:424,4
DA:425,2
DA:426,2
DA:428,2
DA:429,2
DA:432,2
DA:433,2
DA:434,2
DA:435,2
DA:436,2
DA:437,2
DA:438,2
DA:439,4
DA:441,2
DA:443,2
DA:444,2
DA:446,2
DA:447,8
DA:448,12
DA:449,6
DA:450,6
DA:452,6
DA:453,18
DA:454,12
DA:455,36
DA:456,12
DA:457,12
DA:459,6
DA:460,6
DA:461,6
DA:462,6
DA:464,6
DA:465,6
DA:467,2
DA:468,2
DA:469,2
DA:471,2
DA:472,2
DA:473,2
DA:475,2
DA:476,2
DA:479,2
DA:480,2
DA:481,2
DA:482,2
DA:483,2
DA:484,2
DA:485,2
DA:488,2
DA:489,2
DA:490,2
DA:491,2
DA:492,2
DA:495,2
DA:496,2
DA:497,2
DA:500,2
DA:501,2
DA:502,2
DA:504,2
DA:505,2
DA:506,2
DA:507,2
DA:509,2
DA:510,2
DA:511,2
DA:512,2
DA:514,2
DA:515,2
DA:517,4
DA:518,2
DA:519,2
DA:521,2
DA:522,2
DA:524,2
DA:525,2
DA:526,2
DA:528,2
DA:529,4
DA:532,2
DA:533,2
DA:534,2
DA:537,2
DA:538,2
DA:540,2
DA:543,2
DA:544,2
DA:545,2
DA:547,2
DA:548,6
DA:549,4
DA:550,8
DA:551,4
DA:552,4
DA:554,2
DA:555,2
DA:556,2
DA:557,2
DA:559,2
DA:560,4
DA:561,2
DA:562,2
DA:564,2
DA:565,2
DA:568,2
DA:569,2
DA:570,4
DA:571,2
DA:572,0
DA:577,2
DA:578,0
DA:579,0
DA:582,2
DA:583,4
DA:586,2
DA:587,2
DA:588,2
DA:591,2
DA:592,2
DA:593,2
DA:595,2
DA:596,2
DA:597,2
DA:598,2
DA:601,2
DA:602,2
DA:603,2
DA:604,2
DA:605,2
DA:608,2
DA:609,2
DA:610,4
DA:611,2
DA:612,2
DA:613,2
DA:614,2
DA:616,2
DA:617,4
DA:620,2
DA:621,2
DA:622,2
DA:625,2
DA:626,2
DA:627,2
DA:629,2
DA:630,6
DA:631,4
DA:632,8
DA:633,4
DA:634,4
DA:636,2
DA:637,2
DA:638,2
DA:639,2
DA:641,2
DA:642,2
DA:644,4
DA:645,2
DA:646,2
DA:648,2
DA:649,2
DA:651,2
DA:652,2
DA:653,2
DA:655,2
DA:656,4
DA:659,2
LF:453
LH:450
end_of_record
TN:
SF:/home/fed/Documents/clion-workspace/qt-try/tests/test_configmanager.cpp
FN:104,111,_ZN17TestConfigManager14testAutoExportEv
FN:113,118,_ZN17TestConfigManager23testDefaultExportFormatEv
FN:120,125,_ZN17TestConfigManager18testSaveToDatabaseEv
FN:127,133,_ZN17TestConfigManager18testWindowGeometryEv
FN:135,145,_ZN17TestConfigManager38testAutoDetectModelPath_existingConfigEv
FN:14,19,_ZN17TestConfigManager12initTestCaseEv
FN:147,156,_ZN17TestConfigManager15testPersistenceEv
FN:162,162,main
FN:21,23,_ZN17TestConfigManager15cleanupTestCaseEv
FN:25,29,_ZN17TestConfigManager13testSingletonEv
FN:31,36,_ZN17TestConfigManager14testInitializeEv
FN:38,47,_ZN17TestConfigManager17testDefaultValuesEv
FN:49,61,_ZN17TestConfigManager20testJsonContentFieldEv
FN:63,68,_ZN17TestConfigManager20testCsvContentColumnEv
FN:70,75,_ZN17TestConfigManager15testCsvEncodingEv
FN:77,82,_ZN17TestConfigManager13testModelPathEv
FN:84,95,_ZN17TestConfigManager13testThresholdEv
FN:97,102,_ZN17TestConfigManager18testBatchOutputDirEv
FNDA:2,_ZN17TestConfigManager14testAutoExportEv
FNDA:2,_ZN17TestConfigManager23testDefaultExportFormatEv
FNDA:2,_ZN17TestConfigManager18testSaveToDatabaseEv
FNDA:2,_ZN17TestConfigManager18testWindowGeometryEv
FNDA:2,_ZN17TestConfigManager38testAutoDetectModelPath_existingConfigEv
FNDA:2,_ZN17TestConfigManager12initTestCaseEv
FNDA:2,_ZN17TestConfigManager15testPersistenceEv
FNDA:2,main
FNDA:2,_ZN17TestConfigManager15cleanupTestCaseEv
FNDA:2,_ZN17TestConfigManager13testSingletonEv
FNDA:2,_ZN17TestConfigManager14testInitializeEv
FNDA:2,_ZN17TestConfigManager17testDefaultValuesEv
FNDA:2,_ZN17TestConfigManager20testJsonContentFieldEv
FNDA:2,_ZN17TestConfigManager20testCsvContentColumnEv
FNDA:2,_ZN17TestConfigManager15testCsvEncodingEv
FNDA:2,_ZN17TestConfigManager13testModelPathEv
FNDA:2,_ZN17TestConfigManager13testThresholdEv
FNDA:2,_ZN17TestConfigManager18testBatchOutputDirEv
FNF:18
FNH:18
DA:14,2
DA:16,2
DA:17,2
DA:18,2
DA:21,2
DA:22,2
DA:23,2
DA:25,2
DA:26,2
DA:27,2
DA:28,2
DA:31,2
DA:32,2
DA:33,2
DA:35,2
DA:38,2
DA:39,2
DA:40,2
DA:41,2
DA:42,2
DA:43,2
DA:44,2
DA:45,2
DA:46,2
DA:49,2
DA:50,2
DA:51,2
DA:52,2
DA:53,2
DA:54,2
DA:55,2
DA:56,2
DA:59,2
DA:60,2
DA:61,2
DA:63,2
DA:64,2
DA:65,2
DA:66,2
DA:67,2
DA:70,2
DA:71,2
DA:72,2
DA:73,2
DA:74,2
DA:77,2
DA:78,2
DA:79,2
DA:80,2
DA:81,2
DA:84,2
DA:85,2
DA:86,2
DA:87,2
DA:88,2
DA:89,2
DA:90,2
DA:93,2
DA:94,2
DA:95,2
DA:97,2
DA:98,2
DA:99,2
DA:100,2
DA:101,2
DA:104,2
DA:105,2
DA:106,2
DA:107,2
DA:108,2
DA:109,2
DA:110,2
DA:113,2
DA:114,2
DA:115,2
DA:116,2
DA:117,2
DA:120,2
DA:121,2
DA:122,2
DA:123,2
DA:124,2
DA:127,2
DA:128,2
DA:129,2
DA:130,2
DA:131,2
DA:132,2
DA:133,2
DA:135,2
DA:136,2
DA:137,2
DA:138,2
DA:141,2
DA:144,2
DA:145,2
DA:147,2
DA:148,2
DA:149,2
DA:150,2
DA:151,2
DA:155,2
DA:162,2
LF:103
LH:103
end_of_record
TN:
SF:/home/fed/Documents/clion-workspace/qt-try/tests/test_databasemanager.cpp
FN:105,117,_ZN19TestDatabaseManager22testGetAllRecordsLimitEv
FN:119,132,_ZN19TestDatabaseManager19testSearchByKeywordEv
FN:134,146,_ZN19TestDatabaseManager16testDeleteRecordEv
FN:148,163,_ZN19TestDatabaseManager25testDeleteMultipleRecordsEv
FN:165,190,_ZN19TestDatabaseManager17testCascadeDeleteEv
FN:18,21,_ZN19TestDatabaseManager12initTestCaseEv
FN:192,207,_ZN19TestDatabaseManager14testStatisticsEv
FN:209,220,_ZN19TestDatabaseManager15testBatchInsertEv
FN:222,226,_ZN19TestDatabaseManager23testErrorClassificationEv
FN:228,249,_ZN19TestDatabaseManager21testSearchByDateRangeEv
FN:23,26,_ZN19TestDatabaseManager15cleanupTestCaseEv
FN:251,272,_ZN19TestDatabaseManager22testSearchByEntityTypeEv
FN:274,293,_ZN19TestDatabaseManager23testTransactionRollbackEv
FN:28,32,_ZN19TestDatabaseManager13testSingletonEv
FN:295,332,_ZN19TestDatabaseManager16testExportToJsonEv
FN:334,368,_ZN19TestDatabaseManager15testExportToCsvEv
FN:34,38,_ZN19TestDatabaseManager14testInitializeEv
FN:370,421,_ZN19TestDatabaseManager18testImportFromJsonEv
FN:40,59,_ZN19TestDatabaseManager24testInsertAndQueryRecordEv
FN:423,451,_ZN19TestDatabaseManager16testExportNoDataEv
FN:453,472,_ZN19TestDatabaseManager19testSearchNoResultsEv
FN:474,482,_ZN19TestDatabaseManager24testMainThreadProtectionEv
FN:488,488,main
FN:61,103,_ZN19TestDatabaseManager22testCascadeSaveTriplesEv
FNDA:2,_ZN19TestDatabaseManager22testGetAllRecordsLimitEv
FNDA:2,_ZN19TestDatabaseManager19testSearchByKeywordEv
FNDA:2,_ZN19TestDatabaseManager16testDeleteRecordEv
FNDA:2,_ZN19TestDatabaseManager25testDeleteMultipleRecordsEv
FNDA:2,_ZN19TestDatabaseManager17testCascadeDeleteEv
FNDA:2,_ZN19TestDatabaseManager12initTestCaseEv
FNDA:2,_ZN19TestDatabaseManager14testStatisticsEv
FNDA:2,_ZN19TestDatabaseManager15testBatchInsertEv
FNDA:2,_ZN19TestDatabaseManager23testErrorClassificationEv
FNDA:2,_ZN19TestDatabaseManager21testSearchByDateRangeEv
FNDA:2,_ZN19TestDatabaseManager15cleanupTestCaseEv
FNDA:2,_ZN19TestDatabaseManager22testSearchByEntityTypeEv
FNDA:2,_ZN19TestDatabaseManager23testTransactionRollbackEv
FNDA:2,_ZN19TestDatabaseManager13testSingletonEv
FNDA:2,_ZN19TestDatabaseManager16testExportToJsonEv
FNDA:2,_ZN19TestDatabaseManager15testExportToCsvEv
FNDA:2,_ZN19TestDatabaseManager14testInitializeEv
FNDA:2,_ZN19TestDatabaseManager18testImportFromJsonEv
FNDA:2,_ZN19TestDatabaseManager24testInsertAndQueryRecordEv
FNDA:2,_ZN19TestDatabaseManager16testExportNoDataEv
FNDA:2,_ZN19TestDatabaseManager19testSearchNoResultsEv
FNDA:2,_ZN19TestDatabaseManager24testMainThreadProtectionEv
FNDA:2,main
FNDA:2,_ZN19TestDatabaseManager22testCascadeSaveTriplesEv
FNF:24
FNH:24
DA:18,2
DA:19,2
DA:20,2
DA:23,2
DA:24,2
DA:25,2
DA:26,2
DA:28,2
DA:29,2
DA:30,2
DA:31,2
DA:34,2
DA:35,2
DA:36,2
DA:37,2
DA:38,2
DA:40,2
DA:41,2
DA:42,2
DA:43,2
DA:45,2
DA:46,4
DA:47,4
DA:48,6
DA:49,2
DA:51,2
DA:52,2
DA:54,2
DA:55,2
DA:56,2
DA:57,2
DA:58,2
DA:59,2
DA:61,2
DA:62,2
DA:63,2
DA:64,2
DA:67,2
DA:68,2
DA:71,2
DA:72,4
DA:73,4
DA:74,6
DA:75,4
DA:76,4
DA:77,6
DA:79,2
DA:82,2
DA:83,2
DA:86,2
DA:87,2
DA:90,2
DA:91,2
DA:94,2
DA:95,2
DA:96,2
DA:99,2
DA:100,2
DA:101,2
DA:102,2
DA:103,2
DA:105,2
DA:106,2
DA:107,2
DA:108,2
DA:110,12
DA:111,20
DA:112,10
DA:113,10
DA:115,2
DA:116,2
DA:117,2
DA:119,2
DA:120,2
DA:121,2
DA:122,2
DA:124,4
DA:125,4
DA:126,4
DA:127,4
DA:129,2
DA:130,2
DA:131,2
DA:132,2
DA:134,2
DA:135,2
DA:136,2
DA:137,2
DA:139,4
DA:140,4
DA:141,2
DA:143,2
DA:144,2
DA:145,2
DA:146,2
DA:148,2
DA:149,2
DA:150,2
DA:151,2
DA:153,4
DA:154,4
DA:155,4
DA:156,4
DA:157,4
DA:158,4
DA:160,2
DA:161,2
DA:162,2
DA:163,2
DA:165,2
DA:166,2
DA:167,2
DA:168,2
DA:170,2
DA:171,4
DA:172,4
DA:173,6
DA:174,2
DA:175,2
DA:176,2
DA:178,2
DA:179,2
DA:180,2
DA:181,2
DA:183,2
DA:186,2
DA:187,2
DA:188,2
DA:189,2
DA:190,2
DA:192,2
DA:193,2
DA:194,2
DA:195,2
DA:197,2
DA:198,4
DA:199,4
DA:200,6
DA:201,2
DA:203,2
DA:204,2
DA:205,2
DA:206,2
DA:207,2
DA:209,2
DA:210,2
DA:211,2
DA:212,2
DA:214,2
DA:215,2
DA:216,2
DA:218,2
DA:219,2
DA:220,2
DA:222,2
DA:225,2
DA:228,2
DA:229,2
DA:230,2
DA:231,2
DA:234,2
DA:235,8
DA:236,12
DA:238,6
DA:239,6
DA:240,6
DA:243,2
DA:244,2
DA:245,2
DA:246,2
DA:248,2
DA:249,2
DA:251,2
DA:252,2
DA:253,2
DA:254,2
DA:257,2
DA:258,4
DA:259,4
DA:260,6
DA:261,2
DA:262,2
DA:264,2
DA:265,2
DA:268,2
DA:269,2
DA:271,2
DA:272,2
DA:274,2
DA:275,2
DA:276,2
DA:277,2
DA:280,2
DA:285,2
DA:286,2
DA:287,2
DA:288,2
DA:291,2
DA:292,2
DA:293,2
DA:295,2
DA:296,2
DA:297,2
DA:298,2
DA:301,2
DA:302,4
DA:303,4
DA:304,6
DA:305,2
DA:306,2
DA:307,2
DA:310,2
DA:311,2
DA:312,2
DA:313,2
DA:316,2
DA:319,2
DA:320,2
DA:321,2
DA:322,2
DA:323,2
DA:324,2
DA:327,2
DA:328,2
DA:329,2
DA:330,2
DA:331,2
DA:332,2
DA:334,2
DA:335,2
DA:336,2
DA:337,2
DA:340,2
DA:341,4
DA:342,4
DA:343,6
DA:344,2
DA:345,2
DA:346,2
DA:349,2
DA:350,2
DA:351,2
DA:352,2
DA:355,2
DA:358,2
DA:359,2
DA:360,2
DA:361,2
DA:362,2
DA:363,2
DA:366,2
DA:367,2
DA:368,2
DA:370,2
DA:371,2
DA:372,2
DA:373,2
DA:376,2
DA:377,2
DA:380,2
DA:381,2
DA:382,2
DA:384,2
DA:385,2
DA:386,2
DA:387,2
DA:388,2
DA:389,2
DA:390,2
DA:391,2
DA:392,2
DA:393,2
DA:394,2
DA:395,2
DA:397,2
DA:398,2
DA:399,2
DA:400,2
DA:402,2
DA:403,2
DA:404,2
DA:406,2
DA:407,2
DA:408,2
DA:410,2
DA:413,2
DA:416,2
DA:419,2
DA:420,2
DA:421,2
DA:423,2
DA:424,2
DA:425,2
DA:426,2
DA:429,2
DA:430,2
DA:431,2
DA:432,2
DA:435,2
DA:438,2
DA:439,2
DA:442,2
DA:443,2
DA:444,2
DA:445,2
DA:446,2
DA:447,2
DA:448,2
DA:449,2
DA:450,2
DA:451,2
DA:453,2
DA:455,2
DA:456,2
DA:457,2
DA:460,4
DA:461,4
DA:462,4
DA:463,4
DA:466,2
DA:467,2
DA:470,2
DA:471,2
DA:472,2
DA:474,2
DA:478,2
DA:481,2
DA:488,2
LF:328
LH:328
end_of_record
TN:
SF:/home/fed/Documents/clion-workspace/qt-try/tests/test_datamodel.cpp
FN:102,116,_ZN13TestDataModel31testExtractionRecordWithResultsEv
FN:11,11,_ZN13TestDataModel12initTestCaseEv
FN:119,128,_ZN13TestDataModel23testGraphNodeFromEntityEv
FN:12,12,_ZN13TestDataModel15cleanupTestCaseEv
FN:130,136,_ZN13TestDataModel25testGraphEdgeConstructionEv
FN:139,139,main
FN:15,20,_ZN13TestDataModel29testEntityDefaultConstructionEv
FN:22,27,_ZN13TestDataModel35testEntityParameterizedConstructionEv
FN:29,34,_ZN13TestDataModel22testEntityTypeToStringEv
FN:36,42,_ZN13TestDataModel22testEntityStringToTypeEv
FN:44,49,_ZN13TestDataModel21testEntityTypeToColorEv
FN:51,57,_ZN13TestDataModel15testEntityQHashEv
FN:60,64,_ZN13TestDataModel29testTripleDefaultConstructionEv
FN:66,74,_ZN13TestDataModel35testTripleParameterizedConstructionEv
FN:76,81,_ZN13TestDataModel30testTripleRelationTypeToStringEv
FN:83,89,_ZN13TestDataModel30testTripleStringToRelationTypeEv
FN:92,100,_ZN13TestDataModel32testExtractionRecordEmptyResultsEv
FNDA:2,_ZN13TestDataModel31testExtractionRecordWithResultsEv
FNDA:2,_ZN13TestDataModel12initTestCaseEv
FNDA:2,_ZN13TestDataModel23testGraphNodeFromEntityEv
FNDA:2,_ZN13TestDataModel15cleanupTestCaseEv
FNDA:2,_ZN13TestDataModel25testGraphEdgeConstructionEv
FNDA:2,main
FNDA:2,_ZN13TestDataModel29testEntityDefaultConstructionEv
FNDA:2,_ZN13TestDataModel35testEntityParameterizedConstructionEv
FNDA:2,_ZN13TestDataModel22testEntityTypeToStringEv
FNDA:2,_ZN13TestDataModel22testEntityStringToTypeEv
FNDA:2,_ZN13TestDataModel21testEntityTypeToColorEv
FNDA:2,_ZN13TestDataModel15testEntityQHashEv
FNDA:2,_ZN13TestDataModel29testTripleDefaultConstructionEv
FNDA:2,_ZN13TestDataModel35testTripleParameterizedConstructionEv
FNDA:2,_ZN13TestDataModel30testTripleRelationTypeToStringEv
FNDA:2,_ZN13TestDataModel30testTripleStringToRelationTypeEv
FNDA:2,_ZN13TestDataModel32testExtractionRecordEmptyResultsEv
FNF:17
FNH:17
DA:11,2
DA:12,2
DA:15,2
DA:16,2
DA:17,2
DA:18,2
DA:19,2
DA:20,2
DA:22,2
DA:23,2
DA:24,2
DA:25,2
DA:26,2
DA:27,2
DA:29,2
DA:30,2
DA:31,2
DA:32,2
DA:33,2
DA:36,2
DA:37,2
DA:38,2
DA:39,2
DA:40,2
DA:41,2
DA:44,2
DA:45,2
DA:46,2
DA:47,2
DA:48,2
DA:51,2
DA:52,2
DA:53,2
DA:54,2
DA:55,2
DA:56,2
DA:57,2
DA:60,2
DA:61,2
DA:62,2
DA:63,2
DA:64,2
DA:66,2
DA:67,2
DA:68,2
DA:69,2
DA:70,2
DA:71,2
DA:72,2
DA:73,2
DA:74,2
DA:76,2
DA:77,2
DA:78,2
DA:79,2
DA:80,2
DA:83,2
DA:84,2
DA:85,2
DA:86,2
DA:87,2
DA:88,2
DA:92,2
DA:93,2
DA:94,2
DA:95,2
DA:96,2
DA:97,2
DA:98,2
DA:99,2
DA:100,2
DA:102,2
DA:103,2
DA:104,2
DA:105,2
DA:106,2
DA:108,2
DA:109,2
DA:110,2
DA:112,2
DA:113,2
DA:114,2
DA:115,2
DA:116,2
DA:119,2
DA:120,2
DA:121,2
DA:122,2
DA:123,2
DA:124,2
DA:125,2
DA:126,2
DA:127,2
DA:128,2
DA:130,2
DA:131,2
DA:132,2
DA:133,2
DA:134,2
DA:135,2
DA:136,2
DA:139,2
LF:102
LH:102
end_of_record
TN:
SF:/home/fed/Documents/clion-workspace/qt-try/tests/test_graphwidget.cpp
FN:119,150,_ZN15TestGraphWidget17testHighlightNodeEv
FN:152,189,_ZN15TestGraphWidget17testHighlightPathEv
FN:17,19,_ZN15TestGraphWidget12initTestCaseEv
FN:191,214,_ZN15TestGraphWidget18testZoomOperationsEv
FN:21,23,_ZN15TestGraphWidget15cleanupTestCaseEv
FN:216,226,_ZN15TestGraphWidget21testNodeClickedSignalEv
FN:228,240,_ZN15TestGraphWidget21testEdgeClickedSignalEv
FN:243,266,_ZN15TestGraphWidget21testLayoutConvergenceEv
FN:25,29,_ZN15TestGraphWidget23testDefaultConstructionEv
FN:268,280,_ZN15TestGraphWidget20testIterationControlEv
FN:282,307,_ZN15TestGraphWidget20testEdgeVisualUpdateEv
FN:309,320,_ZN15TestGraphWidget19testManyNodesLayoutEv
FN:31,47,_ZN15TestGraphWidget21testSetEmptyGraphDataEv
FN:323,323,main
FN:49,64,_ZN15TestGraphWidget17testSetSingleNodeEv
FN:66,90,_ZN15TestGraphWidget20testSetMultipleNodesEv
FN:92,117,_ZN15TestGraphWidget14testClearGraphEv
FNDA:2,_ZN15TestGraphWidget17testHighlightNodeEv
FNDA:2,_ZN15TestGraphWidget17testHighlightPathEv
FNDA:2,_ZN15TestGraphWidget12initTestCaseEv
FNDA:2,_ZN15TestGraphWidget18testZoomOperationsEv
FNDA:2,_ZN15TestGraphWidget15cleanupTestCaseEv
FNDA:2,_ZN15TestGraphWidget21testNodeClickedSignalEv
FNDA:2,_ZN15TestGraphWidget21testEdgeClickedSignalEv
FNDA:2,_ZN15TestGraphWidget21testLayoutConvergenceEv
FNDA:2,_ZN15TestGraphWidget23testDefaultConstructionEv
FNDA:2,_ZN15TestGraphWidget20testIterationControlEv
FNDA:2,_ZN15TestGraphWidget20testEdgeVisualUpdateEv
FNDA:2,_ZN15TestGraphWidget19testManyNodesLayoutEv
FNDA:2,_ZN15TestGraphWidget21testSetEmptyGraphDataEv
FNDA:2,main
FNDA:2,_ZN15TestGraphWidget17testSetSingleNodeEv
FNDA:2,_ZN15TestGraphWidget20testSetMultipleNodesEv
FNDA:2,_ZN15TestGraphWidget14testClearGraphEv
FNF:17
FNH:17
DA:17,2
DA:19,2
DA:21,2
DA:23,2
DA:25,2
DA:26,2
DA:27,2
DA:28,2
DA:29,2
DA:31,2
DA:32,2
DA:33,2
DA:36,2
DA:37,2
DA:38,4
DA:39,4
DA:40,4
DA:41,2
DA:42,2
DA:46,2
DA:47,2
DA:49,2
DA:50,2
DA:51,2
DA:52,2
DA:53,2
DA:56,2
DA:57,2
DA:58,42
DA:59,40
DA:60,12
DA:63,2
DA:64,2
DA:66,2
DA:67,2
DA:68,2
DA:69,2
DA:70,2
DA:71,2
DA:72,2
DA:73,2
DA:74,2
DA:77,2
DA:78,2
DA:79,2
DA:80,54
DA:81,52
DA:82,16
DA:84,52
DA:85,2
DA:88,2
DA:89,2
DA:90,2
DA:92,2
DA:93,2
DA:94,2
DA:95,2
DA:96,2
DA:99,2
DA:100,2
DA:101,2
DA:103,2
DA:106,2
DA:107,2
DA:108,4
DA:109,4
DA:110,4
DA:111,2
DA:112,2
DA:116,2
DA:117,2
DA:119,2
DA:120,2
DA:121,2
DA:122,2
DA:123,2
DA:124,2
DA:127,2
DA:128,24
DA:129,24
DA:130,2
DA:131,2
DA:133,2
DA:135,2
DA:138,2
DA:139,30
DA:140,28
DA:141,4
DA:143,4
DA:144,2
DA:145,2
DA:149,2
DA:150,2
DA:152,2
DA:153,2
DA:154,2
DA:155,2
DA:156,2
DA:157,2
DA:158,2
DA:159,2
DA:161,2
DA:164,2
DA:165,2
DA:166,2
DA:168,50
DA:169,48
DA:170,14
DA:171,14
DA:172,2
DA:174,14
DA:175,2
DA:177,14
DA:178,48
DA:179,2
DA:180,2
DA:181,2
DA:183,2
DA:186,2
DA:187,2
DA:188,2
DA:189,2
DA:191,2
DA:192,2
DA:193,2
DA:194,2
DA:195,2
DA:197,2
DA:199,2
DA:200,2
DA:201,2
DA:203,2
DA:204,2
DA:205,2
DA:207,2
DA:208,2
DA:209,2
DA:212,2
DA:213,2
DA:214,2
DA:216,2
DA:217,2
DA:218,2
DA:219,2
DA:220,2
DA:221,2
DA:222,2
DA:225,2
DA:226,2
DA:228,2
DA:229,2
DA:230,2
DA:231,2
DA:232,2
DA:233,2
DA:234,2
DA:235,2
DA:236,2
DA:237,2
DA:239,2
DA:240,2
DA:243,2
DA:244,2
DA:245,2
DA:246,42
DA:247,80
DA:249,2
DA:252,2
DA:253,2
DA:256,2
DA:257,118
DA:258,116
DA:259,50
DA:260,50
DA:265,2
DA:266,2
DA:268,2
DA:269,2
DA:270,2
DA:271,22
DA:272,40
DA:275,2
DA:276,2
DA:278,2
DA:279,2
DA:280,2
DA:282,2
DA:283,2
DA:284,2
DA:285,2
DA:286,2
DA:287,2
DA:288,2
DA:289,2
DA:292,2
DA:293,2
DA:294,2
DA:297,2
DA:298,6
DA:299,4
DA:300,4
DA:301,2
DA:302,2
DA:306,2
DA:307,2
DA:309,2
DA:310,2
DA:311,2
DA:312,102
DA:313,200
DA:315,2
DA:318,2
DA:319,2
DA:320,2
DA:323,2
LF:215
LH:215
end_of_record
TN:
SF:/home/fed/Documents/clion-workspace/qt-try/tests/test_inferenceengine.cpp
FN:101,107,_ZN19TestInferenceEngine10testUnloadEv
FN:109,115,_ZN19TestInferenceEngine20testLongTextChunkingEv
FN:117,123,_ZN19TestInferenceEngine25testInferMissingTextFieldEv
FN:125,132,_ZN19TestInferenceEngine28testChineseTokenSpaceCleanupEv
FN:134,143,_ZN19TestInferenceEngine22testLongTextTruncationEv
FN:146,146,main
FN:16,26,_ZN19TestInferenceEngine12initTestCaseEv
FN:28,31,_ZN19TestInferenceEngine23testDefaultConstructionEv
FN:33,36,_ZN19TestInferenceEngine17testLoadEmptyPathEv
FN:38,41,_ZN19TestInferenceEngine24testLoadNonExistentModelEv
FN:43,47,_ZN19TestInferenceEngine18testLoadValidModelEv
FN:49,53,_ZN19TestInferenceEngine19testReloadSameModelEv
FN:55,60,_ZN19TestInferenceEngine18testInferEmptyTextEv
FN:62,69,_ZN19TestInferenceEngine19testInferNormalTextEv
FN:71,76,_ZN19TestInferenceEngine18testInferJsonInputEv
FN:78,83,_ZN19TestInferenceEngine20testInferInvalidJsonEv
FN:85,93,_ZN19TestInferenceEngine22testThresholdFilteringEv
FN:95,99,_ZN19TestInferenceEngine21testInferWithoutModelEv
FNDA:2,_ZN19TestInferenceEngine10testUnloadEv
FNDA:2,_ZN19TestInferenceEngine20testLongTextChunkingEv
FNDA:2,_ZN19TestInferenceEngine25testInferMissingTextFieldEv
FNDA:2,_ZN19TestInferenceEngine28testChineseTokenSpaceCleanupEv
FNDA:2,_ZN19TestInferenceEngine22testLongTextTruncationEv
FNDA:2,main
FNDA:2,_ZN19TestInferenceEngine12initTestCaseEv
FNDA:2,_ZN19TestInferenceEngine23testDefaultConstructionEv
FNDA:2,_ZN19TestInferenceEngine17testLoadEmptyPathEv
FNDA:2,_ZN19TestInferenceEngine24testLoadNonExistentModelEv
FNDA:2,_ZN19TestInferenceEngine18testLoadValidModelEv
FNDA:2,_ZN19TestInferenceEngine19testReloadSameModelEv
FNDA:2,_ZN19TestInferenceEngine18testInferEmptyTextEv
FNDA:2,_ZN19TestInferenceEngine19testInferNormalTextEv
FNDA:2,_ZN19TestInferenceEngine18testInferJsonInputEv
FNDA:2,_ZN19TestInferenceEngine20testInferInvalidJsonEv
FNDA:2,_ZN19TestInferenceEngine22testThresholdFilteringEv
FNDA:2,_ZN19TestInferenceEngine21testInferWithoutModelEv
FNF:18
FNH:18
DA:16,2
DA:17,2
DA:18,2
DA:19,2
DA:20,0
DA:22,2
DA:23,2
DA:24,0
DA:28,2
DA:29,2
DA:30,2
DA:31,2
DA:33,2
DA:34,2
DA:35,2
DA:36,2
DA:38,2
DA:39,2
DA:40,2
DA:41,2
DA:43,2
DA:44,2
DA:45,2
DA:46,2
DA:47,2
DA:49,2
DA:50,2
DA:51,2
DA:52,2
DA:53,2
DA:55,2
DA:56,2
DA:57,2
DA:58,2
DA:59,2
DA:60,2
DA:62,2
DA:63,2
DA:64,2
DA:65,2
DA:68,2
DA:69,2
DA:71,2
DA:72,2
DA:73,2
DA:74,2
DA:75,2
DA:76,2
DA:78,2
DA:79,2
DA:80,2
DA:81,2
DA:82,2
DA:83,2
DA:85,2
DA:86,2
DA:87,2
DA:88,2
DA:89,2
DA:90,4
DA:91,2
DA:93,2
DA:95,2
DA:96,2
DA:97,2
DA:98,2
DA:99,2
DA:101,2
DA:102,2
DA:103,2
DA:104,2
DA:105,2
DA:106,2
DA:107,2
DA:109,2
DA:110,2
DA:111,2
DA:112,2
DA:113,2
DA:114,2
DA:115,2
DA:117,2
DA:118,2
DA:119,2
DA:121,2
DA:122,2
DA:123,2
DA:125,2
DA:126,2
DA:127,2
DA:129,2
DA:131,2
DA:132,2
DA:134,2
DA:135,2
DA:136,2
DA:139,2
DA:140,2
DA:142,2
DA:143,2
DA:146,2
LF:101
LH:99
end_of_record
TN:
SF:/home/fed/Documents/clion-workspace/qt-try/tests/test_mainwindow.cpp
FN:107,129,_ZN14TestMainWindow28testLongTextProgressFeedbackEv
FN:132,142,_ZN14TestMainWindow28testDoubleClickRecordDetailsEv
FN:145,180,_ZN14TestMainWindow15testMenuActionsEv
FN:183,200,_ZN14TestMainWindow23testSettingsPersistenceEv
FN:203,222,_ZN14TestMainWindow19testExportFunctionsEv
FN:225,240,_ZN14TestMainWindow26testBatchProcessDialogOpenEv
FN:243,257,_ZN14TestMainWindow22testSettingsDialogOpenEv
FN:260,274,_ZN14TestMainWindow15testAboutDialogEv
FN:277,303,_ZN14TestMainWindow13testShortcutsEv
FN:29,32,_ZN14TestMainWindow12initTestCaseEv
FN:306,325,_ZN14TestMainWindow20testStatusBarUpdatesEv
FN:328,343,_ZN14TestMainWindow14testErrorToastEv
FN:34,36,_ZN14TestMainWindow15cleanupTestCaseEv
FN:346,354,_ZN14TestMainWindow14testCloseEventEv
FN:357,364,_ZN14TestMainWindow21testGraphWidgetExistsEv
FN:367,380,_ZN14TestMainWindow17testClearFunctionEv
FN:38,45,_ZN14TestMainWindow23testDefaultConstructionEv
FN:383,383,main
FN:48,61,_ZN14TestMainWindow26testSingleTextExtractionUIEv
FN:64,84,_ZN14TestMainWindow25testEmptyTextExtractionUIEv
FN:87,104,_ZN14TestMainWindow16testOpenTextFileEv
FNDA:2,_ZN14TestMainWindow28testLongTextProgressFeedbackEv
FNDA:2,_ZN14TestMainWindow28testDoubleClickRecordDetailsEv
FNDA:2,_ZN14TestMainWindow15testMenuActionsEv
FNDA:2,_ZN14TestMainWindow23testSettingsPersistenceEv
FNDA:2,_ZN14TestMainWindow19testExportFunctionsEv
FNDA:2,_ZN14TestMainWindow26testBatchProcessDialogOpenEv
FNDA:2,_ZN14TestMainWindow22testSettingsDialogOpenEv
FNDA:2,_ZN14TestMainWindow15testAboutDialogEv
FNDA:2,_ZN14TestMainWindow13testShortcutsEv
FNDA:2,_ZN14TestMainWindow12initTestCaseEv
FNDA:2,_ZN14TestMainWindow20testStatusBarUpdatesEv
FNDA:2,_ZN14TestMainWindow14testErrorToastEv
FNDA:2,_ZN14TestMainWindow15cleanupTestCaseEv
FNDA:2,_ZN14TestMainWindow14testCloseEventEv
FNDA:2,_ZN14TestMainWindow21testGraphWidgetExistsEv
FNDA:2,_ZN14TestMainWindow17testClearFunctionEv
FNDA:2,_ZN14TestMainWindow23testDefaultConstructionEv
FNDA:2,main
FNDA:2,_ZN14TestMainWindow26testSingleTextExtractionUIEv
FNDA:2,_ZN14TestMainWindow25testEmptyTextExtractionUIEv
FNDA:2,_ZN14TestMainWindow16testOpenTextFileEv
FNF:21
FNH:21
DA:29,2
DA:31,2
DA:32,2
DA:34,2
DA:36,2
DA:38,2
DA:40,2
DA:41,2
DA:43,2
DA:44,2
DA:45,2
DA:48,2
DA:49,2
DA:50,2
DA:51,2
DA:54,2
DA:55,2
DA:56,2
DA:59,2
DA:60,2
DA:61,2
DA:64,2
DA:65,2
DA:66,2
DA:67,2
DA:70,2
DA:71,2
DA:74,2
DA:75,2
DA:78,2
DA:79,2
DA:81,2
DA:84,2
DA:87,2
DA:88,2
DA:89,2
DA:92,2
DA:93,2
DA:94,2
DA:95,2
DA:96,2
DA:99,2
DA:100,2
DA:101,2
DA:102,2
DA:103,2
DA:104,2
DA:107,2
DA:108,2
DA:109,2
DA:110,2
DA:113,2
DA:114,202
DA:115,200
DA:119,2
DA:122,2
DA:123,2
DA:127,2
DA:128,2
DA:129,2
DA:132,2
DA:133,2
DA:134,2
DA:135,2
DA:138,2
DA:139,2
DA:140,2
DA:141,2
DA:142,2
DA:145,2
DA:146,2
DA:147,2
DA:148,2
DA:151,2
DA:152,2
DA:154,2
DA:155,12
DA:156,10
DA:157,10
DA:159,2
DA:161,2
DA:162,2
DA:163,2
DA:164,2
DA:165,2
DA:167,12
DA:168,10
DA:169,10
DA:170,10
DA:171,10
DA:172,10
DA:175,2
DA:176,2
DA:177,2
DA:178,2
DA:179,2
DA:180,2
DA:183,2
DA:184,2
DA:185,2
DA:186,2
DA:189,2
DA:192,2
DA:193,2
DA:194,2
DA:197,2
DA:198,2
DA:199,2
DA:200,2
DA:203,2
DA:204,2
DA:205,2
DA:206,2
DA:209,2
DA:210,2
DA:213,2
DA:214,2
DA:216,2
DA:217,2
DA:219,2
DA:222,2
DA:225,2
DA:226,2
DA:227,2
DA:228,2
DA:231,2
DA:232,50
DA:233,50
DA:234,2
DA:235,2
DA:236,2
DA:238,2
DA:239,2
DA:240,2
DA:243,2
DA:244,2
DA:245,2
DA:246,2
DA:249,2
DA:250,54
DA:251,52
DA:252,2
DA:253,2
DA:256,2
DA:257,2
DA:260,2
DA:261,2
DA:262,2
DA:263,2
DA:266,2
DA:267,62
DA:268,60
DA:269,2
DA:270,2
DA:273,2
DA:274,2
DA:277,2
DA:278,2
DA:279,2
DA:280,2
DA:283,2
DA:284,2
DA:285,2
DA:287,86
DA:288,84
DA:289,84
DA:290,2
DA:292,84
DA:293,4
DA:295,84
DA:296,4
DA:298,84
DA:300,2
DA:301,2
DA:302,2
DA:303,2
DA:306,2
DA:307,2
DA:308,2
DA:309,2
DA:311,2
DA:313,2
DA:314,2
DA:317,2
DA:318,2
DA:319,2
DA:320,2
DA:321,2
DA:324,2
DA:325,2
DA:328,2
DA:329,2
DA:330,2
DA:331,2
DA:333,2
DA:334,2
DA:335,2
DA:338,2
DA:339,2
DA:341,2
DA:343,2
DA:346,2
DA:347,2
DA:348,2
DA:349,2
DA:351,2
DA:352,2
DA:353,2
DA:354,2
DA:357,2
DA:358,2
DA:359,2
DA:360,2
DA:362,2
DA:363,2
DA:364,2
DA:367,2
DA:368,2
DA:369,2
DA:370,2
DA:373,2
DA:374,2
DA:376,2
DA:377,2
DA:378,2
DA:380,2
DA:383,2
LF:227
LH:227
end_of_record
TN:
SF:/home/fed/Documents/clion-workspace/qt-try/tests/test_performance.cpp
FN:113,148,_ZN15TestPerformance27testGraphLoadingPerformanceEv
FN:151,187,_ZN15TestPerformance30testBatchProcessingPerformanceEv
FN:190,210,_ZN15TestPerformance15testMemoryUsageEv
FN:213,234,_ZN15TestPerformance15testStartupTimeEv
FN:23,42,_ZN15TestPerformance12initTestCaseEv
FN:237,261,_ZN15TestPerformance28testDatabaseQueryPerformanceEv
FN:264,275,_ZN15TestPerformance24benchmarkInferenceEngineEv
FN:278,291,_ZN15TestPerformance23benchmarkDatabaseInsertEv
FN:294,312,_ZN15TestPerformance24verifyPerformanceMetricsEv
FN:315,315,main
FN:44,47,_ZN15TestPerformance15cleanupTestCaseEv
FN:50,79,_ZN15TestPerformance34testSingleTextInferencePerformanceEv
FN:82,110,_ZN15TestPerformance31testLongTextChunkingPerformanceEv
FNDA:2,_ZN15TestPerformance27testGraphLoadingPerformanceEv
FNDA:2,_ZN15TestPerformance30testBatchProcessingPerformanceEv
FNDA:2,_ZN15TestPerformance15testMemoryUsageEv
FNDA:2,_ZN15TestPerformance15testStartupTimeEv
FNDA:2,_ZN15TestPerformance12initTestCaseEv
FNDA:2,_ZN15TestPerformance28testDatabaseQueryPerformanceEv
FNDA:3,_ZN15TestPerformance24benchmarkInferenceEngineEv
FNDA:3,_ZN15TestPerformance23benchmarkDatabaseInsertEv
FNDA:2,_ZN15TestPerformance24verifyPerformanceMetricsEv
FNDA:2,main
FNDA:2,_ZN15TestPerformance15cleanupTestCaseEv
FNDA:2,_ZN15TestPerformance34testSingleTextInferencePerformanceEv
FNDA:2,_ZN15TestPerformance31testLongTextChunkingPerformanceEv
FNF:13
FNH:13
DA:23,2
DA:24,2
DA:27,2
DA:30,2
DA:31,2
DA:32,0
DA:34,2
DA:35,2
DA:36,0
DA:40,2
DA:41,2
DA:44,2
DA:45,2
DA:46,2
DA:47,2
DA:50,2
DA:51,2
DA:52,1
DA:55,1
DA:56,1
DA:57,1
DA:60,1
DA:62,21
DA:63,20
DA:66,1
DA:67,1
DA:69,1
DA:71,1
DA:74,2
DA:78,1
DA:79,1
DA:82,2
DA:83,2
DA:84,1
DA:87,1
DA:88,1
DA:91,1
DA:92,101
DA:95,100
DA:98,1
DA:99,1
DA:101,1
DA:103,1
DA:106,2
DA:109,1
DA:110,1
DA:113,2
DA:114,2
DA:115,1
DA:119,1
DA:120,1
DA:122,101
DA:123,200
DA:124,100
DA:126,100
DA:127,297
DA:128,297
DA:129,297
DA:131,100
DA:133,1
DA:134,1
DA:138,1
DA:139,1
DA:141,1
DA:144,2
DA:147,1
DA:148,1
DA:151,2
DA:152,2
DA:153,1
DA:157,1
DA:158,1
DA:161,1
DA:162,101
DA:163,200
DA:166,1
DA:167,1
DA:169,1
DA:170,101
DA:171,100
DA:172,100
DA:175,100
DA:176,10
DA:178,100
DA:180,1
DA:183,2
DA:186,1
DA:187,1
DA:190,2
DA:191,2
DA:192,1
DA:196,1
DA:197,1
DA:200,11
DA:201,10
DA:203,10
DA:206,1
DA:207,1
DA:209,1
DA:210,1
DA:213,2
DA:214,2
DA:215,1
DA:220,1
DA:221,1
DA:223,1
DA:224,1
DA:226,1
DA:228,2
DA:231,1
DA:233,1
DA:237,2
DA:238,2
DA:239,2
DA:240,2
DA:243,2002
DA:244,4000
DA:245,2000
DA:246,2000
DA:249,2
DA:250,2
DA:252,2
DA:254,2
DA:257,4
DA:260,2
DA:261,2
DA:264,3
DA:265,3
DA:266,1
DA:269,2
DA:270,4
DA:271,2
DA:272,2
DA:273,2
DA:274,4
DA:275,2
DA:278,3
DA:279,3
DA:280,1
DA:283,2
DA:284,2
DA:285,2
DA:287,4
DA:288,2
DA:289,2
DA:290,4
DA:291,2
DA:294,2
DA:297,0
DA:298,0
DA:299,0
DA:300,0
DA:301,0
DA:302,0
DA:303,0
DA:304,16
DA:306,2
DA:307,16
DA:308,28
DA:309,14
DA:311,2
DA:312,4
DA:315,2
LF:163
LH:154
end_of_record
TN:
SF:/home/fed/Documents/clion-workspace/qt-try/tests/test_reliability.cpp
FN:106,156,_ZN15TestReliability26testMalformedInputHandlingEv
FN:159,184,_ZN15TestReliability20testModelLoadFailureEv
FN:187,222,_ZN15TestReliability30testDatabaseCorruptionRecoveryEv
FN:226,274,_ZN15TestReliability34testProcessingInterruptionRecoveryEv
FN:277,303,_ZN15TestReliability28testExtremeThresholdSettingsEv
FN:306,332,_ZN15TestReliability27testFilesystemErrorHandlingEv
FN:31,54,_ZN15TestReliability12initTestCaseEv
FN:335,361,_ZN15TestReliability24testMemoryLeakPreventionEv
FN:364,379,_ZN15TestReliability25summarizeReliabilityTestsEv
FN:382,382,main
FN:56,59,_ZN15TestReliability15cleanupTestCaseEv
FN:62,103,_ZN15TestReliability24testLongRunningStabilityEv
FNDA:2,_ZN15TestReliability26testMalformedInputHandlingEv
FNDA:2,_ZN15TestReliability20testModelLoadFailureEv
FNDA:2,_ZN15TestReliability30testDatabaseCorruptionRecoveryEv
FNDA:2,_ZN15TestReliability34testProcessingInterruptionRecoveryEv
FNDA:2,_ZN15TestReliability28testExtremeThresholdSettingsEv
FNDA:2,_ZN15TestReliability27testFilesystemErrorHandlingEv
FNDA:2,_ZN15TestReliability12initTestCaseEv
FNDA:2,_ZN15TestReliability24testMemoryLeakPreventionEv
FNDA:2,_ZN15TestReliability25summarizeReliabilityTestsEv
FNDA:2,main
FNDA:2,_ZN15TestReliability15cleanupTestCaseEv
FNDA:2,_ZN15TestReliability24testLongRunningStabilityEv
FNF:12
FNH:12
DA:31,2
DA:32,2
DA:35,2
DA:36,2
DA:37,2
DA:39,2
DA:40,2
DA:41,2
DA:42,2
DA:45,2
DA:46,2
DA:47,0
DA:49,2
DA:52,2
DA:53,2
DA:54,2
DA:56,2
DA:57,2
DA:58,2
DA:59,2
DA:62,2
DA:63,2
DA:64,1
DA:67,1
DA:68,1
DA:69,1
DA:75,1
DA:76,1
DA:78,1
DA:79,1
DA:81,55
DA:83,54
DA:84,108
DA:86,54
DA:89,54
DA:90,162
DA:91,162
DA:92,54
DA:94,54
DA:95,54
DA:96,54
DA:98,2
DA:99,1
DA:102,1
DA:103,1
DA:106,2
DA:107,2
DA:108,2
DA:109,2
DA:117,2
DA:118,2
DA:121,16
DA:123,16
DA:124,14
DA:125,14
DA:127,14
DA:128,14
DA:130,0
DA:131,0
DA:132,0
DA:136,2
DA:137,2
DA:140,2
DA:141,2
DA:142,2
DA:143,2
DA:145,4
DA:146,2
DA:147,2
DA:149,2
DA:150,2
DA:153,2
DA:155,2
DA:156,8
DA:159,2
DA:160,2
DA:163,2
DA:164,2
DA:167,2
DA:168,2
DA:171,2
DA:172,2
DA:175,2
DA:176,2
DA:177,2
DA:178,2
DA:180,2
DA:181,2
DA:183,2
DA:184,2
DA:187,2
DA:188,2
DA:191,2
DA:192,2
DA:194,22
DA:195,40
DA:196,20
DA:197,20
DA:199,2
DA:202,2
DA:203,2
DA:205,2
DA:206,2
DA:207,2
DA:210,2
DA:214,2
DA:217,2
DA:218,2
DA:219,2
DA:221,2
DA:222,2
DA:226,2
DA:227,2
DA:228,2
DA:229,2
DA:232,2
DA:233,2
DA:235,2
DA:236,12
DA:237,20
DA:238,10
DA:240,10
DA:241,40
DA:242,30
DA:243,90
DA:244,30
DA:245,30
DA:247,10
DA:248,10
DA:249,10
DA:251,10
DA:252,10
DA:254,2
DA:255,2
DA:256,2
DA:259,2
DA:260,2
DA:261,2
DA:262,2
DA:266,2
DA:269,4
DA:270,2
DA:271,2
DA:273,2
DA:274,4
DA:277,2
DA:278,2
DA:279,2
DA:280,2
DA:284,2
DA:285,2
DA:286,2
DA:288,2
DA:289,2
DA:291,2
DA:292,2
DA:293,2
DA:295,2
DA:296,2
DA:299,2
DA:300,2
DA:302,2
DA:303,2
DA:306,2
DA:308,2
DA:309,10
DA:311,2
DA:313,2
DA:315,2
DA:316,2
DA:319,2
DA:322,2
DA:323,2
DA:324,2
DA:325,2
DA:328,2
DA:329,2
DA:331,2
DA:332,2
DA:335,2
DA:337,22
DA:338,20
DA:339,20
DA:340,20
DA:341,20
DA:342,20
DA:343,20
DA:344,20
DA:345,20
DA:349,22
DA:350,40
DA:351,20
DA:352,20
DA:354,20
DA:355,20
DA:357,20
DA:358,20
DA:360,2
DA:361,2
DA:364,2
DA:372,14
DA:374,2
DA:375,14
DA:376,12
DA:378,2
DA:379,4
DA:382,2
LF:207
LH:203
end_of_record
TN:
SF:/opt/onnxruntime/include/onnxruntime_cxx_api.h
FN:1012,1012,_ZN3Ort10MemoryInfoC2EP13OrtMemoryInfo
FN:115,139,_ZN3Ort6detail6Global3ApiEPK6OrtApi
FN:1341,1341,_ZN3Ort10RunOptionsC2EDn
FN:183,185,_ZN3Ort6detail6Global11DefaultInitEv
FN:189,189,_ZN3Ort6GetApiEv
FN:1913,1913,_ZN3Ort22TensorTypeAndShapeInfoC2EP25OrtTensorTypeAndShapeInfo
FN:2387,2387,_ZN3Ort5ValueC2EDn
FN:2388,2388,_ZN3Ort5ValueC2EOS0_
FN:56,56,_ZN3Ort9ExceptionC2EONSt7__cxx1112basic_stringIcSt11char_traitsIcESaIcEEE12OrtErrorCode
FN:59,59,_ZNK3Ort9Exception4whatEv
FN:632,632,_ZN3Ort6detail10OrtReleaseEP6OrtEnv
FN:639,639,_ZN3Ort6detail10OrtReleaseEP13OrtMemoryInfo
FN:647,647,_ZN3Ort6detail10OrtReleaseEP13OrtRunOptions
FN:648,648,_ZN3Ort6detail10OrtReleaseEP10OrtSession
FN:649,649,_ZN3Ort6detail10OrtReleaseEP17OrtSessionOptions
FN:651,651,_ZN3Ort6detail10OrtReleaseEP9OrtStatus
FN:653,653,_ZN3Ort6detail10OrtReleaseEP25OrtTensorTypeAndShapeInfo
FN:656,656,_ZN3Ort6detail10OrtReleaseEP8OrtValue
FN:704,704,_ZN3Ort6detail4BaseI10OrtSessionEC2Ev
FN:704,704,_ZN3Ort6detail4BaseI13OrtRunOptionsEC2Ev
FN:704,704,_ZN3Ort6detail4BaseI17OrtSessionOptionsEC2Ev
FN:704,704,_ZN3Ort6detail4BaseI6OrtEnvEC2Ev
FN:704,704,_ZN3Ort6detail4BaseI8OrtValueEC2Ev
FN:705,705,_ZN3Ort6detail4BaseI13OrtMemoryInfoEC2EPS2_
FN:705,705,_ZN3Ort6detail4BaseI25OrtTensorTypeAndShapeInfoEC2EPS2_
FN:705,705,_ZN3Ort6detail4BaseI8OrtValueEC2EPS2_
FN:705,705,_ZN3Ort6detail4BaseI9OrtStatusEC2EPS2_
FN:706,708,_ZN3Ort6detail4BaseI10OrtSessionED2Ev
FN:706,708,_ZN3Ort6detail4BaseI13OrtMemoryInfoED2Ev
FN:706,708,_ZN3Ort6detail4BaseI13OrtRunOptionsED2Ev
FN:706,708,_ZN3Ort6detail4BaseI17OrtSessionOptionsED2Ev
FN:706,708,_ZN3Ort6detail4BaseI25OrtTensorTypeAndShapeInfoED2Ev
FN:706,708,_ZN3Ort6detail4BaseI6OrtEnvED2Ev
FN:706,708,_ZN3Ort6detail4BaseI8OrtValueED2Ev
FN:706,708,_ZN3Ort6detail4BaseI9OrtStatusED2Ev
FN:713,713,_ZN3Ort6detail4BaseI8OrtValueEC2EOS3_
FN:720,720,_ZNK3Ort6detail4BaseI13OrtMemoryInfoEcvPS2_Ev
FN:720,720,_ZNK3Ort6detail4BaseI13OrtRunOptionsEcvPS2_Ev
FN:720,720,_ZNK3Ort6detail4BaseI17OrtSessionOptionsEcvPS2_Ev
FN:720,720,_ZNK3Ort6detail4BaseI6OrtEnvEcvPS2_Ev
FN:750,750,_ZN3Ort6detail4BaseINS0_7UnownedI12OrtAllocatorEEEC2Ev
FN:765,765,_ZNK3Ort6detail4BaseINS0_7UnownedI12OrtAllocatorEEEcvPS3_Ev
FN:775,776,_ZN3Ort6detail13AllocatedFreeC2EP12OrtAllocator
FN:777,779,_ZNK3Ort6detail13AllocatedFreeclEPv
FNDA:237,_ZN3Ort10MemoryInfoC2EP13OrtMemoryInfo
FNDA:9544,_ZN3Ort6detail6Global3ApiEPK6OrtApi
FNDA:237,_ZN3Ort10RunOptionsC2EDn
FNDA:9,_ZN3Ort6detail6Global11DefaultInitEv
FNDA:9544,_ZN3Ort6GetApiEv
FNDA:711,_ZN3Ort22TensorTypeAndShapeInfoC2EP25OrtTensorTypeAndShapeInfo
FNDA:711,_ZN3Ort5ValueC2EDn
FNDA:711,_ZN3Ort5ValueC2EOS0_
FNDA:2,_ZN3Ort9ExceptionC2EONSt7__cxx1112basic_stringIcSt11char_traitsIcESaIcEEE12OrtErrorCode
FNDA:2,_ZNK3Ort9Exception4whatEv
FNDA:57,_ZN3Ort6detail10OrtReleaseEP6OrtEnv
FNDA:237,_ZN3Ort6detail10OrtReleaseEP13OrtMemoryInfo
FNDA:237,_ZN3Ort6detail10OrtReleaseEP13OrtRunOptions
FNDA:57,_ZN3Ort6detail10OrtReleaseEP10OrtSession
FNDA:57,_ZN3Ort6detail10OrtReleaseEP17OrtSessionOptions
FNDA:2,_ZN3Ort6detail10OrtReleaseEP9OrtStatus
FNDA:711,_ZN3Ort6detail10OrtReleaseEP25OrtTensorTypeAndShapeInfo
FNDA:1896,_ZN3Ort6detail10OrtReleaseEP8OrtValue
FNDA:57,_ZN3Ort6detail4BaseI10OrtSessionEC2Ev
FNDA:237,_ZN3Ort6detail4BaseI13OrtRunOptionsEC2Ev
FNDA:57,_ZN3Ort6detail4BaseI17OrtSessionOptionsEC2Ev
FNDA:57,_ZN3Ort6detail4BaseI6OrtEnvEC2Ev
FNDA:711,_ZN3Ort6detail4BaseI8OrtValueEC2Ev
FNDA:237,_ZN3Ort6detail4BaseI13OrtMemoryInfoEC2EPS2_
FNDA:711,_ZN3Ort6detail4BaseI25OrtTensorTypeAndShapeInfoEC2EPS2_
FNDA:474,_ZN3Ort6detail4BaseI8OrtValueEC2EPS2_
FNDA:2,_ZN3Ort6detail4BaseI9OrtStatusEC2EPS2_
FNDA:57,_ZN3Ort6detail4BaseI10OrtSessionED2Ev
FNDA:237,_ZN3Ort6detail4BaseI13OrtMemoryInfoED2Ev
FNDA:237,_ZN3Ort6detail4BaseI13OrtRunOptionsED2Ev
FNDA:57,_ZN3Ort6detail4BaseI17OrtSessionOptionsED2Ev
FNDA:711,_ZN3Ort6detail4BaseI25OrtTensorTypeAndShapeInfoED2Ev
FNDA:57,_ZN3Ort6detail4BaseI6OrtEnvED2Ev
FNDA:1896,_ZN3Ort6detail4BaseI8OrtValueED2Ev
FNDA:2,_ZN3Ort6detail4BaseI9OrtStatusED2Ev
FNDA:711,_ZN3Ort6detail4BaseI8OrtValueEC2EOS3_
FNDA:474,_ZNK3Ort6detail4BaseI13OrtMemoryInfoEcvPS2_Ev
FNDA:237,_ZNK3Ort6detail4BaseI13OrtRunOptionsEcvPS2_Ev
FNDA:57,_ZNK3Ort6detail4BaseI17OrtSessionOptionsEcvPS2_Ev
FNDA:57,_ZNK3Ort6detail4BaseI6OrtEnvEcvPS2_Ev
FNDA:89,_ZN3Ort6detail4BaseINS0_7UnownedI12OrtAllocatorEEEC2Ev
FNDA:1185,_ZNK3Ort6detail4BaseINS0_7UnownedI12OrtAllocatorEEEcvPS3_Ev
FNDA:1185,_ZN3Ort6detail13AllocatedFreeC2EP12OrtAllocator
FNDA:1185,_ZNK3Ort6detail13AllocatedFreeclEPv
FNF:44
FNH:44
DA:56,4
DA:59,2
DA:115,9544
DA:132,9544
DA:134,9544
DA:135,0
DA:138,9544
DA:183,9
DA:184,9
DA:189,9544
DA:632,57
DA:639,237
DA:647,237
DA:648,57
DA:649,57
DA:651,2
DA:653,711
DA:656,1896
DA:704,1119
DA:705,1424
DA:706,3254
DA:707,3254
DA:708,3254
DA:713,711
DA:720,825
DA:750,89
DA:765,1185
DA:775,1185
DA:776,1185
DA:777,1185
DA:778,1185
DA:779,1185
DA:1012,237
DA:1341,237
DA:1913,711
DA:2387,711
DA:2388,711
LF:37
LH:36
end_of_record
TN:
SF:/opt/onnxruntime/include/onnxruntime_cxx_inline.h
FN:1214,1217,_ZN3Ort6detail18SessionOptionsImplI17OrtSessionOptionsE20SetIntraOpNumThreadsEi
FN:1220,1223,_ZN3Ort6detail18SessionOptionsImplI17OrtSessionOptionsE20SetInterOpNumThreadsEi
FN:1226,1229,_ZN3Ort6detail18SessionOptionsImplI17OrtSessionOptionsE25SetGraphOptimizationLevelE22GraphOptimizationLevel
FN:1604,1608,_ZNK3Ort6detail16ConstSessionImplI10OrtSessionE13GetInputCountEv
FN:1611,1615,_ZNK3Ort6detail16ConstSessionImplI10OrtSessionE14GetOutputCountEv
FN:1713,1717,_ZNK3Ort6detail16ConstSessionImplI10OrtSessionE21GetInputNameAllocatedEmP12OrtAllocator
FN:1720,1724,_ZNK3Ort6detail16ConstSessionImplI10OrtSessionE22GetOutputNameAllocatedEmP12OrtAllocator
FN:1851,1859,_ZN3Ort6detail11SessionImplI10OrtSessionE3RunERKNS_10RunOptionsEPKPKcPKNS_5ValueEmSA_m
FN:1862,1868,_ZN3Ort6detail11SessionImplI10OrtSessionE3RunERKNS_10RunOptionsEPKPKcPKNS_5ValueEmSA_PSB_m
FN:1908,1910,_ZN3Ort14SessionOptionsC2Ev
FN:1933,1935,_ZN3Ort7SessionC2ERKNS_3EnvEPKcRKNS_14SessionOptionsE
FN:2120,2124,_ZNK3Ort6detail26TensorTypeAndShapeInfoImplI25OrtTensorTypeAndShapeInfoE18GetDimensionsCountEv
FN:2148,2152,_ZNK3Ort6detail26TensorTypeAndShapeInfoImplI25OrtTensorTypeAndShapeInfoE8GetShapeEv
FN:2228,2232,_ZNK3Ort6detail14ConstValueImplI8OrtValueE8IsTensorEv
FN:2299,2303,_ZNK3Ort6detail14ConstValueImplI8OrtValueE25GetTensorTypeAndShapeInfoEv
FN:2413,2417,_ZN3Ort6detail9ValueImplI8OrtValueE20GetTensorMutableDataIfEEPT_v
FN:2477,2480,_ZN3Ort5Value12CreateTensorIfEES0_PK13OrtMemoryInfoPT_mPKlm
FN:2477,2480,_ZN3Ort5Value12CreateTensorIlEES0_PK13OrtMemoryInfoPT_mPKlm
FN:2482,2488,_ZN3Ort5Value12CreateTensorEPK13OrtMemoryInfoPvmPKlm25ONNXTensorElementDataType
FN:255,257,_ZN3Ort27AllocatorWithDefaultOptionsC2Ev
FN:320,324,_ZN3Ort10MemoryInfo9CreateCpuE16OrtAllocatorType10OrtMemType
FN:37,41,_ZN3Ort6detail11ThrowStatusERKNS_6StatusE
FN:44,49,_ZN3Ort12ThrowOnErrorEP9OrtStatus
FN:57,58,_ZN3Ort6StatusC2EP9OrtStatus
FN:72,75,_ZNK3Ort6Status15GetErrorMessageB5cxx11Ev
FN:77,79,_ZNK3Ort6Status12GetErrorCodeEv
FN:805,812,_ZN3Ort3EnvC2E15OrtLoggingLevelPKc
FNDA:57,_ZN3Ort6detail18SessionOptionsImplI17OrtSessionOptionsE20SetIntraOpNumThreadsEi
FNDA:57,_ZN3Ort6detail18SessionOptionsImplI17OrtSessionOptionsE20SetInterOpNumThreadsEi
FNDA:57,_ZN3Ort6detail18SessionOptionsImplI17OrtSessionOptionsE25SetGraphOptimizationLevelE22GraphOptimizationLevel
FNDA:55,_ZNK3Ort6detail16ConstSessionImplI10OrtSessionE13GetInputCountEv
FNDA:55,_ZNK3Ort6detail16ConstSessionImplI10OrtSessionE14GetOutputCountEv
FNDA:474,_ZNK3Ort6detail16ConstSessionImplI10OrtSessionE21GetInputNameAllocatedEmP12OrtAllocator
FNDA:711,_ZNK3Ort6detail16ConstSessionImplI10OrtSessionE22GetOutputNameAllocatedEmP12OrtAllocator
FNDA:237,_ZN3Ort6detail11SessionImplI10OrtSessionE3RunERKNS_10RunOptionsEPKPKcPKNS_5ValueEmSA_m
FNDA:237,_ZN3Ort6detail11SessionImplI10OrtSessionE3RunERKNS_10RunOptionsEPKPKcPKNS_5ValueEmSA_PSB_m
FNDA:57,_ZN3Ort14SessionOptionsC2Ev
FNDA:57,_ZN3Ort7SessionC2ERKNS_3EnvEPKcRKNS_14SessionOptionsE
FNDA:711,_ZNK3Ort6detail26TensorTypeAndShapeInfoImplI25OrtTensorTypeAndShapeInfoE18GetDimensionsCountEv
FNDA:711,_ZNK3Ort6detail26TensorTypeAndShapeInfoImplI25OrtTensorTypeAndShapeInfoE8GetShapeEv
FNDA:711,_ZNK3Ort6detail14ConstValueImplI8OrtValueE8IsTensorEv
FNDA:711,_ZNK3Ort6detail14ConstValueImplI8OrtValueE25GetTensorTypeAndShapeInfoEv
FNDA:711,_ZN3Ort6detail9ValueImplI8OrtValueE20GetTensorMutableDataIfEEPT_v
FNDA:237,_ZN3Ort5Value12CreateTensorIfEES0_PK13OrtMemoryInfoPT_mPKlm
FNDA:237,_ZN3Ort5Value12CreateTensorIlEES0_PK13OrtMemoryInfoPT_mPKlm
FNDA:474,_ZN3Ort5Value12CreateTensorEPK13OrtMemoryInfoPvmPKlm25ONNXTensorElementDataType
FNDA:89,_ZN3Ort27AllocatorWithDefaultOptionsC2Ev
FNDA:237,_ZN3Ort10MemoryInfo9CreateCpuE16OrtAllocatorType10OrtMemType
FNDA:2,_ZN3Ort6detail11ThrowStatusERKNS_6StatusE
FNDA:6286,_ZN3Ort12ThrowOnErrorEP9OrtStatus
FNDA:2,_ZN3Ort6StatusC2EP9OrtStatus
FNDA:2,_ZNK3Ort6Status15GetErrorMessageB5cxx11Ev
FNDA:2,_ZNK3Ort6Status12GetErrorCodeEv
FNDA:57,_ZN3Ort3EnvC2E15OrtLoggingLevelPKc
FNF:27
FNH:27
DA:37,2
DA:38,2
DA:39,2
DA:40,4
DA:41,2
DA:44,6286
DA:45,6286
DA:46,2
DA:47,2
DA:48,2
DA:49,6284
DA:57,2
DA:58,2
DA:72,2
DA:73,2
DA:74,2
DA:77,2
DA:78,2
DA:255,89
DA:256,89
DA:257,89
DA:320,237
DA:322,237
DA:323,474
DA:805,57
DA:806,57
DA:807,57
DA:808,0
DA:810,57
DA:812,57
DA:1214,57
DA:1215,57
DA:1216,57
DA:1220,57
DA:1221,57
DA:1222,57
DA:1226,57
DA:1227,57
DA:1228,57
DA:1604,55
DA:1606,55
DA:1607,55
DA:1611,55
DA:1613,55
DA:1614,55
DA:1713,474
DA:1715,474
DA:1716,474
DA:1720,711
DA:1722,711
DA:1723,711
DA:1851,237
DA:1853,237
DA:1854,237
DA:1855,948
DA:1856,711
DA:1857,237
DA:1858,237
DA:1859,0
DA:1862,237
DA:1865,237
DA:1866,237
DA:1867,237
DA:1868,237
DA:1908,57
DA:1909,57
DA:1910,57
DA:1933,57
DA:1934,57
DA:1935,57
DA:2120,711
DA:2122,711
DA:2123,711
DA:2148,711
DA:2149,711
DA:2150,711
DA:2151,711
DA:2152,0
DA:2228,711
DA:2230,711
DA:2231,711
DA:2299,711
DA:2301,711
DA:2302,1422
DA:2413,711
DA:2415,711
DA:2416,711
DA:2477,474
DA:2479,474
DA:2482,474
DA:2486,474
DA:2487,948
LF:92
LH:89
end_of_record
TN:
SF:/usr/include/c++/15/array
FN:289,290,_ZNKSt5arrayIcLm26EE4dataEv
FNDA:6,_ZNKSt5arrayIcLm26EE4dataEv
FNF:1
FNH:1
DA:195,36
DA:285,108
DA:289,6
DA:290,6
LF:4
LH:4
end_of_record
TN:
SF:/usr/include/c++/15/atomic
FN:112,113,_ZNSt6atomicIbE5storeEbSt12memory_order
FN:120,121,_ZNKSt6atomicIbE4loadESt12memory_order
FN:437,437,_ZNSt6atomicIP13QMutexPrivateEC2ES1_
FN:437,437,_ZNSt6atomicIPvEC2ES0_
FN:585,586,_ZNKSt6atomicIP13QMutexPrivateE4loadESt12memory_order
FN:593,595,_ZNSt6atomicIP13QMutexPrivateE8exchangeES1_St12memory_order
FN:630,632,_ZNSt6atomicIP13QMutexPrivateE23compare_exchange_strongERS1_S1_St12memory_orderS4_
FN:842,842,_ZNSt6atomicIiEC2Ei
FN:85,85,_ZNSt6atomicIbEC2Eb
FN:88,89,_ZNSt6atomicIbEaSEb
FNDA:114,_ZNSt6atomicIbE5storeEbSt12memory_order
FNDA:82,_ZNKSt6atomicIbE4loadESt12memory_order
FNDA:16,_ZNSt6atomicIP13QMutexPrivateEC2ES1_
FNDA:16,_ZNSt6atomicIPvEC2ES0_
FNDA:0,_ZNKSt6atomicIP13QMutexPrivateE4loadESt12memory_order
FNDA:0,_ZNSt6atomicIP13QMutexPrivateE8exchangeES1_St12memory_order
FNDA:0,_ZNSt6atomicIP13QMutexPrivateE23compare_exchange_strongERS1_S1_St12memory_orderS4_
FNDA:2006,_ZNSt6atomicIiEC2Ei
FNDA:62,_ZNSt6atomicIbEC2Eb
FNDA:0,_ZNSt6atomicIbEaSEb
FNF:10
FNH:6
DA:85,62
DA:88,0
DA:89,0
DA:112,114
DA:113,114
DA:120,82
DA:121,164
DA:437,32
DA:585,0
DA:586,0
DA:593,0
DA:595,0
DA:630,0
DA:632,0
DA:842,2006
LF:15
LH:7
end_of_record
TN:
SF:/usr/include/c++/15/bits/alloc_traits.h
FNF:0
FNH:0
DA:614,465910
DA:649,18317
DA:674,124290
DA:680,124282
DA:700,461
DA:712,479123
DA:726,0
DA:1045,13913
DA:1046,13913
LF:9
LH:8
end_of_record
TN:
SF:/usr/include/c++/15/bits/allocator.h
FNF:0
FNH:0
DA:168,36466
DA:173,37471
DA:189,47949
LF:3
LH:3
end_of_record
TN:
SF:/usr/include/c++/15/bits/atomic_base.h
FN:110,113,_ZStanSt12memory_orderSt23__memory_order_modifier
FN:133,137,_ZSt32__is_valid_cmpexch_failure_orderSt12memory_order
FN:358,358,_ZNSt13__atomic_baseIbEC2Eb
FN:358,358,_ZNSt13__atomic_baseIiEC2Ei
FN:367,371,_ZNSt13__atomic_baseIbEaSEb
FN:701,701,_ZNSt13__atomic_baseIP13QMutexPrivateEC2ES1_
FN:701,701,_ZNSt13__atomic_baseIPvEC2ES0_
FNDA:1077405,_ZStanSt12memory_orderSt23__memory_order_modifier
FNDA:0,_ZSt32__is_valid_cmpexch_failure_orderSt12memory_order
FNDA:62,_ZNSt13__atomic_baseIbEC2Eb
FNDA:2006,_ZNSt13__atomic_baseIiEC2Ei
FNDA:0,_ZNSt13__atomic_baseIbEaSEb
FNDA:16,_ZNSt13__atomic_baseIP13QMutexPrivateEC2ES1_
FNDA:16,_ZNSt13__atomic_baseIPvEC2ES0_
FNF:7
FNH:5
DA:110,1077405
DA:112,1077405
DA:133,0
DA:135,0
DA:136,0
DA:358,2068
DA:367,0
DA:369,0
DA:370,0
DA:472,190
DA:473,190
DA:474,190
DA:475,190
DA:477,190
DA:478,190
DA:497,1077215
DA:498,1077215
DA:499,1077215
DA:501,1077215
DA:571,0
DA:573,0
DA:574,0
DA:631,42792
DA:641,652656
DA:701,32
DA:826,0
DA:827,0
DA:828,0
DA:830,0
DA:848,0
DA:886,0
DA:888,0
DA:889,0
LF:33
LH:16
end_of_record
TN:
SF:/usr/include/c++/15/bits/basic_string.h
FN:1163,1169,_ZNKSt7__cxx1112basic_stringIcSt11char_traitsIcESaIcEE4sizeEv
FN:1175,1176,_ZNKSt7__cxx1112basic_stringIcSt11char_traitsIcESaIcEE6lengthEv
FN:1181,1187,_ZNKSt7__cxx1112basic_stringIcSt11char_traitsIcESaIcEE8max_sizeEv
FN:140,153,_ZNSt7__cxx1112basic_stringIcSt11char_traitsIcESaIcEE11_S_allocateERS3_m
FN:204,205,_ZNSt7__cxx1112basic_stringIcSt11char_traitsIcESaIcEE12_Alloc_hiderC2EPcRKS3_
FN:208,209,_ZNSt7__cxx1112basic_stringIcSt11char_traitsIcESaIcEE12_Alloc_hiderC2EPcOS3_
FN:228,229,_ZNSt7__cxx1112basic_stringIcSt11char_traitsIcESaIcEE7_M_dataEPc
FN:233,234,_ZNSt7__cxx1112basic_stringIcSt11char_traitsIcESaIcEE9_M_lengthEm
FN:238,239,_ZNKSt7__cxx1112basic_stringIcSt11char_traitsIcESaIcEE7_M_dataEv
FN:243,250,_ZNSt7__cxx1112basic_stringIcSt11char_traitsIcESaIcEE13_M_local_dataEv
FN:254,261,_ZNKSt7__cxx1112basic_stringIcSt11char_traitsIcESaIcEE13_M_local_dataEv
FN:265,266,_ZNSt7__cxx1112basic_stringIcSt11char_traitsIcESaIcEE11_M_capacityEm
FN:270,274,_ZNSt7__cxx1112basic_stringIcSt11char_traitsIcESaIcEE13_M_set_lengthEm
FN:278,287,_ZNKSt7__cxx1112basic_stringIcSt11char_traitsIcESaIcEE11_M_is_localEv
FN:2873,2874,_ZNKSt7__cxx1112basic_stringIcSt11char_traitsIcESaIcEE5c_strEv
FN:2886,2887,_ZNKSt7__cxx1112basic_stringIcSt11char_traitsIcESaIcEE4dataEv
FN:296,300,_ZNSt7__cxx1112basic_stringIcSt11char_traitsIcESaIcEE10_M_disposeEv
FN:304,305,_ZNSt7__cxx1112basic_stringIcSt11char_traitsIcESaIcEE10_M_destroyEm
FN:359,360,_ZNSt7__cxx1112basic_stringIcSt11char_traitsIcESaIcEE16_M_get_allocatorEv
FN:364,365,_ZNKSt7__cxx1112basic_stringIcSt11char_traitsIcESaIcEE16_M_get_allocatorEv
FN:448,454,_ZNSt7__cxx1112basic_stringIcSt11char_traitsIcESaIcEE7_S_copyEPcPKcm
FN:483,506,_ZNSt7__cxx1112basic_stringIcSt11char_traitsIcESaIcEE13_S_copy_charsIPKcEEvPcT_S9_
FN:684,693,_ZNSt7__cxx1112basic_stringIcSt11char_traitsIcESaIcEEC2EPKcmRKS3_
FN:706,715,_ZNSt7__cxx1112basic_stringIcSt11char_traitsIcESaIcEEC2IS3_EEPKcRKS3_
FN:742,763,_ZNSt7__cxx1112basic_stringIcSt11char_traitsIcESaIcEEC2EOS4_
FN:895,896,_ZNSt7__cxx1112basic_stringIcSt11char_traitsIcESaIcEED2Ev
FNDA:12309,_ZNKSt7__cxx1112basic_stringIcSt11char_traitsIcESaIcEE4sizeEv
FNDA:1005,_ZNKSt7__cxx1112basic_stringIcSt11char_traitsIcESaIcEE6lengthEv
FNDA:463781,_ZNKSt7__cxx1112basic_stringIcSt11char_traitsIcESaIcEE8max_sizeEv
FNDA:451415,_ZNSt7__cxx1112basic_stringIcSt11char_traitsIcESaIcEE11_S_allocateERS3_m
FNDA:12017,_ZNSt7__cxx1112basic_stringIcSt11char_traitsIcESaIcEE12_Alloc_hiderC2EPcRKS3_
FNDA:2,_ZNSt7__cxx1112basic_stringIcSt11char_traitsIcESaIcEE12_Alloc_hiderC2EPcOS3_
FNDA:3481,_ZNSt7__cxx1112basic_stringIcSt11char_traitsIcESaIcEE7_M_dataEPc
FNDA:12021,_ZNSt7__cxx1112basic_stringIcSt11char_traitsIcESaIcEE9_M_lengthEm
FNDA:52596,_ZNKSt7__cxx1112basic_stringIcSt11char_traitsIcESaIcEE7_M_dataEv
FNDA:12021,_ZNSt7__cxx1112basic_stringIcSt11char_traitsIcESaIcEE13_M_local_dataEv
FNDA:12370,_ZNKSt7__cxx1112basic_stringIcSt11char_traitsIcESaIcEE13_M_local_dataEv
FNDA:3479,_ZNSt7__cxx1112basic_stringIcSt11char_traitsIcESaIcEE11_M_capacityEm
FNDA:12019,_ZNSt7__cxx1112basic_stringIcSt11char_traitsIcESaIcEE13_M_set_lengthEm
FNDA:12370,_ZNKSt7__cxx1112basic_stringIcSt11char_traitsIcESaIcEE11_M_is_localEv
FNDA:59,_ZNKSt7__cxx1112basic_stringIcSt11char_traitsIcESaIcEE5c_strEv
FNDA:12307,_ZNKSt7__cxx1112basic_stringIcSt11char_traitsIcESaIcEE4dataEv
FNDA:12368,_ZNSt7__cxx1112basic_stringIcSt11char_traitsIcESaIcEE10_M_disposeEv
FNDA:3822,_ZNSt7__cxx1112basic_stringIcSt11char_traitsIcESaIcEE10_M_destroyEm
FNDA:455239,_ZNSt7__cxx1112basic_stringIcSt11char_traitsIcESaIcEE16_M_get_allocatorEv
FNDA:463781,_ZNKSt7__cxx1112basic_stringIcSt11char_traitsIcESaIcEE16_M_get_allocatorEv
FNDA:12017,_ZNSt7__cxx1112basic_stringIcSt11char_traitsIcESaIcEE7_S_copyEPcPKcm
FNDA:12017,_ZNSt7__cxx1112basic_stringIcSt11char_traitsIcESaIcEE13_S_copy_charsIPKcEEvPcT_S9_
FNDA:21759,_ZNSt7__cxx1112basic_stringIcSt11char_traitsIcESaIcEEC2EPKcmRKS3_
FNDA:713,_ZNSt7__cxx1112basic_stringIcSt11char_traitsIcESaIcEEC2IS3_EEPKcRKS3_
FNDA:2,_ZNSt7__cxx1112basic_stringIcSt11char_traitsIcESaIcEEC2EOS4_
FNDA:12368,_ZNSt7__cxx1112basic_stringIcSt11char_traitsIcESaIcEED2Ev
FNF:26
FNH:26
DA:140,451415
DA:142,451415
DA:152,451415
DA:204,12017
DA:205,12017
DA:208,2
DA:209,2
DA:228,3481
DA:229,3481
DA:233,12021
DA:234,12021
DA:238,52596
DA:239,52596
DA:243,12021
DA:246,12021
DA:254,12370
DA:257,12370
DA:265,3479
DA:266,3479
DA:270,12019
DA:272,12019
DA:273,12019
DA:274,12019
DA:278,12370
DA:280,12370
DA:282,8546
DA:283,0
DA:284,8546
DA:286,3824
DA:296,12368
DA:298,12368
DA:299,3822
DA:300,12368
DA:304,3822
DA:305,3822
DA:359,455239
DA:360,455239
DA:364,463781
DA:365,463781
DA:378,8540
DA:388,2
DA:448,12017
DA:450,12017
DA:451,0
DA:453,12017
DA:454,12017
DA:483,12017
DA:489,24034
DA:506,12017
DA:684,21759
DA:686,21759
DA:689,21759
DA:690,0
DA:692,21759
DA:693,21759
DA:706,713
DA:707,713
DA:710,713
DA:711,0
DA:713,713
DA:714,713
DA:715,713
DA:742,2
DA:743,4
DA:745,2
DA:748,0
DA:749,0
DA:753,2
DA:754,2
DA:760,2
DA:761,2
DA:762,2
DA:763,2
DA:895,12368
DA:896,12368
DA:1163,12309
DA:1165,12309
DA:1166,12309
DA:1167,0
DA:1168,12309
DA:1175,1005
DA:1176,1005
DA:1181,463781
DA:1183,463781
DA:1185,463781
DA:1186,463781
DA:2873,59
DA:2874,59
DA:2886,12307
DA:2887,12307
LF:90
LH:83
end_of_record
TN:
SF:/usr/include/c++/15/bits/basic_string.tcc
FN:143,165,_ZNSt7__cxx1112basic_stringIcSt11char_traitsIcESaIcEE9_M_createERmm
FN:227,258,_ZNSt7__cxx1112basic_stringIcSt11char_traitsIcESaIcEE12_M_constructIPKcEEvT_S8_St20forward_iterator_tag
FN:245,245,_ZZNSt7__cxx1112basic_stringIcSt11char_traitsIcESaIcEE12_M_constructIPKcEEvT_S8_St20forward_iterator_tagEN6_GuardC2EPS4_
FN:248,248,_ZZNSt7__cxx1112basic_stringIcSt11char_traitsIcESaIcEE12_M_constructIPKcEEvT_S8_St20forward_iterator_tagEN6_GuardD2Ev
FNDA:451415,_ZNSt7__cxx1112basic_stringIcSt11char_traitsIcESaIcEE9_M_createERmm
FNDA:12017,_ZNSt7__cxx1112basic_stringIcSt11char_traitsIcESaIcEE12_M_constructIPKcEEvT_S8_St20forward_iterator_tag
FNDA:12017,_ZZNSt7__cxx1112basic_stringIcSt11char_traitsIcESaIcEE12_M_constructIPKcEEvT_S8_St20forward_iterator_tagEN6_GuardC2EPS4_
FNDA:12017,_ZZNSt7__cxx1112basic_stringIcSt11char_traitsIcESaIcEE12_M_constructIPKcEEvT_S8_St20forward_iterator_tagEN6_GuardD2Ev
FNF:4
FNH:4
DA:143,451415
DA:148,451415
DA:149,0
DA:154,451415
DA:156,57
DA:158,57
DA:159,0
DA:164,451415
DA:227,12017
DA:231,12017
DA:233,12017
DA:235,3477
DA:236,3477
DA:245,12017
DA:248,12017
DA:251,12017
DA:253,12017
DA:255,12017
DA:257,12017
DA:258,12017
LF:20
LH:18
end_of_record
TN:
SF:/usr/include/c++/15/bits/char_traits.h
FN:138,139,_ZN9__gnu_cxx11char_traitsIcE2eqERKcS3_
FN:201,208,_ZN9__gnu_cxx11char_traitsIcE6lengthEPKc
FN:212,219,_ZN9__gnu_cxx11char_traitsIcE4findEPKcmRS2_
FN:345,353,_ZNSt11char_traitsIcE6assignERcRKc
FN:387,394,_ZNSt11char_traitsIcE6lengthEPKc
FN:397,406,_ZNSt11char_traitsIcE4findEPKcmRS1_
FN:421,430,_ZNSt11char_traitsIcE4copyEPcPKcm
FNDA:0,_ZN9__gnu_cxx11char_traitsIcE2eqERKcS3_
FNDA:0,_ZN9__gnu_cxx11char_traitsIcE6lengthEPKc
FNDA:0,_ZN9__gnu_cxx11char_traitsIcE4findEPKcmRS2_
FNDA:12019,_ZNSt11char_traitsIcE6assignERcRKc
FNDA:713,_ZNSt11char_traitsIcE6lengthEPKc
FNDA:8,_ZNSt11char_traitsIcE4findEPKcmRS1_
FNDA:12017,_ZNSt11char_traitsIcE4copyEPcPKcm
FNF:7
FNH:4
DA:138,0
DA:139,0
DA:201,0
DA:204,0
DA:205,0
DA:206,0
DA:207,0
DA:212,0
DA:215,0
DA:216,0
DA:217,0
DA:218,0
DA:345,12019
DA:352,12019
DA:353,12019
DA:387,713
DA:390,713
DA:391,0
DA:393,713
DA:397,8
DA:399,8
DA:400,0
DA:402,8
DA:403,0
DA:405,8
DA:421,12017
DA:423,12017
DA:424,0
DA:429,12017
LF:29
LH:13
end_of_record
TN:
SF:/usr/include/c++/15/bits/chrono.h
FN:1367,1374,_ZNSt8literals15chrono_literals16__check_overflowINSt6chrono8durationIlSt5ratioILl1ELl1EEEEJLc50EEEET_v
FN:1407,1408,_ZNSt8literals15chrono_literalsli1sIJLc50EEEENSt6chrono8durationIlSt5ratioILl1ELl1EEEEv
FN:227,232,_ZNSt6chrono20__duration_cast_implINS_8durationIlSt5ratioILl1ELl1000000000EEEES2_ILl1000000000ELl1EElLb0ELb1EE6__castIlS2_ILl1ELl1EEEES4_RKNS1_IT_T0_EE
FN:227,232,_ZNSt6chrono20__duration_cast_implINS_8durationIlSt5ratioILl1ELl1000000000EEEES2_ILl1000000ELl1EElLb0ELb1EE6__castIlS2_ILl1ELl1000EEEES4_RKNS1_IT_T0_EE
FN:279,297,_ZNSt6chrono13duration_castINS_8durationIlSt5ratioILl1ELl1000000000EEEElS2_ILl1ELl1000EEEENSt9enable_ifIXsrNS_13__is_durationIT_EE5valueES8_E4typeERKNS1_IT0_T1_EE
FN:279,297,_ZNSt6chrono13duration_castINS_8durationIlSt5ratioILl1ELl1000000000EEEElS2_ILl1ELl1EEEENSt9enable_ifIXsrNS_13__is_durationIT_EE5valueES8_E4typeERKNS1_IT0_T1_EE
FN:577,578,_ZNSt6chrono8durationIlSt5ratioILl1ELl1000000000EEEC2IlvEERKT_
FN:577,578,_ZNSt6chrono8durationIlSt5ratioILl1ELl1000EEEC2IivEERKT_
FN:577,578,_ZNSt6chrono8durationIlSt5ratioILl1ELl1EEEC2IlvEERKT_
FN:585,586,_ZNSt6chrono8durationIlSt5ratioILl1ELl1000000000EEEC2IlS1_ILl1ELl1000EEvEERKNS0_IT_T0_EE
FN:585,586,_ZNSt6chrono8durationIlSt5ratioILl1ELl1000000000EEEC2IlS1_ILl1ELl1EEvEERKNS0_IT_T0_EE
FN:593,594,_ZNKSt6chrono8durationIlSt5ratioILl1ELl1000000000EEE5countEv
FN:593,594,_ZNKSt6chrono8durationIlSt5ratioILl1ELl1000EEE5countEv
FN:593,594,_ZNKSt6chrono8durationIlSt5ratioILl1ELl1EEE5countEv
FN:826,833,_ZNSt6chronoltIlSt5ratioILl1ELl1000000000EElS1_ILl1ELl1EEEEbRKNS_8durationIT_T0_EERKNS4_IT1_T2_EE
FN:873,875,_ZNSt6chronogeIlSt5ratioILl1ELl1000000000EElS1_ILl1ELl1EEEEbRKNS_8durationIT_T0_EERKNS4_IT1_T2_EE
FNDA:4,_ZNSt8literals15chrono_literals16__check_overflowINSt6chrono8durationIlSt5ratioILl1ELl1EEEEJLc50EEEET_v
FNDA:4,_ZNSt8literals15chrono_literalsli1sIJLc50EEEENSt6chrono8durationIlSt5ratioILl1ELl1EEEEv
FNDA:4,_ZNSt6chrono20__duration_cast_implINS_8durationIlSt5ratioILl1ELl1000000000EEEES2_ILl1000000000ELl1EElLb0ELb1EE6__castIlS2_ILl1ELl1EEEES4_RKNS1_IT_T0_EE
FNDA:8,_ZNSt6chrono20__duration_cast_implINS_8durationIlSt5ratioILl1ELl1000000000EEEES2_ILl1000000ELl1EElLb0ELb1EE6__castIlS2_ILl1ELl1000EEEES4_RKNS1_IT_T0_EE
FNDA:8,_ZNSt6chrono13duration_castINS_8durationIlSt5ratioILl1ELl1000000000EEEElS2_ILl1ELl1000EEEENSt9enable_ifIXsrNS_13__is_durationIT_EE5valueES8_E4typeERKNS1_IT0_T1_EE
FNDA:4,_ZNSt6chrono13duration_castINS_8durationIlSt5ratioILl1ELl1000000000EEEElS2_ILl1ELl1EEEENSt9enable_ifIXsrNS_13__is_durationIT_EE5valueES8_E4typeERKNS1_IT0_T1_EE
FNDA:12,_ZNSt6chrono8durationIlSt5ratioILl1ELl1000000000EEEC2IlvEERKT_
FNDA:8,_ZNSt6chrono8durationIlSt5ratioILl1ELl1000EEEC2IivEERKT_
FNDA:4,_ZNSt6chrono8durationIlSt5ratioILl1ELl1EEEC2IlvEERKT_
FNDA:8,_ZNSt6chrono8durationIlSt5ratioILl1ELl1000000000EEEC2IlS1_ILl1ELl1000EEvEERKNS0_IT_T0_EE
FNDA:4,_ZNSt6chrono8durationIlSt5ratioILl1ELl1000000000EEEC2IlS1_ILl1ELl1EEvEERKNS0_IT_T0_EE
FNDA:20,_ZNKSt6chrono8durationIlSt5ratioILl1ELl1000000000EEE5countEv
FNDA:8,_ZNKSt6chrono8durationIlSt5ratioILl1ELl1000EEE5countEv
FNDA:4,_ZNKSt6chrono8durationIlSt5ratioILl1ELl1EEE5countEv
FNDA:4,_ZNSt6chronoltIlSt5ratioILl1ELl1000000000EElS1_ILl1ELl1EEEEbRKNS_8durationIT_T0_EERKNS4_IT1_T2_EE
FNDA:4,_ZNSt6chronogeIlSt5ratioILl1ELl1000000000EElS1_ILl1ELl1EEEEbRKNS_8durationIT_T0_EERKNS4_IT1_T2_EE
FNF:16
FNH:16
DA:227,12
DA:230,24
DA:231,12
DA:279,12
DA:293,12
DA:577,24
DA:578,24
DA:585,12
DA:586,12
DA:593,32
DA:594,32
DA:826,4
DA:832,4
DA:873,4
DA:875,4
DA:1367,4
DA:1370,4
DA:1373,4
DA:1407,4
DA:1408,4
LF:20
LH:20
end_of_record
TN:
SF:/usr/include/c++/15/bits/exception.h
FN:64,64,_ZNSt9exceptionC2Ev
FNDA:2,_ZNSt9exceptionC2Ev
FNF:1
FNH:1
DA:64,2
LF:1
LH:1
end_of_record
TN:
SF:/usr/include/c++/15/bits/invoke.h
FN:106,119,_ZSt10__invoke_rIbRZN6optikg15DatabaseManager28retryInsertExtractionRecordsERK5QListINS0_16ExtractionRecordEEiEUlvE_JEENSt9enable_ifIX16is_invocable_r_vIT_T0_JDpT1_EEESA_E4typeEOSB_DpOSC_
FN:106,119,_ZSt10__invoke_rIbRZN9QMetaType17registerConverterI5QListIxE9QIterableI13QMetaSequenceEN9QtPrivate33QSequentialIterableConvertFunctorIS3_EEEEbT1_EUlPKvPvE_JSC_SD_EENSt9enable_ifIX16is_invocable_r_vIT_T0_JDpT1_EEESH_E4typeEOSI_DpOSJ_
FN:106,119,_ZSt10__invoke_rIbRZN9QMetaType19registerMutableViewI5QListIxE9QIterableI13QMetaSequenceEN9QtPrivate37QSequentialIterableMutableViewFunctorIS3_EEEEbT1_EUlPvSB_E_JSB_SB_EENSt9enable_ifIX16is_invocable_r_vIT_T0_JDpT1_EEESF_E4typeEOSG_DpOSH_
FN:62,63,_ZSt13__invoke_implIN6optikg16ExtractionRecordERZNS0_14BatchProcessor26processCsvFileWithProgressERK7QStringPNS0_15InferenceEngineERiiEUlS5_E_JS5_EET_St14__invoke_otherOT0_DpOT1_
FN:62,63,_ZSt13__invoke_implIN6optikg16ExtractionRecordERZNS0_14BatchProcessor27processJsonFileWithProgressERK7QStringPNS0_15InferenceEngineERiiEUlS5_E_JS5_EET_St14__invoke_otherOT0_DpOT1_
FN:62,63,_ZSt13__invoke_implIbRZN6optikg15DatabaseManager28retryInsertExtractionRecordsERK5QListINS0_16ExtractionRecordEEiEUlvE_JEET_St14__invoke_otherOT0_DpOT1_
FN:62,63,_ZSt13__invoke_implIbRZN9QMetaType17registerConverterI5QListIxE9QIterableI13QMetaSequenceEN9QtPrivate33QSequentialIterableConvertFunctorIS3_EEEEbT1_EUlPKvPvE_JSC_SD_EET_St14__invoke_otherOT0_DpOT1_
FN:62,63,_ZSt13__invoke_implIbRZN9QMetaType19registerMutableViewI5QListIxE9QIterableI13QMetaSequenceEN9QtPrivate37QSequentialIterableMutableViewFunctorIS3_EEEEbT1_EUlPvSB_E_JSB_SB_EET_St14__invoke_otherOT0_DpOT1_
FN:62,63,_ZSt13__invoke_implIvRN9QtPrivate15PushBackWrapperEJR5QListIN6optikg16ExtractionRecordEERKS5_EET_St14__invoke_otherOT0_DpOT1_
FN:92,100,_ZSt8__invokeIRN9QtPrivate15PushBackWrapperEJR5QListIN6optikg16ExtractionRecordEERKS5_EENSt15__invoke_resultIT_JDpT0_EE4typeEOSB_DpOSC_
FN:92,100,_ZSt8__invokeIRZN6optikg14BatchProcessor26processCsvFileWithProgressERK7QStringPNS0_15InferenceEngineERiiEUlS4_E_JS4_EENSt15__invoke_resultIT_JDpT0_EE4typeEOSB_DpOSC_
FN:92,100,_ZSt8__invokeIRZN6optikg14BatchProcessor27processJsonFileWithProgressERK7QStringPNS0_15InferenceEngineERiiEUlS4_E_JS4_EENSt15__invoke_resultIT_JDpT0_EE4typeEOSB_DpOSC_
FNDA:0,_ZSt10__invoke_rIbRZN6optikg15DatabaseManager28retryInsertExtractionRecordsERK5QListINS0_16ExtractionRecordEEiEUlvE_JEENSt9enable_ifIX16is_invocable_r_vIT_T0_JDpT1_EEESA_E4typeEOSB_DpOSC_
FNDA:0,_ZSt10__invoke_rIbRZN9QMetaType17registerConverterI5QListIxE9QIterableI13QMetaSequenceEN9QtPrivate33QSequentialIterableConvertFunctorIS3_EEEEbT1_EUlPKvPvE_JSC_SD_EENSt9enable_ifIX16is_invocable_r_vIT_T0_JDpT1_EEESH_E4typeEOSI_DpOSJ_
FNDA:0,_ZSt10__invoke_rIbRZN9QMetaType19registerMutableViewI5QListIxE9QIterableI13QMetaSequenceEN9QtPrivate37QSequentialIterableMutableViewFunctorIS3_EEEEbT1_EUlPvSB_E_JSB_SB_EENSt9enable_ifIX16is_invocable_r_vIT_T0_JDpT1_EEESF_E4typeEOSG_DpOSH_
FNDA:0,_ZSt13__invoke_implIN6optikg16ExtractionRecordERZNS0_14BatchProcessor26processCsvFileWithProgressERK7QStringPNS0_15InferenceEngineERiiEUlS5_E_JS5_EET_St14__invoke_otherOT0_DpOT1_
FNDA:0,_ZSt13__invoke_implIN6optikg16ExtractionRecordERZNS0_14BatchProcessor27processJsonFileWithProgressERK7QStringPNS0_15InferenceEngineERiiEUlS5_E_JS5_EET_St14__invoke_otherOT0_DpOT1_
FNDA:0,_ZSt13__invoke_implIbRZN6optikg15DatabaseManager28retryInsertExtractionRecordsERK5QListINS0_16ExtractionRecordEEiEUlvE_JEET_St14__invoke_otherOT0_DpOT1_
FNDA:0,_ZSt13__invoke_implIbRZN9QMetaType17registerConverterI5QListIxE9QIterableI13QMetaSequenceEN9QtPrivate33QSequentialIterableConvertFunctorIS3_EEEEbT1_EUlPKvPvE_JSC_SD_EET_St14__invoke_otherOT0_DpOT1_
FNDA:0,_ZSt13__invoke_implIbRZN9QMetaType19registerMutableViewI5QListIxE9QIterableI13QMetaSequenceEN9QtPrivate37QSequentialIterableMutableViewFunctorIS3_EEEEbT1_EUlPvSB_E_JSB_SB_EET_St14__invoke_otherOT0_DpOT1_
FNDA:0,_ZSt13__invoke_implIvRN9QtPrivate15PushBackWrapperEJR5QListIN6optikg16ExtractionRecordEERKS5_EET_St14__invoke_otherOT0_DpOT1_
FNDA:0,_ZSt8__invokeIRN9QtPrivate15PushBackWrapperEJR5QListIN6optikg16ExtractionRecordEERKS5_EENSt15__invoke_resultIT_JDpT0_EE4typeEOSB_DpOSC_
FNDA:0,_ZSt8__invokeIRZN6optikg14BatchProcessor26processCsvFileWithProgressERK7QStringPNS0_15InferenceEngineERiiEUlS4_E_JS4_EENSt15__invoke_resultIT_JDpT0_EE4typeEOSB_DpOSC_
FNDA:0,_ZSt8__invokeIRZN6optikg14BatchProcessor27processJsonFileWithProgressERK7QStringPNS0_15InferenceEngineERiiEUlS4_E_JS4_EENSt15__invoke_resultIT_JDpT0_EE4typeEOSB_DpOSC_
FNF:12
FNH:0
DA:62,0
DA:63,0
DA:92,0
DA:98,0
DA:99,0
DA:106,0
DA:116,0
DA:118,0
LF:8
LH:0
end_of_record
TN:
SF:/usr/include/c++/15/bits/move.h
FN:188,193,_ZSt10__exchangeIP15QTypedArrayDataI7QStringEDnET_RS4_OT0_
FN:188,193,_ZSt10__exchangeIP15QTypedArrayDataI8QVariantEDnET_RS4_OT0_
FN:188,193,_ZSt10__exchangeIP15QTypedArrayDataIDsEDnET_RS3_OT0_
FN:188,193,_ZSt10__exchangeIP15QTypedArrayDataIN6optikg16ExtractionRecordEEDnET_RS5_OT0_
FN:188,193,_ZSt10__exchangeIP15QTypedArrayDataIN6optikg6TripleEEDnET_RS5_OT0_
FN:188,193,_ZSt10__exchangeIP15QTypedArrayDataIxEDnET_RS3_OT0_
FN:188,193,_ZSt10__exchangeIP7QStringDnET_RS2_OT0_
FN:188,193,_ZSt10__exchangeIP8QVariantDnET_RS2_OT0_
FN:188,193,_ZSt10__exchangeIPDsDnET_RS1_OT0_
FN:188,193,_ZSt10__exchangeIPN6QDebug6StreamEDnET_RS3_OT0_
FN:188,193,_ZSt10__exchangeIPN6optikg16ExtractionRecordEDnET_RS3_OT0_
FN:188,193,_ZSt10__exchangeIPN6optikg6TripleEDnET_RS3_OT0_
FN:188,193,_ZSt10__exchangeIPxDnET_RS1_OT0_
FN:188,193,_ZSt10__exchangeIxiET_RS0_OT0_
FN:227,238,_ZSt4swapIN9QDateTime9ShortDataEENSt9enable_ifIXsrSt6__and_IJSt6__not_ISt15__is_tuple_likeIT_EESt21is_move_constructibleIS6_ESt18is_move_assignableIS6_EEE5valueEvE4typeERS6_SG_
FN:227,238,_ZSt4swapIxENSt9enable_ifIXsrSt6__and_IJSt6__not_ISt15__is_tuple_likeIT_EESt21is_move_constructibleIS4_ESt18is_move_assignableIS4_EEE5valueEvE4typeERS4_SE_
FNDA:52,_ZSt10__exchangeIP15QTypedArrayDataI7QStringEDnET_RS4_OT0_
FNDA:22,_ZSt10__exchangeIP15QTypedArrayDataI8QVariantEDnET_RS4_OT0_
FNDA:50041,_ZSt10__exchangeIP15QTypedArrayDataIDsEDnET_RS3_OT0_
FNDA:84,_ZSt10__exchangeIP15QTypedArrayDataIN6optikg16ExtractionRecordEEDnET_RS5_OT0_
FNDA:1420,_ZSt10__exchangeIP15QTypedArrayDataIN6optikg6TripleEEDnET_RS5_OT0_
FNDA:0,_ZSt10__exchangeIP15QTypedArrayDataIxEDnET_RS3_OT0_
FNDA:52,_ZSt10__exchangeIP7QStringDnET_RS2_OT0_
FNDA:22,_ZSt10__exchangeIP8QVariantDnET_RS2_OT0_
FNDA:50041,_ZSt10__exchangeIPDsDnET_RS1_OT0_
FNDA:4,_ZSt10__exchangeIPN6QDebug6StreamEDnET_RS3_OT0_
FNDA:84,_ZSt10__exchangeIPN6optikg16ExtractionRecordEDnET_RS3_OT0_
FNDA:1420,_ZSt10__exchangeIPN6optikg6TripleEDnET_RS3_OT0_
FNDA:0,_ZSt10__exchangeIPxDnET_RS1_OT0_
FNDA:51619,_ZSt10__exchangeIxiET_RS0_OT0_
FNDA:2418,_ZSt4swapIN9QDateTime9ShortDataEENSt9enable_ifIXsrSt6__and_IJSt6__not_ISt15__is_tuple_likeIT_EESt21is_move_constructibleIS6_ESt18is_move_assignableIS6_EEE5valueEvE4typeERS6_SG_
FNDA:17458,_ZSt4swapIxENSt9enable_ifIXsrSt6__and_IJSt6__not_ISt15__is_tuple_likeIT_EESt21is_move_constructibleIS4_ESt18is_move_assignableIS4_EEE5valueEvE4typeERS4_SE_
FNF:16
FNH:14
DA:53,206594
DA:73,743396
DA:139,170900
DA:161,0
DA:177,25521
DA:188,154861
DA:190,154861
DA:191,154861
DA:192,154861
DA:227,19876
DA:235,19876
DA:236,19876
DA:237,19876
DA:238,19876
LF:14
LH:13
end_of_record
TN:
SF:/usr/include/c++/15/bits/new_allocator.h
FN:104,104,_ZNSt15__new_allocatorI21TokenizerEncodeResultED2Ev
FN:104,104,_ZNSt15__new_allocatorIN3Ort5ValueEED2Ev
FN:104,104,_ZNSt15__new_allocatorIN6optikg10EntitySpanEED2Ev
FN:104,104,_ZNSt15__new_allocatorIPKcED2Ev
FN:104,104,_ZNSt15__new_allocatorISt13_Rb_tree_nodeISt4pairIK7QStringN6optikg12AppConstants14EntityTypeInfoEEEED2Ev
FN:104,104,_ZNSt15__new_allocatorISt13_Rb_tree_nodeISt4pairIK7QStringN6optikg6TripleEEEED2Ev
FN:104,104,_ZNSt15__new_allocatorISt13_Rb_tree_nodeISt4pairIKi7QStringEEED2Ev
FN:104,104,_ZNSt15__new_allocatorISt13_Rb_tree_nodeISt4pairIKiN12QtConcurrent19IntermediateResultsIN6optikg16ExtractionRecordEEEEEED2Ev
FN:104,104,_ZNSt15__new_allocatorISt13_Rb_tree_nodeISt4pairIKiN9QtPrivate10ResultItemEEEED2Ev
FN:104,104,_ZNSt15__new_allocatorISt6vectorIiSaIiEEED2Ev
FN:104,104,_ZNSt15__new_allocatorIcED2Ev
FN:104,104,_ZNSt15__new_allocatorIfED2Ev
FN:104,104,_ZNSt15__new_allocatorIiED2Ev
FN:104,104,_ZNSt15__new_allocatorIlED2Ev
FN:104,104,_ZNSt15__new_allocatorImED2Ev
FN:126,152,_ZNSt15__new_allocatorI21TokenizerEncodeResultE8allocateEmPKv
FN:126,152,_ZNSt15__new_allocatorIN3Ort5ValueEE8allocateEmPKv
FN:126,152,_ZNSt15__new_allocatorIN6optikg10EntitySpanEE8allocateEmPKv
FN:126,152,_ZNSt15__new_allocatorIPKcE8allocateEmPKv
FN:126,152,_ZNSt15__new_allocatorISt13_Rb_tree_nodeISt4pairIK7QStringN6optikg12AppConstants14EntityTypeInfoEEEE8allocateEmPKv
FN:126,152,_ZNSt15__new_allocatorISt13_Rb_tree_nodeISt4pairIK7QStringN6optikg6TripleEEEE8allocateEmPKv
FN:126,152,_ZNSt15__new_allocatorISt13_Rb_tree_nodeISt4pairIKi7QStringEEE8allocateEmPKv
FN:126,152,_ZNSt15__new_allocatorISt13_Rb_tree_nodeISt4pairIKiN12QtConcurrent19IntermediateResultsIN6optikg16ExtractionRecordEEEEEE8allocateEmPKv
FN:126,152,_ZNSt15__new_allocatorISt6vectorIiSaIiEEE8allocateEmPKv
FN:126,152,_ZNSt15__new_allocatorIcE8allocateEmPKv
FN:126,152,_ZNSt15__new_allocatorIfE8allocateEmPKv
FN:126,152,_ZNSt15__new_allocatorIiE8allocateEmPKv
FN:126,152,_ZNSt15__new_allocatorIlE8allocateEmPKv
FN:126,152,_ZNSt15__new_allocatorImE8allocateEmPKv
FN:156,173,_ZNSt15__new_allocatorI21TokenizerEncodeResultE10deallocateEPS0_m
FN:156,173,_ZNSt15__new_allocatorIN3Ort5ValueEE10deallocateEPS1_m
FN:156,173,_ZNSt15__new_allocatorIN6optikg10EntitySpanEE10deallocateEPS1_m
FN:156,173,_ZNSt15__new_allocatorIPKcE10deallocateEPS1_m
FN:156,173,_ZNSt15__new_allocatorISt13_Rb_tree_nodeISt4pairIK7QStringN6optikg12AppConstants14EntityTypeInfoEEEE10deallocateEPS8_m
FN:156,173,_ZNSt15__new_allocatorISt13_Rb_tree_nodeISt4pairIK7QStringN6optikg6TripleEEEE10deallocateEPS7_m
FN:156,173,_ZNSt15__new_allocatorISt13_Rb_tree_nodeISt4pairIKi7QStringEEE10deallocateEPS5_m
FN:156,173,_ZNSt15__new_allocatorISt13_Rb_tree_nodeISt4pairIKiN12QtConcurrent19IntermediateResultsIN6optikg16ExtractionRecordEEEEEE10deallocateEPS9_m
FN:156,173,_ZNSt15__new_allocatorISt13_Rb_tree_nodeISt4pairIKiN9QtPrivate10ResultItemEEEE10deallocateEPS6_m
FN:156,173,_ZNSt15__new_allocatorISt6vectorIiSaIiEEE10deallocateEPS2_m
FN:156,173,_ZNSt15__new_allocatorIcE10deallocateEPcm
FN:156,173,_ZNSt15__new_allocatorIfE10deallocateEPfm
FN:156,173,_ZNSt15__new_allocatorIiE10deallocateEPim
FN:156,173,_ZNSt15__new_allocatorIlE10deallocateEPlm
FN:156,173,_ZNSt15__new_allocatorImE10deallocateEPmm
FNDA:0,_ZNSt15__new_allocatorI21TokenizerEncodeResultED2Ev
FNDA:474,_ZNSt15__new_allocatorIN3Ort5ValueEED2Ev
FNDA:474,_ZNSt15__new_allocatorIN6optikg10EntitySpanEED2Ev
FNDA:0,_ZNSt15__new_allocatorIPKcED2Ev
FNDA:0,_ZNSt15__new_allocatorISt13_Rb_tree_nodeISt4pairIK7QStringN6optikg12AppConstants14EntityTypeInfoEEEED2Ev
FNDA:3,_ZNSt15__new_allocatorISt13_Rb_tree_nodeISt4pairIK7QStringN6optikg6TripleEEEED2Ev
FNDA:55,_ZNSt15__new_allocatorISt13_Rb_tree_nodeISt4pairIKi7QStringEEED2Ev
FNDA:0,_ZNSt15__new_allocatorISt13_Rb_tree_nodeISt4pairIKiN12QtConcurrent19IntermediateResultsIN6optikg16ExtractionRecordEEEEEED2Ev
FNDA:0,_ZNSt15__new_allocatorISt13_Rb_tree_nodeISt4pairIKiN9QtPrivate10ResultItemEEEED2Ev
FNDA:0,_ZNSt15__new_allocatorISt6vectorIiSaIiEEED2Ev
FNDA:24385,_ZNSt15__new_allocatorIcED2Ev
FNDA:711,_ZNSt15__new_allocatorIfED2Ev
FNDA:34623,_ZNSt15__new_allocatorIiED2Ev
FNDA:3081,_ZNSt15__new_allocatorIlED2Ev
FNDA:0,_ZNSt15__new_allocatorImED2Ev
FNDA:0,_ZNSt15__new_allocatorI21TokenizerEncodeResultE8allocateEmPKv
FNDA:711,_ZNSt15__new_allocatorIN3Ort5ValueEE8allocateEmPKv
FNDA:597,_ZNSt15__new_allocatorIN6optikg10EntitySpanEE8allocateEmPKv
FNDA:0,_ZNSt15__new_allocatorIPKcE8allocateEmPKv
FNDA:0,_ZNSt15__new_allocatorISt13_Rb_tree_nodeISt4pairIK7QStringN6optikg12AppConstants14EntityTypeInfoEEEE8allocateEmPKv
FNDA:4,_ZNSt15__new_allocatorISt13_Rb_tree_nodeISt4pairIK7QStringN6optikg6TripleEEEE8allocateEmPKv
FNDA:220,_ZNSt15__new_allocatorISt13_Rb_tree_nodeISt4pairIKi7QStringEEE8allocateEmPKv
FNDA:0,_ZNSt15__new_allocatorISt13_Rb_tree_nodeISt4pairIKiN12QtConcurrent19IntermediateResultsIN6optikg16ExtractionRecordEEEEEE8allocateEmPKv
FNDA:0,_ZNSt15__new_allocatorISt6vectorIiSaIiEEE8allocateEmPKv
FNDA:451415,_ZNSt15__new_allocatorIcE8allocateEmPKv
FNDA:237,_ZNSt15__new_allocatorIfE8allocateEmPKv
FNDA:11541,_ZNSt15__new_allocatorIiE8allocateEmPKv
FNDA:1185,_ZNSt15__new_allocatorIlE8allocateEmPKv
FNDA:0,_ZNSt15__new_allocatorImE8allocateEmPKv
FNDA:0,_ZNSt15__new_allocatorI21TokenizerEncodeResultE10deallocateEPS0_m
FNDA:711,_ZNSt15__new_allocatorIN3Ort5ValueEE10deallocateEPS1_m
FNDA:597,_ZNSt15__new_allocatorIN6optikg10EntitySpanEE10deallocateEPS1_m
FNDA:0,_ZNSt15__new_allocatorIPKcE10deallocateEPS1_m
FNDA:0,_ZNSt15__new_allocatorISt13_Rb_tree_nodeISt4pairIK7QStringN6optikg12AppConstants14EntityTypeInfoEEEE10deallocateEPS8_m
FNDA:4,_ZNSt15__new_allocatorISt13_Rb_tree_nodeISt4pairIK7QStringN6optikg6TripleEEEE10deallocateEPS7_m
FNDA:220,_ZNSt15__new_allocatorISt13_Rb_tree_nodeISt4pairIKi7QStringEEE10deallocateEPS5_m
FNDA:0,_ZNSt15__new_allocatorISt13_Rb_tree_nodeISt4pairIKiN12QtConcurrent19IntermediateResultsIN6optikg16ExtractionRecordEEEEEE10deallocateEPS9_m
FNDA:0,_ZNSt15__new_allocatorISt13_Rb_tree_nodeISt4pairIKiN9QtPrivate10ResultItemEEEE10deallocateEPS6_m
FNDA:0,_ZNSt15__new_allocatorISt6vectorIiSaIiEEE10deallocateEPS2_m
FNDA:3822,_ZNSt15__new_allocatorIcE10deallocateEPcm
FNDA:237,_ZNSt15__new_allocatorIfE10deallocateEPfm
FNDA:11541,_ZNSt15__new_allocatorIiE10deallocateEPim
FNDA:1185,_ZNSt15__new_allocatorIlE10deallocateEPlm
FNDA:0,_ZNSt15__new_allocatorImE10deallocateEPmm
FNF:44
FNH:24
DA:88,36466
DA:92,37471
DA:104,63806
DA:126,465910
DA:134,465910
DA:138,0
DA:139,0
DA:140,0
DA:151,465910
DA:156,18317
DA:172,18317
DA:183,479123
DA:191,248572
DA:198,461
DA:233,945033
LF:15
LH:12
end_of_record
TN:
SF:/usr/include/c++/15/bits/predefined_ops.h
FN:44,45,_ZNK9__gnu_cxx5__ops15_Iter_less_iterclIN5QListIxE14const_iteratorES5_EEbT_T0_
FN:50,51,_ZN9__gnu_cxx5__ops16__iter_less_iterEv
FNDA:0,_ZNK9__gnu_cxx5__ops15_Iter_less_iterclIN5QListIxE14const_iteratorES5_EEbT_T0_
FNDA:0,_ZN9__gnu_cxx5__ops16__iter_less_iterEv
FNF:2
FNH:0
DA:44,0
DA:45,0
DA:50,0
DA:51,0
LF:4
LH:0
end_of_record
TN:
SF:/usr/include/c++/15/bits/ptr_traits.h
FN:134,135,_ZNSt19__ptr_traits_ptr_toIPKcS0_Lb0EE10pointer_toERS0_
FN:134,135,_ZNSt19__ptr_traits_ptr_toIPccLb0EE10pointer_toERc
FNDA:12370,_ZNSt19__ptr_traits_ptr_toIPKcS0_Lb0EE10pointer_toERS0_
FNDA:12021,_ZNSt19__ptr_traits_ptr_toIPccLb0EE10pointer_toERc
FNF:2
FNH:2
DA:134,24391
DA:135,24391
DA:211,1071
LF:3
LH:3
end_of_record
TN:
SF:/usr/include/c++/15/bits/range_access.h
FNF:0
FNH:0
DA:68,24
DA:92,24
DA:276,0
DA:326,0
DA:337,48
DA:347,3928
LF:6
LH:4
end_of_record
TN:
SF:/usr/include/c++/15/bits/std_function.h
FN:136,145,_ZNSt14_Function_base13_Base_managerIZN6optikg15DatabaseManager28retryInsertExtractionRecordsERK5QListINS1_16ExtractionRecordEEiEUlvE_E14_M_get_pointerERKSt9_Any_data
FN:136,145,_ZNSt14_Function_base13_Base_managerIZN9QMetaType17registerConverterI5QListIxE9QIterableI13QMetaSequenceEN9QtPrivate33QSequentialIterableConvertFunctorIS4_EEEEbT1_EUlPKvPvE_E14_M_get_pointerERKSt9_Any_data
FN:136,145,_ZNSt14_Function_base13_Base_managerIZN9QMetaType19registerMutableViewI5QListIxE9QIterableI13QMetaSequenceEN9QtPrivate37QSequentialIterableMutableViewFunctorIS4_EEEEbT1_EUlPvSC_E_E14_M_get_pointerERKSt9_Any_data
FN:152,155,_ZNSt14_Function_base13_Base_managerIZN6optikg15DatabaseManager28retryInsertExtractionRecordsERK5QListINS1_16ExtractionRecordEEiEUlvE_E9_M_createIRKS8_EEvRSt9_Any_dataOT_St17integral_constantIbLb1EE
FN:152,155,_ZNSt14_Function_base13_Base_managerIZN6optikg15DatabaseManager28retryInsertExtractionRecordsERK5QListINS1_16ExtractionRecordEEiEUlvE_E9_M_createIS8_EEvRSt9_Any_dataOT_St17integral_constantIbLb1EE
FN:152,155,_ZNSt14_Function_base13_Base_managerIZN9QMetaType17registerConverterI5QListIxE9QIterableI13QMetaSequenceEN9QtPrivate33QSequentialIterableConvertFunctorIS4_EEEEbT1_EUlPKvPvE_E9_M_createIRKSF_EEvRSt9_Any_dataOT_St17integral_constantIbLb1EE
FN:152,155,_ZNSt14_Function_base13_Base_managerIZN9QMetaType17registerConverterI5QListIxE9QIterableI13QMetaSequenceEN9QtPrivate33QSequentialIterableConvertFunctorIS4_EEEEbT1_EUlPKvPvE_E9_M_createISF_EEvRSt9_Any_dataOT_St17integral_constantIbLb1EE
FN:152,155,_ZNSt14_Function_base13_Base_managerIZN9QMetaType19registerMutableViewI5QListIxE9QIterableI13QMetaSequenceEN9QtPrivate37QSequentialIterableMutableViewFunctorIS4_EEEEbT1_EUlPvSC_E_E9_M_createIRKSD_EEvRSt9_Any_dataOT_St17integral_constantIbLb1EE
FN:152,155,_ZNSt14_Function_base13_Base_managerIZN9QMetaType19registerMutableViewI5QListIxE9QIterableI13QMetaSequenceEN9QtPrivate37QSequentialIterableMutableViewFunctorIS4_EEEEbT1_EUlPvSC_E_E9_M_createISD_EEvRSt9_Any_dataOT_St17integral_constantIbLb1EE
FN:168,171,_ZNSt14_Function_base13_Base_managerIZN6optikg15DatabaseManager28retryInsertExtractionRecordsERK5QListINS1_16ExtractionRecordEEiEUlvE_E10_M_destroyERSt9_Any_dataSt17integral_constantIbLb1EE
FN:168,171,_ZNSt14_Function_base13_Base_managerIZN9QMetaType17registerConverterI5QListIxE9QIterableI13QMetaSequenceEN9QtPrivate33QSequentialIterableConvertFunctorIS4_EEEEbT1_EUlPKvPvE_E10_M_destroyERSt9_Any_dataSt17integral_constantIbLb1EE
FN:168,171,_ZNSt14_Function_base13_Base_managerIZN9QMetaType19registerMutableViewI5QListIxE9QIterableI13QMetaSequenceEN9QtPrivate37QSequentialIterableMutableViewFunctorIS4_EEEEbT1_EUlPvSC_E_E10_M_destroyERSt9_Any_dataSt17integral_constantIbLb1EE
FN:182,209,_ZNSt14_Function_base13_Base_managerIZN6optikg15DatabaseManager28retryInsertExtractionRecordsERK5QListINS1_16ExtractionRecordEEiEUlvE_E10_M_managerERSt9_Any_dataRKSA_St18_Manager_operation
FN:182,209,_ZNSt14_Function_base13_Base_managerIZN9QMetaType17registerConverterI5QListIxE9QIterableI13QMetaSequenceEN9QtPrivate33QSequentialIterableConvertFunctorIS4_EEEEbT1_EUlPKvPvE_E10_M_managerERSt9_Any_dataRKSH_St18_Manager_operation
FN:182,209,_ZNSt14_Function_base13_Base_managerIZN9QMetaType19registerMutableViewI5QListIxE9QIterableI13QMetaSequenceEN9QtPrivate37QSequentialIterableMutableViewFunctorIS4_EEEEbT1_EUlPvSC_E_E10_M_managerERSt9_Any_dataRKSF_St18_Manager_operation
FN:213,218,_ZNSt14_Function_base13_Base_managerIZN6optikg15DatabaseManager28retryInsertExtractionRecordsERK5QListINS1_16ExtractionRecordEEiEUlvE_E15_M_init_functorIRKS8_EEvRSt9_Any_dataOT_
FN:213,218,_ZNSt14_Function_base13_Base_managerIZN6optikg15DatabaseManager28retryInsertExtractionRecordsERK5QListINS1_16ExtractionRecordEEiEUlvE_E15_M_init_functorIS8_EEvRSt9_Any_dataOT_
FN:213,218,_ZNSt14_Function_base13_Base_managerIZN9QMetaType17registerConverterI5QListIxE9QIterableI13QMetaSequenceEN9QtPrivate33QSequentialIterableConvertFunctorIS4_EEEEbT1_EUlPKvPvE_E15_M_init_functorIRKSF_EEvRSt9_Any_dataOT_
FN:213,218,_ZNSt14_Function_base13_Base_managerIZN9QMetaType17registerConverterI5QListIxE9QIterableI13QMetaSequenceEN9QtPrivate33QSequentialIterableConvertFunctorIS4_EEEEbT1_EUlPKvPvE_E15_M_init_functorISF_EEvRSt9_Any_dataOT_
FN:213,218,_ZNSt14_Function_base13_Base_managerIZN9QMetaType19registerMutableViewI5QListIxE9QIterableI13QMetaSequenceEN9QtPrivate37QSequentialIterableMutableViewFunctorIS4_EEEEbT1_EUlPvSC_E_E15_M_init_functorIRKSD_EEvRSt9_Any_dataOT_
FN:213,218,_ZNSt14_Function_base13_Base_managerIZN9QMetaType19registerMutableViewI5QListIxE9QIterableI13QMetaSequenceEN9QtPrivate37QSequentialIterableMutableViewFunctorIS4_EEEEbT1_EUlPvSC_E_E15_M_init_functorISD_EEvRSt9_Any_dataOT_
FN:237,238,_ZNSt14_Function_base13_Base_managerIZN6optikg15DatabaseManager28retryInsertExtractionRecordsERK5QListINS1_16ExtractionRecordEEiEUlvE_E21_M_not_empty_functionIS8_EEbRKT_
FN:237,238,_ZNSt14_Function_base13_Base_managerIZN9QMetaType17registerConverterI5QListIxE9QIterableI13QMetaSequenceEN9QtPrivate33QSequentialIterableConvertFunctorIS4_EEEEbT1_EUlPKvPvE_E21_M_not_empty_functionISF_EEbRKT_
FN:237,238,_ZNSt14_Function_base13_Base_managerIZN9QMetaType19registerMutableViewI5QListIxE9QIterableI13QMetaSequenceEN9QtPrivate37QSequentialIterableMutableViewFunctorIS4_EEEEbT1_EUlPvSC_E_E21_M_not_empty_functionISD_EEbRKT_
FN:241,241,_ZNSt14_Function_baseC2Ev
FN:243,247,_ZNSt14_Function_baseD2Ev
FN:249,249,_ZNKSt14_Function_base8_M_emptyEv
FN:269,287,_ZNSt17_Function_handlerIFbPKvPvEZN9QMetaType17registerConverterI5QListIxE9QIterableI13QMetaSequenceEN9QtPrivate33QSequentialIterableConvertFunctorIS7_EEEEbT1_EUlS1_S2_E_E10_M_managerERSt9_Any_dataRKSH_St18_Manager_operation
FN:269,287,_ZNSt17_Function_handlerIFbPvS0_EZN9QMetaType19registerMutableViewI5QListIxE9QIterableI13QMetaSequenceEN9QtPrivate37QSequentialIterableMutableViewFunctorIS5_EEEEbT1_EUlS0_S0_E_E10_M_managerERSt9_Any_dataRKSF_St18_Manager_operation
FN:269,287,_ZNSt17_Function_handlerIFbvEZN6optikg15DatabaseManager28retryInsertExtractionRecordsERK5QListINS1_16ExtractionRecordEEiEUlvE_E10_M_managerERSt9_Any_dataRKSA_St18_Manager_operation
FN:290,294,_ZNSt17_Function_handlerIFbPKvPvEZN9QMetaType17registerConverterI5QListIxE9QIterableI13QMetaSequenceEN9QtPrivate33QSequentialIterableConvertFunctorIS7_EEEEbT1_EUlS1_S2_E_E9_M_invokeERKSt9_Any_dataOS1_OS2_
FN:290,294,_ZNSt17_Function_handlerIFbPvS0_EZN9QMetaType19registerMutableViewI5QListIxE9QIterableI13QMetaSequenceEN9QtPrivate37QSequentialIterableMutableViewFunctorIS5_EEEEbT1_EUlS0_S0_E_E9_M_invokeERKSt9_Any_dataOS0_SI_
FN:290,294,_ZNSt17_Function_handlerIFbvEZN6optikg15DatabaseManager28retryInsertExtractionRecordsERK5QListINS1_16ExtractionRecordEEiEUlvE_E9_M_invokeERKSt9_Any_data
FN:437,456,_ZNSt8functionIFbPKvPvEEC2IZN9QMetaType17registerConverterI5QListIxE9QIterableI13QMetaSequenceEN9QtPrivate33QSequentialIterableConvertFunctorIS9_EEEEbT1_EUlS1_S2_E_vEEOT_
FN:437,456,_ZNSt8functionIFbPvS0_EEC2IZN9QMetaType19registerMutableViewI5QListIxE9QIterableI13QMetaSequenceEN9QtPrivate37QSequentialIterableMutableViewFunctorIS7_EEEEbT1_EUlS0_S0_E_vEEOT_
FN:437,456,_ZNSt8functionIFbvEEC2IZN6optikg15DatabaseManager28retryInsertExtractionRecordsERK5QListINS3_16ExtractionRecordEEiEUlvE_vEEOT_
FN:589,594,_ZNKSt8functionIFbvEEclEv
FN:87,87,_ZNSt9_Any_data9_M_accessEv
FN:88,88,_ZNKSt9_Any_data9_M_accessEv
FN:92,93,_ZNSt9_Any_data9_M_accessIPKSt9type_infoEERT_v
FN:92,93,_ZNSt9_Any_data9_M_accessIPZN6optikg15DatabaseManager28retryInsertExtractionRecordsERK5QListINS1_16ExtractionRecordEEiEUlvE_EERT_v
FN:92,93,_ZNSt9_Any_data9_M_accessIPZN9QMetaType17registerConverterI5QListIxE9QIterableI13QMetaSequenceEN9QtPrivate33QSequentialIterableConvertFunctorIS4_EEEEbT1_EUlPKvPvE_EERT_v
FN:92,93,_ZNSt9_Any_data9_M_accessIPZN9QMetaType19registerMutableViewI5QListIxE9QIterableI13QMetaSequenceEN9QtPrivate37QSequentialIterableMutableViewFunctorIS4_EEEEbT1_EUlPvSC_E_EERT_v
FN:92,93,_ZNSt9_Any_data9_M_accessIZN6optikg15DatabaseManager28retryInsertExtractionRecordsERK5QListINS1_16ExtractionRecordEEiEUlvE_EERT_v
FN:92,93,_ZNSt9_Any_data9_M_accessIZN9QMetaType17registerConverterI5QListIxE9QIterableI13QMetaSequenceEN9QtPrivate33QSequentialIterableConvertFunctorIS4_EEEEbT1_EUlPKvPvE_EERT_v
FN:92,93,_ZNSt9_Any_data9_M_accessIZN9QMetaType19registerMutableViewI5QListIxE9QIterableI13QMetaSequenceEN9QtPrivate37QSequentialIterableMutableViewFunctorIS4_EEEEbT1_EUlPvSC_E_EERT_v
FN:97,98,_ZNKSt9_Any_data9_M_accessIZN6optikg15DatabaseManager28retryInsertExtractionRecordsERK5QListINS1_16ExtractionRecordEEiEUlvE_EERKT_v
FN:97,98,_ZNKSt9_Any_data9_M_accessIZN9QMetaType17registerConverterI5QListIxE9QIterableI13QMetaSequenceEN9QtPrivate33QSequentialIterableConvertFunctorIS4_EEEEbT1_EUlPKvPvE_EERKT_v
FN:97,98,_ZNKSt9_Any_data9_M_accessIZN9QMetaType19registerMutableViewI5QListIxE9QIterableI13QMetaSequenceEN9QtPrivate37QSequentialIterableMutableViewFunctorIS4_EEEEbT1_EUlPvSC_E_EERKT_v
FNDA:0,_ZNSt14_Function_base13_Base_managerIZN6optikg15DatabaseManager28retryInsertExtractionRecordsERK5QListINS1_16ExtractionRecordEEiEUlvE_E14_M_get_pointerERKSt9_Any_data
FNDA:0,_ZNSt14_Function_base13_Base_managerIZN9QMetaType17registerConverterI5QListIxE9QIterableI13QMetaSequenceEN9QtPrivate33QSequentialIterableConvertFunctorIS4_EEEEbT1_EUlPKvPvE_E14_M_get_pointerERKSt9_Any_data
FNDA:0,_ZNSt14_Function_base13_Base_managerIZN9QMetaType19registerMutableViewI5QListIxE9QIterableI13QMetaSequenceEN9QtPrivate37QSequentialIterableMutableViewFunctorIS4_EEEEbT1_EUlPvSC_E_E14_M_get_pointerERKSt9_Any_data
FNDA:0,_ZNSt14_Function_base13_Base_managerIZN6optikg15DatabaseManager28retryInsertExtractionRecordsERK5QListINS1_16ExtractionRecordEEiEUlvE_E9_M_createIRKS8_EEvRSt9_Any_dataOT_St17integral_constantIbLb1EE
FNDA:0,_ZNSt14_Function_base13_Base_managerIZN6optikg15DatabaseManager28retryInsertExtractionRecordsERK5QListINS1_16ExtractionRecordEEiEUlvE_E9_M_createIS8_EEvRSt9_Any_dataOT_St17integral_constantIbLb1EE
FNDA:0,_ZNSt14_Function_base13_Base_managerIZN9QMetaType17registerConverterI5QListIxE9QIterableI13QMetaSequenceEN9QtPrivate33QSequentialIterableConvertFunctorIS4_EEEEbT1_EUlPKvPvE_E9_M_createIRKSF_EEvRSt9_Any_dataOT_St17integral_constantIbLb1EE
FNDA:0,_ZNSt14_Function_base13_Base_managerIZN9QMetaType17registerConverterI5QListIxE9QIterableI13QMetaSequenceEN9QtPrivate33QSequentialIterableConvertFunctorIS4_EEEEbT1_EUlPKvPvE_E9_M_createISF_EEvRSt9_Any_dataOT_St17integral_constantIbLb1EE
FNDA:0,_ZNSt14_Function_base13_Base_managerIZN9QMetaType19registerMutableViewI5QListIxE9QIterableI13QMetaSequenceEN9QtPrivate37QSequentialIterableMutableViewFunctorIS4_EEEEbT1_EUlPvSC_E_E9_M_createIRKSD_EEvRSt9_Any_dataOT_St17integral_constantIbLb1EE
FNDA:0,_ZNSt14_Function_base13_Base_managerIZN9QMetaType19registerMutableViewI5QListIxE9QIterableI13QMetaSequenceEN9QtPrivate37QSequentialIterableMutableViewFunctorIS4_EEEEbT1_EUlPvSC_E_E9_M_createISD_EEvRSt9_Any_dataOT_St17integral_constantIbLb1EE
FNDA:0,_ZNSt14_Function_base13_Base_managerIZN6optikg15DatabaseManager28retryInsertExtractionRecordsERK5QListINS1_16ExtractionRecordEEiEUlvE_E10_M_destroyERSt9_Any_dataSt17integral_constantIbLb1EE
FNDA:0,_ZNSt14_Function_base13_Base_managerIZN9QMetaType17registerConverterI5QListIxE9QIterableI13QMetaSequenceEN9QtPrivate33QSequentialIterableConvertFunctorIS4_EEEEbT1_EUlPKvPvE_E10_M_destroyERSt9_Any_dataSt17integral_constantIbLb1EE
FNDA:0,_ZNSt14_Function_base13_Base_managerIZN9QMetaType19registerMutableViewI5QListIxE9QIterableI13QMetaSequenceEN9QtPrivate37QSequentialIterableMutableViewFunctorIS4_EEEEbT1_EUlPvSC_E_E10_M_destroyERSt9_Any_dataSt17integral_constantIbLb1EE
FNDA:0,_ZNSt14_Function_base13_Base_managerIZN6optikg15DatabaseManager28retryInsertExtractionRecordsERK5QListINS1_16ExtractionRecordEEiEUlvE_E10_M_managerERSt9_Any_dataRKSA_St18_Manager_operation
FNDA:0,_ZNSt14_Function_base13_Base_managerIZN9QMetaType17registerConverterI5QListIxE9QIterableI13QMetaSequenceEN9QtPrivate33QSequentialIterableConvertFunctorIS4_EEEEbT1_EUlPKvPvE_E10_M_managerERSt9_Any_dataRKSH_St18_Manager_operation
FNDA:0,_ZNSt14_Function_base13_Base_managerIZN9QMetaType19registerMutableViewI5QListIxE9QIterableI13QMetaSequenceEN9QtPrivate37QSequentialIterableMutableViewFunctorIS4_EEEEbT1_EUlPvSC_E_E10_M_managerERSt9_Any_dataRKSF_St18_Manager_operation
FNDA:0,_ZNSt14_Function_base13_Base_managerIZN6optikg15DatabaseManager28retryInsertExtractionRecordsERK5QListINS1_16ExtractionRecordEEiEUlvE_E15_M_init_functorIRKS8_EEvRSt9_Any_dataOT_
FNDA:0,_ZNSt14_Function_base13_Base_managerIZN6optikg15DatabaseManager28retryInsertExtractionRecordsERK5QListINS1_16ExtractionRecordEEiEUlvE_E15_M_init_functorIS8_EEvRSt9_Any_dataOT_
FNDA:0,_ZNSt14_Function_base13_Base_managerIZN9QMetaType17registerConverterI5QListIxE9QIterableI13QMetaSequenceEN9QtPrivate33QSequentialIterableConvertFunctorIS4_EEEEbT1_EUlPKvPvE_E15_M_init_functorIRKSF_EEvRSt9_Any_dataOT_
FNDA:0,_ZNSt14_Function_base13_Base_managerIZN9QMetaType17registerConverterI5QListIxE9QIterableI13QMetaSequenceEN9QtPrivate33QSequentialIterableConvertFunctorIS4_EEEEbT1_EUlPKvPvE_E15_M_init_functorISF_EEvRSt9_Any_dataOT_
FNDA:0,_ZNSt14_Function_base13_Base_managerIZN9QMetaType19registerMutableViewI5QListIxE9QIterableI13QMetaSequenceEN9QtPrivate37QSequentialIterableMutableViewFunctorIS4_EEEEbT1_EUlPvSC_E_E15_M_init_functorIRKSD_EEvRSt9_Any_dataOT_
FNDA:0,_ZNSt14_Function_base13_Base_managerIZN9QMetaType19registerMutableViewI5QListIxE9QIterableI13QMetaSequenceEN9QtPrivate37QSequentialIterableMutableViewFunctorIS4_EEEEbT1_EUlPvSC_E_E15_M_init_functorISD_EEvRSt9_Any_dataOT_
FNDA:0,_ZNSt14_Function_base13_Base_managerIZN6optikg15DatabaseManager28retryInsertExtractionRecordsERK5QListINS1_16ExtractionRecordEEiEUlvE_E21_M_not_empty_functionIS8_EEbRKT_
FNDA:0,_ZNSt14_Function_base13_Base_managerIZN9QMetaType17registerConverterI5QListIxE9QIterableI13QMetaSequenceEN9QtPrivate33QSequentialIterableConvertFunctorIS4_EEEEbT1_EUlPKvPvE_E21_M_not_empty_functionISF_EEbRKT_
FNDA:0,_ZNSt14_Function_base13_Base_managerIZN9QMetaType19registerMutableViewI5QListIxE9QIterableI13QMetaSequenceEN9QtPrivate37QSequentialIterableMutableViewFunctorIS4_EEEEbT1_EUlPvSC_E_E21_M_not_empty_functionISD_EEbRKT_
FNDA:0,_ZNSt14_Function_baseC2Ev
FNDA:0,_ZNSt14_Function_baseD2Ev
FNDA:0,_ZNKSt14_Function_base8_M_emptyEv
FNDA:0,_ZNSt17_Function_handlerIFbPKvPvEZN9QMetaType17registerConverterI5QListIxE9QIterableI13QMetaSequenceEN9QtPrivate33QSequentialIterableConvertFunctorIS7_EEEEbT1_EUlS1_S2_E_E10_M_managerERSt9_Any_dataRKSH_St18_Manager_operation
FNDA:0,_ZNSt17_Function_handlerIFbPvS0_EZN9QMetaType19registerMutableViewI5QListIxE9QIterableI13QMetaSequenceEN9QtPrivate37QSequentialIterableMutableViewFunctorIS5_EEEEbT1_EUlS0_S0_E_E10_M_managerERSt9_Any_dataRKSF_St18_Manager_operation
FNDA:0,_ZNSt17_Function_handlerIFbvEZN6optikg15DatabaseManager28retryInsertExtractionRecordsERK5QListINS1_16ExtractionRecordEEiEUlvE_E10_M_managerERSt9_Any_dataRKSA_St18_Manager_operation
FNDA:0,_ZNSt17_Function_handlerIFbPKvPvEZN9QMetaType17registerConverterI5QListIxE9QIterableI13QMetaSequenceEN9QtPrivate33QSequentialIterableConvertFunctorIS7_EEEEbT1_EUlS1_S2_E_E9_M_invokeERKSt9_Any_dataOS1_OS2_
FNDA:0,_ZNSt17_Function_handlerIFbPvS0_EZN9QMetaType19registerMutableViewI5QListIxE9QIterableI13QMetaSequenceEN9QtPrivate37QSequentialIterableMutableViewFunctorIS5_EEEEbT1_EUlS0_S0_E_E9_M_invokeERKSt9_Any_dataOS0_SI_
FNDA:0,_ZNSt17_Function_handlerIFbvEZN6optikg15DatabaseManager28retryInsertExtractionRecordsERK5QListINS1_16ExtractionRecordEEiEUlvE_E9_M_invokeERKSt9_Any_data
FNDA:0,_ZNSt8functionIFbPKvPvEEC2IZN9QMetaType17registerConverterI5QListIxE9QIterableI13QMetaSequenceEN9QtPrivate33QSequentialIterableConvertFunctorIS9_EEEEbT1_EUlS1_S2_E_vEEOT_
FNDA:0,_ZNSt8functionIFbPvS0_EEC2IZN9QMetaType19registerMutableViewI5QListIxE9QIterableI13QMetaSequenceEN9QtPrivate37QSequentialIterableMutableViewFunctorIS7_EEEEbT1_EUlS0_S0_E_vEEOT_
FNDA:0,_ZNSt8functionIFbvEEC2IZN6optikg15DatabaseManager28retryInsertExtractionRecordsERK5QListINS3_16ExtractionRecordEEiEUlvE_vEEOT_
FNDA:0,_ZNKSt8functionIFbvEEclEv
FNDA:0,_ZNSt9_Any_data9_M_accessEv
FNDA:0,_ZNKSt9_Any_data9_M_accessEv
FNDA:0,_ZNSt9_Any_data9_M_accessIPKSt9type_infoEERT_v
FNDA:0,_ZNSt9_Any_data9_M_accessIPZN6optikg15DatabaseManager28retryInsertExtractionRecordsERK5QListINS1_16ExtractionRecordEEiEUlvE_EERT_v
FNDA:0,_ZNSt9_Any_data9_M_accessIPZN9QMetaType17registerConverterI5QListIxE9QIterableI13QMetaSequenceEN9QtPrivate33QSequentialIterableConvertFunctorIS4_EEEEbT1_EUlPKvPvE_EERT_v
FNDA:0,_ZNSt9_Any_data9_M_accessIPZN9QMetaType19registerMutableViewI5QListIxE9QIterableI13QMetaSequenceEN9QtPrivate37QSequentialIterableMutableViewFunctorIS4_EEEEbT1_EUlPvSC_E_EERT_v
FNDA:0,_ZNSt9_Any_data9_M_accessIZN6optikg15DatabaseManager28retryInsertExtractionRecordsERK5QListINS1_16ExtractionRecordEEiEUlvE_EERT_v
FNDA:0,_ZNSt9_Any_data9_M_accessIZN9QMetaType17registerConverterI5QListIxE9QIterableI13QMetaSequenceEN9QtPrivate33QSequentialIterableConvertFunctorIS4_EEEEbT1_EUlPKvPvE_EERT_v
FNDA:0,_ZNSt9_Any_data9_M_accessIZN9QMetaType19registerMutableViewI5QListIxE9QIterableI13QMetaSequenceEN9QtPrivate37QSequentialIterableMutableViewFunctorIS4_EEEEbT1_EUlPvSC_E_EERT_v
FNDA:0,_ZNKSt9_Any_data9_M_accessIZN6optikg15DatabaseManager28retryInsertExtractionRecordsERK5QListINS1_16ExtractionRecordEEiEUlvE_EERKT_v
FNDA:0,_ZNKSt9_Any_data9_M_accessIZN9QMetaType17registerConverterI5QListIxE9QIterableI13QMetaSequenceEN9QtPrivate33QSequentialIterableConvertFunctorIS4_EEEEbT1_EUlPKvPvE_EERKT_v
FNDA:0,_ZNKSt9_Any_data9_M_accessIZN9QMetaType19registerMutableViewI5QListIxE9QIterableI13QMetaSequenceEN9QtPrivate37QSequentialIterableMutableViewFunctorIS4_EEEEbT1_EUlPvSC_E_EERKT_v
FNF:49
FNH:0
DA:87,0
DA:88,0
DA:92,0
DA:93,0
DA:97,0
DA:98,0
DA:136,0
DA:140,0
DA:141,0
DA:152,0
DA:154,0
DA:155,0
DA:168,0
DA:170,0
DA:171,0
DA:182,0
DA:185,0
DA:187,0
DA:189,0
DA:193,0
DA:195,0
DA:196,0
DA:197,0
DA:199,0
DA:200,0
DA:201,0
DA:202,0
DA:204,0
DA:205,0
DA:206,0
DA:208,0
DA:213,0
DA:217,0
DA:218,0
DA:237,0
DA:238,0
DA:241,0
DA:243,0
DA:245,0
DA:246,0
DA:247,0
DA:249,0
DA:269,0
DA:272,0
DA:275,0
DA:276,0
DA:277,0
DA:279,0
DA:280,0
DA:281,0
DA:283,0
DA:284,0
DA:286,0
DA:290,0
DA:292,0
DA:293,0
DA:437,0
DA:439,0
DA:449,0
DA:451,0
DA:453,0
DA:454,0
DA:456,0
DA:589,0
DA:591,0
DA:592,0
DA:593,0
LF:67
LH:0
end_of_record
TN:
SF:/usr/include/c++/15/bits/std_mutex.h
FN:251,252,_ZNSt10lock_guardI6QMutexEC2ERS0_
FN:258,259,_ZNSt10lock_guardI6QMutexED2Ev
FNDA:0,_ZNSt10lock_guardI6QMutexEC2ERS0_
FNDA:0,_ZNSt10lock_guardI6QMutexED2Ev
FNF:2
FNH:0
DA:251,0
DA:252,0
DA:258,0
DA:259,0
LF:4
LH:0
end_of_record
TN:
SF:/usr/include/c++/15/bits/stl_algo.h
FN:3300,3307,_ZSt6minmaxIPN6optikg16ExtractionRecordEESt4pairIRKT_S6_ES6_S6_
FN:3300,3307,_ZSt6minmaxIPN6optikg17FileProcessResultEESt4pairIRKT_S6_ES6_S6_
FN:3300,3307,_ZSt6minmaxIPN6optikg6EntityEESt4pairIRKT_S6_ES6_S6_
FN:3300,3307,_ZSt6minmaxIPN6optikg6TripleEESt4pairIRKT_S6_ES6_S6_
FN:3300,3307,_ZSt6minmaxIPN6optikg9GraphEdgeEESt4pairIRKT_S6_ES6_S6_
FN:3300,3307,_ZSt6minmaxIPN6optikg9GraphNodeEESt4pairIRKT_S6_ES6_S6_
FN:3300,3307,_ZSt6minmaxISt16reverse_iteratorIPN6optikg16ExtractionRecordEEESt4pairIRKT_S8_ES8_S8_
FN:3300,3307,_ZSt6minmaxISt16reverse_iteratorIPN6optikg17FileProcessResultEEESt4pairIRKT_S8_ES8_S8_
FN:3300,3307,_ZSt6minmaxISt16reverse_iteratorIPN6optikg6EntityEEESt4pairIRKT_S8_ES8_S8_
FN:3300,3307,_ZSt6minmaxISt16reverse_iteratorIPN6optikg6TripleEEESt4pairIRKT_S8_ES8_S8_
FN:3300,3307,_ZSt6minmaxISt16reverse_iteratorIPN6optikg9GraphEdgeEEESt4pairIRKT_S8_ES8_S8_
FN:3300,3307,_ZSt6minmaxISt16reverse_iteratorIPN6optikg9GraphNodeEEESt4pairIRKT_S8_ES8_S8_
FN:4254,4267,_ZSt9transformISt23_Rb_tree_const_iteratorISt4pairIK7QStringN6optikg6TripleEEESt20back_insert_iteratorI5QListIS5_EEZNK8QMapDataISt3mapIS2_S5_St4lessIS2_ESaIS6_EEE6valuesEvEUlRKT_E_ET0_SJ_SJ_SN_T1_
FNDA:0,_ZSt6minmaxIPN6optikg16ExtractionRecordEESt4pairIRKT_S6_ES6_S6_
FNDA:0,_ZSt6minmaxIPN6optikg17FileProcessResultEESt4pairIRKT_S6_ES6_S6_
FNDA:0,_ZSt6minmaxIPN6optikg6EntityEESt4pairIRKT_S6_ES6_S6_
FNDA:0,_ZSt6minmaxIPN6optikg6TripleEESt4pairIRKT_S6_ES6_S6_
FNDA:0,_ZSt6minmaxIPN6optikg9GraphEdgeEESt4pairIRKT_S6_ES6_S6_
FNDA:0,_ZSt6minmaxIPN6optikg9GraphNodeEESt4pairIRKT_S6_ES6_S6_
FNDA:0,_ZSt6minmaxISt16reverse_iteratorIPN6optikg16ExtractionRecordEEESt4pairIRKT_S8_ES8_S8_
FNDA:0,_ZSt6minmaxISt16reverse_iteratorIPN6optikg17FileProcessResultEEESt4pairIRKT_S8_ES8_S8_
FNDA:0,_ZSt6minmaxISt16reverse_iteratorIPN6optikg6EntityEEESt4pairIRKT_S8_ES8_S8_
FNDA:0,_ZSt6minmaxISt16reverse_iteratorIPN6optikg6TripleEEESt4pairIRKT_S8_ES8_S8_
FNDA:0,_ZSt6minmaxISt16reverse_iteratorIPN6optikg9GraphEdgeEEESt4pairIRKT_S8_ES8_S8_
FNDA:0,_ZSt6minmaxISt16reverse_iteratorIPN6optikg9GraphNodeEEESt4pairIRKT_S8_ES8_S8_
FNDA:3,_ZSt9transformISt23_Rb_tree_const_iteratorISt4pairIK7QStringN6optikg6TripleEEESt20back_insert_iteratorI5QListIS5_EEZNK8QMapDataISt3mapIS2_S5_St4lessIS2_ESaIS6_EEE6valuesEvEUlRKT_E_ET0_SJ_SJ_SN_T1_
FNF:13
FNH:1
DA:3300,0
DA:3305,0
DA:3306,0
DA:4254,3
DA:4264,7
DA:4265,4
DA:4266,3
LF:7
LH:4
end_of_record
TN:
SF:/usr/include/c++/15/bits/stl_algobase.h
FN:1024,1024,_ZSt17__size_to_integerm
FN:1188,1194,_ZNSt7__equalILb0EE5equalIN5QListIxE14const_iteratorES4_EEbT_S5_T0_
FN:1234,1247,_ZSt12__equal_aux1IN5QListIxE14const_iteratorES2_EbT_S3_T0_
FN:1303,1311,_ZNSt8__lc_raiISt26random_access_iterator_tagS0_E10__newlast1IN5QListIxE14const_iteratorES5_EET_S6_S6_T0_S7_
FN:1315,1316,_ZNSt8__lc_raiISt26random_access_iterator_tagS0_E6__cnd2IN5QListIxE14const_iteratorEEEbT_S6_
FN:1322,1340,_ZSt30__lexicographical_compare_implIN5QListIxE14const_iteratorES2_N9__gnu_cxx5__ops15_Iter_less_iterEEbT_S6_T0_S7_T1_
FN:1348,1354,_ZNSt25__lexicographical_compareILb0EE4__lcIN5QListIxE14const_iteratorES4_EEbT_S5_T0_S6_
FN:1404,1427,_ZSt30__lexicographical_compare_aux1IN5QListIxE14const_iteratorES2_EbT_S3_T0_S4_
FN:1456,1463,_ZSt29__lexicographical_compare_auxIN5QListIxE14const_iteratorES2_EbT_S3_T0_S4_
FN:1587,1598,_ZSt5equalIN5QListIxE14const_iteratorES2_EbT_S3_T0_
FN:1640,1660,_ZSt8__equal4IN5QListIxE14const_iteratorES2_EbT_S3_T0_S4_
FN:1709,1721,_ZSt5equalIN5QListIxE14const_iteratorES2_EbT_S3_T0_S4_
FN:1774,1791,_ZSt23lexicographical_compareIN5QListIxE14const_iteratorES2_EbT_S3_T0_S4_
FN:234,242,_ZSt3minImERKT_S2_S2_
FN:258,266,_ZSt3maxIiERKT_S2_S2_
FN:258,266,_ZSt3maxImERKT_S2_S2_
FN:897,926,_ZSt9__fill_a1IP21TokenizerEncodeResultS0_EvT_S2_RKT0_
FN:897,926,_ZSt9__fill_a1IPiiEvT_S1_RKT0_
FNDA:0,_ZSt17__size_to_integerm
FNDA:0,_ZNSt7__equalILb0EE5equalIN5QListIxE14const_iteratorES4_EEbT_S5_T0_
FNDA:0,_ZSt12__equal_aux1IN5QListIxE14const_iteratorES2_EbT_S3_T0_
FNDA:0,_ZNSt8__lc_raiISt26random_access_iterator_tagS0_E10__newlast1IN5QListIxE14const_iteratorES5_EET_S6_S6_T0_S7_
FNDA:0,_ZNSt8__lc_raiISt26random_access_iterator_tagS0_E6__cnd2IN5QListIxE14const_iteratorEEEbT_S6_
FNDA:0,_ZSt30__lexicographical_compare_implIN5QListIxE14const_iteratorES2_N9__gnu_cxx5__ops15_Iter_less_iterEEbT_S6_T0_S7_T1_
FNDA:0,_ZNSt25__lexicographical_compareILb0EE4__lcIN5QListIxE14const_iteratorES4_EEbT_S5_T0_S6_
FNDA:0,_ZSt30__lexicographical_compare_aux1IN5QListIxE14const_iteratorES2_EbT_S3_T0_S4_
FNDA:0,_ZSt29__lexicographical_compare_auxIN5QListIxE14const_iteratorES2_EbT_S3_T0_S4_
FNDA:0,_ZSt5equalIN5QListIxE14const_iteratorES2_EbT_S3_T0_
FNDA:0,_ZSt8__equal4IN5QListIxE14const_iteratorES2_EbT_S3_T0_S4_
FNDA:0,_ZSt5equalIN5QListIxE14const_iteratorES2_EbT_S3_T0_S4_
FNDA:0,_ZSt23lexicographical_compareIN5QListIxE14const_iteratorES2_EbT_S3_T0_S4_
FNDA:479123,_ZSt3minImERKT_S2_S2_
FNDA:0,_ZSt3maxIiERKT_S2_S2_
FNDA:1071,_ZSt3maxImERKT_S2_S2_
FNDA:0,_ZSt9__fill_a1IP21TokenizerEncodeResultS0_EvT_S2_RKT0_
FNDA:0,_ZSt9__fill_a1IPiiEvT_S1_RKT0_
FNF:18
FNH:2
DA:234,479123
DA:239,479123
DA:240,0
DA:241,479123
DA:258,1071
DA:263,1071
DA:264,579
DA:265,492
DA:897,0
DA:906,0
DA:923,0
DA:924,0
DA:925,0
DA:926,0
DA:979,0
DA:1024,0
DA:1143,0
DA:1144,0
DA:1148,0
DA:1149,0
DA:1178,0
DA:1179,0
DA:1188,0
DA:1190,0
DA:1191,0
DA:1192,0
DA:1193,0
DA:1234,0
DA:1237,0
DA:1246,0
DA:1255,0
DA:1257,0
DA:1303,0
DA:1307,0
DA:1309,0
DA:1310,0
DA:1315,0
DA:1316,0
DA:1322,0
DA:1330,0
DA:1331,0
DA:1332,0
DA:1334,0
DA:1335,0
DA:1336,0
DA:1337,0
DA:1339,0
DA:1348,0
DA:1351,0
DA:1353,0
DA:1404,0
DA:1410,0
DA:1425,0
DA:1426,0
DA:1456,0
DA:1459,0
DA:1462,0
DA:1587,0
DA:1597,0
DA:1640,0
DA:1648,0
DA:1649,0
DA:1650,0
DA:1709,0
DA:1720,0
DA:1774,0
DA:1789,0
DA:1790,0
LF:68
LH:7
end_of_record
TN:
SF:/usr/include/c++/15/bits/stl_construct.h
FN:123,134,_ZSt10_ConstructI21TokenizerEncodeResultJEEvPT_DpOT0_
FN:123,134,_ZSt10_ConstructI5QListIN6optikg16ExtractionRecordEEJEEvPT_DpOT0_
FN:123,134,_ZSt10_ConstructIfJRKfEEvPT_DpOT0_
FN:123,134,_ZSt10_ConstructIiJEEvPT_DpOT0_
FN:123,134,_ZSt10_ConstructIiJRlEEvPT_DpOT0_
FN:123,134,_ZSt10_ConstructIlJRKlEEvPT_DpOT0_
FN:161,168,_ZSt8_DestroyI5QListI8QVariantEEvPT_
FN:161,168,_ZSt8_DestroyI5QListIN6optikg16ExtractionRecordEEEvPT_
FN:161,168,_ZSt8_DestroyI7QStringEvPT_
FN:161,168,_ZSt8_DestroyI8QVariantEvPT_
FN:161,168,_ZSt8_DestroyI9QFileInfoEvPT_
FN:161,168,_ZSt8_DestroyIN3Ort5ValueEEvPT_
FN:161,168,_ZSt8_DestroyIN6optikg16ExtractionRecordEEvPT_
FN:161,168,_ZSt8_DestroyIN6optikg17FileProcessResultEEvPT_
FN:161,168,_ZSt8_DestroyIN6optikg6EntityEEvPT_
FN:161,168,_ZSt8_DestroyIN6optikg6TripleEEvPT_
FN:161,168,_ZSt8_DestroyIN6optikg9GraphEdgeEEvPT_
FN:161,168,_ZSt8_DestroyIN6optikg9GraphNodeEEvPT_
FN:161,168,_ZSt8_DestroyISt4pairI7QString6QColorEEvPT_
FN:161,168,_ZSt8_DestroyISt4pairI7QStringS1_EEvPT_
FN:161,168,_ZSt8_DestroyISt4pairI7QStringiEEvPT_
FN:161,168,_ZSt8_DestroyISt6vectorIiSaIiEEEvPT_
FN:219,236,_ZSt8_DestroyIP21TokenizerEncodeResultEvT_S2_
FN:219,236,_ZSt8_DestroyIP26QTableWidgetSelectionRangeEvT_S2_
FN:219,236,_ZSt8_DestroyIP5QListI8QVariantEEvT_S4_
FN:219,236,_ZSt8_DestroyIP5QListIN6optikg16ExtractionRecordEEEvT_S5_
FN:219,236,_ZSt8_DestroyIP7QStringEvT_S2_
FN:219,236,_ZSt8_DestroyIP8QVariantEvT_S2_
FN:219,236,_ZSt8_DestroyIP9QFileInfoEvT_S2_
FN:219,236,_ZSt8_DestroyIPN3Ort5ValueEEvT_S3_
FN:219,236,_ZSt8_DestroyIPN6optikg10EntitySpanEEvT_S3_
FN:219,236,_ZSt8_DestroyIPN6optikg16ExtractionRecordEEvT_S3_
FN:219,236,_ZSt8_DestroyIPN6optikg17FileProcessResultEEvT_S3_
FN:219,236,_ZSt8_DestroyIPN6optikg6EntityEEvT_S3_
FN:219,236,_ZSt8_DestroyIPN6optikg6TripleEEvT_S3_
FN:219,236,_ZSt8_DestroyIPN6optikg9GraphEdgeEEvT_S3_
FN:219,236,_ZSt8_DestroyIPN6optikg9GraphNodeEEvT_S3_
FN:219,236,_ZSt8_DestroyIPPKcEvT_S3_
FN:219,236,_ZSt8_DestroyIPSt4pairI7QString6QColorEEvT_S5_
FN:219,236,_ZSt8_DestroyIPSt4pairI7QStringS1_EEvT_S4_
FN:219,236,_ZSt8_DestroyIPSt4pairI7QStringiEEvT_S4_
FN:219,236,_ZSt8_DestroyIPSt6vectorIiSaIiEEEvT_S4_
FN:219,236,_ZSt8_DestroyIPfEvT_S1_
FN:219,236,_ZSt8_DestroyIPiEvT_S1_
FN:219,236,_ZSt8_DestroyIPlEvT_S1_
FN:219,236,_ZSt8_DestroyIPmEvT_S1_
FN:271,274,_ZSt7destroyIP26QTableWidgetSelectionRangeEvT_S2_
FN:271,274,_ZSt7destroyIP5QListI8QVariantEEvT_S4_
FN:271,274,_ZSt7destroyIP5QListIN6optikg16ExtractionRecordEEEvT_S5_
FN:271,274,_ZSt7destroyIP7QStringEvT_S2_
FN:271,274,_ZSt7destroyIP8QVariantEvT_S2_
FN:271,274,_ZSt7destroyIP9QFileInfoEvT_S2_
FN:271,274,_ZSt7destroyIPN6optikg16ExtractionRecordEEvT_S3_
FN:271,274,_ZSt7destroyIPN6optikg17FileProcessResultEEvT_S3_
FN:271,274,_ZSt7destroyIPN6optikg6EntityEEvT_S3_
FN:271,274,_ZSt7destroyIPN6optikg6TripleEEvT_S3_
FN:271,274,_ZSt7destroyIPN6optikg9GraphEdgeEEvT_S3_
FN:271,274,_ZSt7destroyIPN6optikg9GraphNodeEEvT_S3_
FN:271,274,_ZSt7destroyIPSt4pairI7QString6QColorEEvT_S5_
FN:271,274,_ZSt7destroyIPSt4pairI7QStringS1_EEvT_S4_
FN:271,274,_ZSt7destroyIPSt4pairI7QStringiEEvT_S4_
FNDA:0,_ZSt10_ConstructI21TokenizerEncodeResultJEEvPT_DpOT0_
FNDA:0,_ZSt10_ConstructI5QListIN6optikg16ExtractionRecordEEJEEvPT_DpOT0_
FNDA:121344,_ZSt10_ConstructIfJRKfEEvPT_DpOT0_
FNDA:0,_ZSt10_ConstructIiJEEvPT_DpOT0_
FNDA:37275,_ZSt10_ConstructIiJRlEEvPT_DpOT0_
FNDA:2844,_ZSt10_ConstructIlJRKlEEvPT_DpOT0_
FNDA:0,_ZSt8_DestroyI5QListI8QVariantEEvPT_
FNDA:0,_ZSt8_DestroyI5QListIN6optikg16ExtractionRecordEEEvPT_
FNDA:1029,_ZSt8_DestroyI7QStringEvPT_
FNDA:78,_ZSt8_DestroyI8QVariantEvPT_
FNDA:0,_ZSt8_DestroyI9QFileInfoEvPT_
FNDA:1185,_ZSt8_DestroyIN3Ort5ValueEEvPT_
FNDA:494,_ZSt8_DestroyIN6optikg16ExtractionRecordEEvPT_
FNDA:40,_ZSt8_DestroyIN6optikg17FileProcessResultEEvPT_
FNDA:0,_ZSt8_DestroyIN6optikg6EntityEEvPT_
FNDA:15021,_ZSt8_DestroyIN6optikg6TripleEEvPT_
FNDA:205,_ZSt8_DestroyIN6optikg9GraphEdgeEEvPT_
FNDA:714,_ZSt8_DestroyIN6optikg9GraphNodeEEvPT_
FNDA:104,_ZSt8_DestroyISt4pairI7QString6QColorEEvPT_
FNDA:12,_ZSt8_DestroyISt4pairI7QStringS1_EEvPT_
FNDA:14,_ZSt8_DestroyISt4pairI7QStringiEEvPT_
FNDA:0,_ZSt8_DestroyISt6vectorIiSaIiEEEvPT_
FNDA:0,_ZSt8_DestroyIP21TokenizerEncodeResultEvT_S2_
FNDA:0,_ZSt8_DestroyIP26QTableWidgetSelectionRangeEvT_S2_
FNDA:0,_ZSt8_DestroyIP5QListI8QVariantEEvT_S4_
FNDA:0,_ZSt8_DestroyIP5QListIN6optikg16ExtractionRecordEEEvT_S5_
FNDA:219,_ZSt8_DestroyIP7QStringEvT_S2_
FNDA:34,_ZSt8_DestroyIP8QVariantEvT_S2_
FNDA:0,_ZSt8_DestroyIP9QFileInfoEvT_S2_
FNDA:474,_ZSt8_DestroyIPN3Ort5ValueEEvT_S3_
FNDA:474,_ZSt8_DestroyIPN6optikg10EntitySpanEEvT_S3_
FNDA:138,_ZSt8_DestroyIPN6optikg16ExtractionRecordEEvT_S3_
FNDA:34,_ZSt8_DestroyIPN6optikg17FileProcessResultEEvT_S3_
FNDA:0,_ZSt8_DestroyIPN6optikg6EntityEEvT_S3_
FNDA:513,_ZSt8_DestroyIPN6optikg6TripleEEvT_S3_
FNDA:15,_ZSt8_DestroyIPN6optikg9GraphEdgeEEvT_S3_
FNDA:70,_ZSt8_DestroyIPN6optikg9GraphNodeEEvT_S3_
FNDA:0,_ZSt8_DestroyIPPKcEvT_S3_
FNDA:26,_ZSt8_DestroyIPSt4pairI7QString6QColorEEvT_S5_
FNDA:2,_ZSt8_DestroyIPSt4pairI7QStringS1_EEvT_S4_
FNDA:2,_ZSt8_DestroyIPSt4pairI7QStringiEEvT_S4_
FNDA:0,_ZSt8_DestroyIPSt6vectorIiSaIiEEEvT_S4_
FNDA:237,_ZSt8_DestroyIPfEvT_S1_
FNDA:11543,_ZSt8_DestroyIPiEvT_S1_
FNDA:1185,_ZSt8_DestroyIPlEvT_S1_
FNDA:0,_ZSt8_DestroyIPmEvT_S1_
FNDA:0,_ZSt7destroyIP26QTableWidgetSelectionRangeEvT_S2_
FNDA:0,_ZSt7destroyIP5QListI8QVariantEEvT_S4_
FNDA:0,_ZSt7destroyIP5QListIN6optikg16ExtractionRecordEEEvT_S5_
FNDA:219,_ZSt7destroyIP7QStringEvT_S2_
FNDA:34,_ZSt7destroyIP8QVariantEvT_S2_
FNDA:0,_ZSt7destroyIP9QFileInfoEvT_S2_
FNDA:138,_ZSt7destroyIPN6optikg16ExtractionRecordEEvT_S3_
FNDA:34,_ZSt7destroyIPN6optikg17FileProcessResultEEvT_S3_
FNDA:0,_ZSt7destroyIPN6optikg6EntityEEvT_S3_
FNDA:513,_ZSt7destroyIPN6optikg6TripleEEvT_S3_
FNDA:15,_ZSt7destroyIPN6optikg9GraphEdgeEEvT_S3_
FNDA:70,_ZSt7destroyIPN6optikg9GraphNodeEEvT_S3_
FNDA:26,_ZSt7destroyIPSt4pairI7QString6QColorEEvT_S5_
FNDA:2,_ZSt7destroyIPSt4pairI7QStringS1_EEvT_S4_
FNDA:2,_ZSt7destroyIPSt4pairI7QStringiEEvT_S4_
FNF:61
FNH:39
DA:123,161463
DA:133,322926
DA:134,161463
DA:161,18896
DA:166,18896
DA:168,18896
DA:219,14966
DA:225,20423
DA:226,18896
DA:236,14966
DA:271,1053
DA:273,1053
DA:274,1053
LF:13
LH:13
end_of_record
TN:
SF:/usr/include/c++/15/bits/stl_function.h
FN:1175,1176,_ZNKSt10_Select1stISt4pairIK7QStringN6optikg12AppConstants14EntityTypeInfoEEEclERS6_
FN:1175,1176,_ZNKSt10_Select1stISt4pairIK7QStringN6optikg6TripleEEEclERS5_
FN:1175,1176,_ZNKSt10_Select1stISt4pairIKi7QStringEEclERS3_
FN:1179,1180,_ZNKSt10_Select1stISt4pairIK7QStringN6optikg12AppConstants14EntityTypeInfoEEEclERKS6_
FN:1179,1180,_ZNKSt10_Select1stISt4pairIK7QStringN6optikg6TripleEEEclERKS5_
FN:1179,1180,_ZNKSt10_Select1stISt4pairIKi7QStringEEclERKS3_
FN:1179,1180,_ZNKSt10_Select1stISt4pairIKiN12QtConcurrent19IntermediateResultsIN6optikg16ExtractionRecordEEEEEclERKS7_
FN:404,405,_ZNKSt4lessI7QStringEclERKS0_S3_
FN:404,405,_ZNKSt4lessIiEclERKiS2_
FN:448,455,_ZNKSt4lessIPK5QListIN6optikg16ExtractionRecordEEEclES5_S5_
FN:448,455,_ZNKSt4lessIPK7QStringEclES2_S2_
FN:448,455,_ZNKSt4lessIPK8QVariantEclES2_S2_
FN:448,455,_ZNKSt4lessIPKN6optikg16ExtractionRecordEEclES3_S3_
FN:448,455,_ZNKSt4lessIPKN6optikg17FileProcessResultEEclES3_S3_
FN:448,455,_ZNKSt4lessIPKN6optikg6EntityEEclES3_S3_
FN:448,455,_ZNKSt4lessIPKN6optikg6TripleEEclES3_S3_
FN:448,455,_ZNKSt4lessIPKN6optikg9GraphEdgeEEclES3_S3_
FN:448,455,_ZNKSt4lessIPKN6optikg9GraphNodeEEclES3_S3_
FN:448,455,_ZNKSt4lessIPKPN6optikg9GraphEdgeEEclES4_S4_
FN:448,455,_ZNKSt4lessIPKSt4pairI7QString6QColorEEclES5_S5_
FN:448,455,_ZNKSt4lessIPKiEclES1_S1_
FN:448,455,_ZNKSt4lessIPKxEclES1_S1_
FN:596,597,_ZNKSt4lessIvEclIK5QListIN6optikg16ExtractionRecordEES6_EEbPT_PT0_
FN:596,597,_ZNKSt4lessIvEclIK7QStringS3_EEbPT_PT0_
FN:596,597,_ZNKSt4lessIvEclIK8QVariantS3_EEbPT_PT0_
FN:596,597,_ZNKSt4lessIvEclIKN6optikg16ExtractionRecordES4_EEbPT_PT0_
FN:596,597,_ZNKSt4lessIvEclIKN6optikg17FileProcessResultES4_EEbPT_PT0_
FN:596,597,_ZNKSt4lessIvEclIKN6optikg6EntityES4_EEbPT_PT0_
FN:596,597,_ZNKSt4lessIvEclIKN6optikg6TripleES4_EEbPT_PT0_
FN:596,597,_ZNKSt4lessIvEclIKN6optikg9GraphEdgeES4_EEbPT_PT0_
FN:596,597,_ZNKSt4lessIvEclIKN6optikg9GraphNodeES4_EEbPT_PT0_
FN:596,597,_ZNKSt4lessIvEclIKPN6optikg9GraphEdgeES5_EEbPT_PT0_
FN:596,597,_ZNKSt4lessIvEclIKSt4pairI7QString6QColorES6_EEbPT_PT0_
FN:596,597,_ZNKSt4lessIvEclIKiS2_EEbPT_PT0_
FN:596,597,_ZNKSt4lessIvEclIKxS2_EEbPT_PT0_
FNDA:0,_ZNKSt10_Select1stISt4pairIK7QStringN6optikg12AppConstants14EntityTypeInfoEEEclERS6_
FNDA:0,_ZNKSt10_Select1stISt4pairIK7QStringN6optikg6TripleEEEclERS5_
FNDA:385,_ZNKSt10_Select1stISt4pairIKi7QStringEEclERS3_
FNDA:0,_ZNKSt10_Select1stISt4pairIK7QStringN6optikg12AppConstants14EntityTypeInfoEEEclERKS6_
FNDA:19,_ZNKSt10_Select1stISt4pairIK7QStringN6optikg6TripleEEEclERKS5_
FNDA:17833,_ZNKSt10_Select1stISt4pairIKi7QStringEEclERKS3_
FNDA:0,_ZNKSt10_Select1stISt4pairIKiN12QtConcurrent19IntermediateResultsIN6optikg16ExtractionRecordEEEEEclERKS7_
FNDA:14,_ZNKSt4lessI7QStringEclERKS0_S3_
FNDA:17833,_ZNKSt4lessIiEclERKiS2_
FNDA:0,_ZNKSt4lessIPK5QListIN6optikg16ExtractionRecordEEEclES5_S5_
FNDA:0,_ZNKSt4lessIPK7QStringEclES2_S2_
FNDA:0,_ZNKSt4lessIPK8QVariantEclES2_S2_
FNDA:0,_ZNKSt4lessIPKN6optikg16ExtractionRecordEEclES3_S3_
FNDA:0,_ZNKSt4lessIPKN6optikg17FileProcessResultEEclES3_S3_
FNDA:0,_ZNKSt4lessIPKN6optikg6EntityEEclES3_S3_
FNDA:27,_ZNKSt4lessIPKN6optikg6TripleEEclES3_S3_
FNDA:0,_ZNKSt4lessIPKN6optikg9GraphEdgeEEclES3_S3_
FNDA:0,_ZNKSt4lessIPKN6optikg9GraphNodeEEclES3_S3_
FNDA:0,_ZNKSt4lessIPKPN6optikg9GraphEdgeEEclES4_S4_
FNDA:0,_ZNKSt4lessIPKSt4pairI7QString6QColorEEclES5_S5_
FNDA:0,_ZNKSt4lessIPKiEclES1_S1_
FNDA:0,_ZNKSt4lessIPKxEclES1_S1_
FNDA:0,_ZNKSt4lessIvEclIK5QListIN6optikg16ExtractionRecordEES6_EEbPT_PT0_
FNDA:0,_ZNKSt4lessIvEclIK7QStringS3_EEbPT_PT0_
FNDA:0,_ZNKSt4lessIvEclIK8QVariantS3_EEbPT_PT0_
FNDA:0,_ZNKSt4lessIvEclIKN6optikg16ExtractionRecordES4_EEbPT_PT0_
FNDA:0,_ZNKSt4lessIvEclIKN6optikg17FileProcessResultES4_EEbPT_PT0_
FNDA:0,_ZNKSt4lessIvEclIKN6optikg6EntityES4_EEbPT_PT0_
FNDA:27,_ZNKSt4lessIvEclIKN6optikg6TripleES4_EEbPT_PT0_
FNDA:0,_ZNKSt4lessIvEclIKN6optikg9GraphEdgeES4_EEbPT_PT0_
FNDA:0,_ZNKSt4lessIvEclIKN6optikg9GraphNodeES4_EEbPT_PT0_
FNDA:0,_ZNKSt4lessIvEclIKPN6optikg9GraphEdgeES5_EEbPT_PT0_
FNDA:0,_ZNKSt4lessIvEclIKSt4pairI7QString6QColorES6_EEbPT_PT0_
FNDA:0,_ZNKSt4lessIvEclIKiS2_EEbPT_PT0_
FNDA:0,_ZNKSt4lessIvEclIKxS2_EEbPT_PT0_
FNF:35
FNH:7
DA:404,17847
DA:405,17847
DA:448,27
DA:451,27
DA:452,0
DA:454,27
DA:596,27
DA:597,27
DA:1175,385
DA:1176,385
DA:1179,17852
DA:1180,17852
LF:12
LH:11
end_of_record
TN:
SF:/usr/include/c++/15/bits/stl_iterator.h
FN:181,184,_ZNSt16reverse_iteratorIPN6optikg16ExtractionRecordEEC2Ev
FN:181,184,_ZNSt16reverse_iteratorIPN6optikg17FileProcessResultEEC2Ev
FN:181,184,_ZNSt16reverse_iteratorIPN6optikg6EntityEEC2Ev
FN:181,184,_ZNSt16reverse_iteratorIPN6optikg6TripleEEC2Ev
FN:181,184,_ZNSt16reverse_iteratorIPN6optikg9GraphEdgeEEC2Ev
FN:181,184,_ZNSt16reverse_iteratorIPN6optikg9GraphNodeEEC2Ev
FN:190,193,_ZNSt16reverse_iteratorIPN6optikg16ExtractionRecordEEC2ES2_
FN:190,193,_ZNSt16reverse_iteratorIPN6optikg17FileProcessResultEEC2ES2_
FN:190,193,_ZNSt16reverse_iteratorIPN6optikg6EntityEEC2ES2_
FN:190,193,_ZNSt16reverse_iteratorIPN6optikg6TripleEEC2ES2_
FN:190,193,_ZNSt16reverse_iteratorIPN6optikg9GraphEdgeEEC2ES2_
FN:190,193,_ZNSt16reverse_iteratorIPN6optikg9GraphNodeEEC2ES2_
FN:199,202,_ZNSt16reverse_iteratorIPN6optikg16ExtractionRecordEEC2ERKS3_
FN:199,202,_ZNSt16reverse_iteratorIPN6optikg17FileProcessResultEEC2ERKS3_
FN:199,202,_ZNSt16reverse_iteratorIPN6optikg6EntityEEC2ERKS3_
FN:199,202,_ZNSt16reverse_iteratorIPN6optikg6TripleEEC2ERKS3_
FN:199,202,_ZNSt16reverse_iteratorIPN6optikg9GraphEdgeEEC2ERKS3_
FN:199,202,_ZNSt16reverse_iteratorIPN6optikg9GraphNodeEEC2ERKS3_
FN:243,245,_ZNKSt16reverse_iteratorIPN6optikg16ExtractionRecordEE4baseEv
FN:243,245,_ZNKSt16reverse_iteratorIPN6optikg17FileProcessResultEE4baseEv
FN:243,245,_ZNKSt16reverse_iteratorIPN6optikg6EntityEE4baseEv
FN:243,245,_ZNKSt16reverse_iteratorIPN6optikg6TripleEE4baseEv
FN:243,245,_ZNKSt16reverse_iteratorIPN6optikg9GraphEdgeEE4baseEv
FN:243,245,_ZNKSt16reverse_iteratorIPN6optikg9GraphNodeEE4baseEv
FN:259,263,_ZNKSt16reverse_iteratorIPN6optikg16ExtractionRecordEEdeEv
FN:259,263,_ZNKSt16reverse_iteratorIPN6optikg17FileProcessResultEEdeEv
FN:259,263,_ZNKSt16reverse_iteratorIPN6optikg6EntityEEdeEv
FN:259,263,_ZNKSt16reverse_iteratorIPN6optikg6TripleEEdeEv
FN:259,263,_ZNKSt16reverse_iteratorIPN6optikg9GraphEdgeEEdeEv
FN:259,263,_ZNKSt16reverse_iteratorIPN6optikg9GraphNodeEEdeEv
FN:272,283,_ZNKSt16reverse_iteratorIPN6optikg16ExtractionRecordEEptEv
FN:272,283,_ZNKSt16reverse_iteratorIPN6optikg17FileProcessResultEEptEv
FN:272,283,_ZNKSt16reverse_iteratorIPN6optikg6EntityEEptEv
FN:272,283,_ZNKSt16reverse_iteratorIPN6optikg6TripleEEptEv
FN:272,283,_ZNKSt16reverse_iteratorIPN6optikg9GraphEdgeEEptEv
FN:272,283,_ZNKSt16reverse_iteratorIPN6optikg9GraphNodeEEptEv
FN:291,295,_ZNSt16reverse_iteratorIPN6optikg16ExtractionRecordEEppEv
FN:291,295,_ZNSt16reverse_iteratorIPN6optikg17FileProcessResultEEppEv
FN:291,295,_ZNSt16reverse_iteratorIPN6optikg6EntityEEppEv
FN:291,295,_ZNSt16reverse_iteratorIPN6optikg6TripleEEppEv
FN:291,295,_ZNSt16reverse_iteratorIPN6optikg9GraphEdgeEEppEv
FN:291,295,_ZNSt16reverse_iteratorIPN6optikg9GraphNodeEEppEv
FN:316,320,_ZNSt16reverse_iteratorIPN6optikg16ExtractionRecordEEmmEv
FN:316,320,_ZNSt16reverse_iteratorIPN6optikg17FileProcessResultEEmmEv
FN:316,320,_ZNSt16reverse_iteratorIPN6optikg6EntityEEmmEv
FN:316,320,_ZNSt16reverse_iteratorIPN6optikg6TripleEEmmEv
FN:316,320,_ZNSt16reverse_iteratorIPN6optikg9GraphEdgeEEmmEv
FN:316,320,_ZNSt16reverse_iteratorIPN6optikg9GraphNodeEEmmEv
FN:342,343,_ZNKSt16reverse_iteratorIPN6optikg16ExtractionRecordEEplEl
FN:342,343,_ZNKSt16reverse_iteratorIPN6optikg17FileProcessResultEEplEl
FN:342,343,_ZNKSt16reverse_iteratorIPN6optikg6EntityEEplEl
FN:342,343,_ZNKSt16reverse_iteratorIPN6optikg6TripleEEplEl
FN:342,343,_ZNKSt16reverse_iteratorIPN6optikg9GraphEdgeEEplEl
FN:342,343,_ZNKSt16reverse_iteratorIPN6optikg9GraphNodeEEplEl
FN:352,356,_ZNSt16reverse_iteratorIPN6optikg16ExtractionRecordEEpLEl
FN:352,356,_ZNSt16reverse_iteratorIPN6optikg17FileProcessResultEEpLEl
FN:352,356,_ZNSt16reverse_iteratorIPN6optikg6EntityEEpLEl
FN:352,356,_ZNSt16reverse_iteratorIPN6optikg6TripleEEpLEl
FN:352,356,_ZNSt16reverse_iteratorIPN6optikg9GraphEdgeEEpLEl
FN:352,356,_ZNSt16reverse_iteratorIPN6optikg9GraphNodeEEpLEl
FN:420,421,_ZNSt16reverse_iteratorIPN6optikg16ExtractionRecordEE13_S_to_pointerIS1_EEPT_S6_
FN:420,421,_ZNSt16reverse_iteratorIPN6optikg17FileProcessResultEE13_S_to_pointerIS1_EEPT_S6_
FN:420,421,_ZNSt16reverse_iteratorIPN6optikg6EntityEE13_S_to_pointerIS1_EEPT_S6_
FN:420,421,_ZNSt16reverse_iteratorIPN6optikg6TripleEE13_S_to_pointerIS1_EEPT_S6_
FN:420,421,_ZNSt16reverse_iteratorIPN6optikg9GraphEdgeEE13_S_to_pointerIS1_EEPT_S6_
FN:420,421,_ZNSt16reverse_iteratorIPN6optikg9GraphNodeEE13_S_to_pointerIS1_EEPT_S6_
FN:443,445,_ZSteqIPN6optikg16ExtractionRecordEEbRKSt16reverse_iteratorIT_ES7_
FN:443,445,_ZSteqIPN6optikg17FileProcessResultEEbRKSt16reverse_iteratorIT_ES7_
FN:443,445,_ZSteqIPN6optikg6EntityEEbRKSt16reverse_iteratorIT_ES7_
FN:443,445,_ZSteqIPN6optikg6TripleEEbRKSt16reverse_iteratorIT_ES7_
FN:443,445,_ZSteqIPN6optikg9GraphEdgeEEbRKSt16reverse_iteratorIT_ES7_
FN:443,445,_ZSteqIPN6optikg9GraphNodeEEbRKSt16reverse_iteratorIT_ES7_
FN:450,452,_ZStltIPN6optikg16ExtractionRecordEEbRKSt16reverse_iteratorIT_ES7_
FN:450,452,_ZStltIPN6optikg17FileProcessResultEEbRKSt16reverse_iteratorIT_ES7_
FN:450,452,_ZStltIPN6optikg6EntityEEbRKSt16reverse_iteratorIT_ES7_
FN:450,452,_ZStltIPN6optikg6TripleEEbRKSt16reverse_iteratorIT_ES7_
FN:450,452,_ZStltIPN6optikg9GraphEdgeEEbRKSt16reverse_iteratorIT_ES7_
FN:450,452,_ZStltIPN6optikg9GraphNodeEEbRKSt16reverse_iteratorIT_ES7_
FN:457,459,_ZStneIPN6optikg16ExtractionRecordEEbRKSt16reverse_iteratorIT_ES7_
FN:457,459,_ZStneIPN6optikg17FileProcessResultEEbRKSt16reverse_iteratorIT_ES7_
FN:457,459,_ZStneIPN6optikg6EntityEEbRKSt16reverse_iteratorIT_ES7_
FN:457,459,_ZStneIPN6optikg6TripleEEbRKSt16reverse_iteratorIT_ES7_
FN:457,459,_ZStneIPN6optikg9GraphEdgeEEbRKSt16reverse_iteratorIT_ES7_
FN:457,459,_ZStneIPN6optikg9GraphNodeEEbRKSt16reverse_iteratorIT_ES7_
FN:647,648,_ZSt21make_reverse_iteratorIPN6optikg16ExtractionRecordEESt16reverse_iteratorIT_ES4_
FN:647,648,_ZSt21make_reverse_iteratorIPN6optikg17FileProcessResultEESt16reverse_iteratorIT_ES4_
FN:647,648,_ZSt21make_reverse_iteratorIPN6optikg6EntityEESt16reverse_iteratorIT_ES4_
FN:647,648,_ZSt21make_reverse_iteratorIPN6optikg6TripleEESt16reverse_iteratorIT_ES4_
FN:647,648,_ZSt21make_reverse_iteratorIPN6optikg9GraphEdgeEESt16reverse_iteratorIT_ES4_
FN:647,648,_ZSt21make_reverse_iteratorIPN6optikg9GraphNodeEESt16reverse_iteratorIT_ES4_
FN:692,693,_ZNSt20back_insert_iteratorI5QListIN6optikg6TripleEEEC2ERS3_
FN:724,728,_ZNSt20back_insert_iteratorI5QListIN6optikg6TripleEEEaSEOS2_
FN:734,735,_ZNSt20back_insert_iteratorI5QListIN6optikg6TripleEEEdeEv
FN:740,741,_ZNSt20back_insert_iteratorI5QListIN6optikg6TripleEEEppEv
FN:764,765,_ZSt13back_inserterI5QListIN6optikg6TripleEEESt20back_insert_iteratorIT_ERS5_
FNDA:0,_ZNSt16reverse_iteratorIPN6optikg16ExtractionRecordEEC2Ev
FNDA:0,_ZNSt16reverse_iteratorIPN6optikg17FileProcessResultEEC2Ev
FNDA:0,_ZNSt16reverse_iteratorIPN6optikg6EntityEEC2Ev
FNDA:0,_ZNSt16reverse_iteratorIPN6optikg6TripleEEC2Ev
FNDA:0,_ZNSt16reverse_iteratorIPN6optikg9GraphEdgeEEC2Ev
FNDA:0,_ZNSt16reverse_iteratorIPN6optikg9GraphNodeEEC2Ev
FNDA:0,_ZNSt16reverse_iteratorIPN6optikg16ExtractionRecordEEC2ES2_
FNDA:0,_ZNSt16reverse_iteratorIPN6optikg17FileProcessResultEEC2ES2_
FNDA:0,_ZNSt16reverse_iteratorIPN6optikg6EntityEEC2ES2_
FNDA:0,_ZNSt16reverse_iteratorIPN6optikg6TripleEEC2ES2_
FNDA:0,_ZNSt16reverse_iteratorIPN6optikg9GraphEdgeEEC2ES2_
FNDA:0,_ZNSt16reverse_iteratorIPN6optikg9GraphNodeEEC2ES2_
FNDA:0,_ZNSt16reverse_iteratorIPN6optikg16ExtractionRecordEEC2ERKS3_
FNDA:0,_ZNSt16reverse_iteratorIPN6optikg17FileProcessResultEEC2ERKS3_
FNDA:0,_ZNSt16reverse_iteratorIPN6optikg6EntityEEC2ERKS3_
FNDA:0,_ZNSt16reverse_iteratorIPN6optikg6TripleEEC2ERKS3_
FNDA:0,_ZNSt16reverse_iteratorIPN6optikg9GraphEdgeEEC2ERKS3_
FNDA:0,_ZNSt16reverse_iteratorIPN6optikg9GraphNodeEEC2ERKS3_
FNDA:0,_ZNKSt16reverse_iteratorIPN6optikg16ExtractionRecordEE4baseEv
FNDA:0,_ZNKSt16reverse_iteratorIPN6optikg17FileProcessResultEE4baseEv
FNDA:0,_ZNKSt16reverse_iteratorIPN6optikg6EntityEE4baseEv
FNDA:0,_ZNKSt16reverse_iteratorIPN6optikg6TripleEE4baseEv
FNDA:0,_ZNKSt16reverse_iteratorIPN6optikg9GraphEdgeEE4baseEv
FNDA:0,_ZNKSt16reverse_iteratorIPN6optikg9GraphNodeEE4baseEv
FNDA:0,_ZNKSt16reverse_iteratorIPN6optikg16ExtractionRecordEEdeEv
FNDA:0,_ZNKSt16reverse_iteratorIPN6optikg17FileProcessResultEEdeEv
FNDA:0,_ZNKSt16reverse_iteratorIPN6optikg6EntityEEdeEv
FNDA:0,_ZNKSt16reverse_iteratorIPN6optikg6TripleEEdeEv
FNDA:0,_ZNKSt16reverse_iteratorIPN6optikg9GraphEdgeEEdeEv
FNDA:0,_ZNKSt16reverse_iteratorIPN6optikg9GraphNodeEEdeEv
FNDA:0,_ZNKSt16reverse_iteratorIPN6optikg16ExtractionRecordEEptEv
FNDA:0,_ZNKSt16reverse_iteratorIPN6optikg17FileProcessResultEEptEv
FNDA:0,_ZNKSt16reverse_iteratorIPN6optikg6EntityEEptEv
FNDA:0,_ZNKSt16reverse_iteratorIPN6optikg6TripleEEptEv
FNDA:0,_ZNKSt16reverse_iteratorIPN6optikg9GraphEdgeEEptEv
FNDA:0,_ZNKSt16reverse_iteratorIPN6optikg9GraphNodeEEptEv
FNDA:0,_ZNSt16reverse_iteratorIPN6optikg16ExtractionRecordEEppEv
FNDA:0,_ZNSt16reverse_iteratorIPN6optikg17FileProcessResultEEppEv
FNDA:0,_ZNSt16reverse_iteratorIPN6optikg6EntityEEppEv
FNDA:0,_ZNSt16reverse_iteratorIPN6optikg6TripleEEppEv
FNDA:0,_ZNSt16reverse_iteratorIPN6optikg9GraphEdgeEEppEv
FNDA:0,_ZNSt16reverse_iteratorIPN6optikg9GraphNodeEEppEv
FNDA:0,_ZNSt16reverse_iteratorIPN6optikg16ExtractionRecordEEmmEv
FNDA:0,_ZNSt16reverse_iteratorIPN6optikg17FileProcessResultEEmmEv
FNDA:0,_ZNSt16reverse_iteratorIPN6optikg6EntityEEmmEv
FNDA:0,_ZNSt16reverse_iteratorIPN6optikg6TripleEEmmEv
FNDA:0,_ZNSt16reverse_iteratorIPN6optikg9GraphEdgeEEmmEv
FNDA:0,_ZNSt16reverse_iteratorIPN6optikg9GraphNodeEEmmEv
FNDA:0,_ZNKSt16reverse_iteratorIPN6optikg16ExtractionRecordEEplEl
FNDA:0,_ZNKSt16reverse_iteratorIPN6optikg17FileProcessResultEEplEl
FNDA:0,_ZNKSt16reverse_iteratorIPN6optikg6EntityEEplEl
FNDA:0,_ZNKSt16reverse_iteratorIPN6optikg6TripleEEplEl
FNDA:0,_ZNKSt16reverse_iteratorIPN6optikg9GraphEdgeEEplEl
FNDA:0,_ZNKSt16reverse_iteratorIPN6optikg9GraphNodeEEplEl
FNDA:0,_ZNSt16reverse_iteratorIPN6optikg16ExtractionRecordEEpLEl
FNDA:0,_ZNSt16reverse_iteratorIPN6optikg17FileProcessResultEEpLEl
FNDA:0,_ZNSt16reverse_iteratorIPN6optikg6EntityEEpLEl
FNDA:0,_ZNSt16reverse_iteratorIPN6optikg6TripleEEpLEl
FNDA:0,_ZNSt16reverse_iteratorIPN6optikg9GraphEdgeEEpLEl
FNDA:0,_ZNSt16reverse_iteratorIPN6optikg9GraphNodeEEpLEl
FNDA:0,_ZNSt16reverse_iteratorIPN6optikg16ExtractionRecordEE13_S_to_pointerIS1_EEPT_S6_
FNDA:0,_ZNSt16reverse_iteratorIPN6optikg17FileProcessResultEE13_S_to_pointerIS1_EEPT_S6_
FNDA:0,_ZNSt16reverse_iteratorIPN6optikg6EntityEE13_S_to_pointerIS1_EEPT_S6_
FNDA:0,_ZNSt16reverse_iteratorIPN6optikg6TripleEE13_S_to_pointerIS1_EEPT_S6_
FNDA:0,_ZNSt16reverse_iteratorIPN6optikg9GraphEdgeEE13_S_to_pointerIS1_EEPT_S6_
FNDA:0,_ZNSt16reverse_iteratorIPN6optikg9GraphNodeEE13_S_to_pointerIS1_EEPT_S6_
FNDA:0,_ZSteqIPN6optikg16ExtractionRecordEEbRKSt16reverse_iteratorIT_ES7_
FNDA:0,_ZSteqIPN6optikg17FileProcessResultEEbRKSt16reverse_iteratorIT_ES7_
FNDA:0,_ZSteqIPN6optikg6EntityEEbRKSt16reverse_iteratorIT_ES7_
FNDA:0,_ZSteqIPN6optikg6TripleEEbRKSt16reverse_iteratorIT_ES7_
FNDA:0,_ZSteqIPN6optikg9GraphEdgeEEbRKSt16reverse_iteratorIT_ES7_
FNDA:0,_ZSteqIPN6optikg9GraphNodeEEbRKSt16reverse_iteratorIT_ES7_
FNDA:0,_ZStltIPN6optikg16ExtractionRecordEEbRKSt16reverse_iteratorIT_ES7_
FNDA:0,_ZStltIPN6optikg17FileProcessResultEEbRKSt16reverse_iteratorIT_ES7_
FNDA:0,_ZStltIPN6optikg6EntityEEbRKSt16reverse_iteratorIT_ES7_
FNDA:0,_ZStltIPN6optikg6TripleEEbRKSt16reverse_iteratorIT_ES7_
FNDA:0,_ZStltIPN6optikg9GraphEdgeEEbRKSt16reverse_iteratorIT_ES7_
FNDA:0,_ZStltIPN6optikg9GraphNodeEEbRKSt16reverse_iteratorIT_ES7_
FNDA:0,_ZStneIPN6optikg16ExtractionRecordEEbRKSt16reverse_iteratorIT_ES7_
FNDA:0,_ZStneIPN6optikg17FileProcessResultEEbRKSt16reverse_iteratorIT_ES7_
FNDA:0,_ZStneIPN6optikg6EntityEEbRKSt16reverse_iteratorIT_ES7_
FNDA:0,_ZStneIPN6optikg6TripleEEbRKSt16reverse_iteratorIT_ES7_
FNDA:0,_ZStneIPN6optikg9GraphEdgeEEbRKSt16reverse_iteratorIT_ES7_
FNDA:0,_ZStneIPN6optikg9GraphNodeEEbRKSt16reverse_iteratorIT_ES7_
FNDA:0,_ZSt21make_reverse_iteratorIPN6optikg16ExtractionRecordEESt16reverse_iteratorIT_ES4_
FNDA:0,_ZSt21make_reverse_iteratorIPN6optikg17FileProcessResultEESt16reverse_iteratorIT_ES4_
FNDA:0,_ZSt21make_reverse_iteratorIPN6optikg6EntityEESt16reverse_iteratorIT_ES4_
FNDA:0,_ZSt21make_reverse_iteratorIPN6optikg6TripleEESt16reverse_iteratorIT_ES4_
FNDA:0,_ZSt21make_reverse_iteratorIPN6optikg9GraphEdgeEESt16reverse_iteratorIT_ES4_
FNDA:0,_ZSt21make_reverse_iteratorIPN6optikg9GraphNodeEESt16reverse_iteratorIT_ES4_
FNDA:3,_ZNSt20back_insert_iteratorI5QListIN6optikg6TripleEEEC2ERS3_
FNDA:4,_ZNSt20back_insert_iteratorI5QListIN6optikg6TripleEEEaSEOS2_
FNDA:4,_ZNSt20back_insert_iteratorI5QListIN6optikg6TripleEEEdeEv
FNDA:4,_ZNSt20back_insert_iteratorI5QListIN6optikg6TripleEEEppEv
FNDA:3,_ZSt13back_inserterI5QListIN6optikg6TripleEEESt20back_insert_iteratorIT_ERS5_
FNF:95
FNH:5
DA:181,0
DA:183,0
DA:184,0
DA:190,0
DA:192,0
DA:193,0
DA:199,0
DA:201,0
DA:202,0
DA:243,0
DA:245,0
DA:259,0
DA:261,0
DA:262,0
DA:272,0
DA:280,0
DA:281,0
DA:282,0
DA:291,0
DA:293,0
DA:294,0
DA:316,0
DA:318,0
DA:319,0
DA:342,0
DA:343,0
DA:352,0
DA:354,0
DA:355,0
DA:420,0
DA:421,0
DA:443,0
DA:445,0
DA:450,0
DA:452,0
DA:457,0
DA:459,0
DA:647,0
DA:648,0
DA:692,3
DA:693,3
DA:724,4
DA:726,8
DA:727,4
DA:734,4
DA:735,4
DA:740,4
DA:741,4
DA:764,3
DA:765,3
DA:1058,562114
DA:1059,404387
DA:1090,220175
DA:1103,96354
DA:1104,96354
DA:1148,22604
DA:1160,123821
DA:1166,247939
DA:1231,247642
DA:1247,223490
DA:1340,24746
DA:3011,17654
LF:62
LH:23
end_of_record
TN:
SF:/usr/include/c++/15/bits/stl_iterator_base_funcs.h
FN:170,182,_ZSt9__advanceIN4QMapIiN12QtConcurrent19IntermediateResultsIN6optikg16ExtractionRecordEEEE14const_iteratorExEvRT_T0_St26bidirectional_iterator_tag
FN:186,198,_ZSt9__advanceIN5QListI7QStringE14const_iteratorExEvRT_T0_St26random_access_iterator_tag
FN:186,198,_ZSt9__advanceIN5QListIxE14const_iteratorExEvRT_T0_St26random_access_iterator_tag
FN:186,198,_ZSt9__advanceIN5QListIxE8iteratorExEvRT_T0_St26random_access_iterator_tag
FN:186,198,_ZSt9__advanceIPKclEvRT_T0_St26random_access_iterator_tag
FN:186,198,_ZSt9__advanceIPN6optikg16ExtractionRecordElEvRT_T0_St26random_access_iterator_tag
FN:186,198,_ZSt9__advanceIPN6optikg17FileProcessResultElEvRT_T0_St26random_access_iterator_tag
FN:186,198,_ZSt9__advanceIPN6optikg6EntityElEvRT_T0_St26random_access_iterator_tag
FN:186,198,_ZSt9__advanceIPN6optikg6TripleElEvRT_T0_St26random_access_iterator_tag
FN:186,198,_ZSt9__advanceIPN6optikg9GraphEdgeElEvRT_T0_St26random_access_iterator_tag
FN:186,198,_ZSt9__advanceIPN6optikg9GraphNodeElEvRT_T0_St26random_access_iterator_tag
FN:186,198,_ZSt9__advanceISt16reverse_iteratorIPN6optikg16ExtractionRecordEElEvRT_T0_St26random_access_iterator_tag
FN:186,198,_ZSt9__advanceISt16reverse_iteratorIPN6optikg17FileProcessResultEElEvRT_T0_St26random_access_iterator_tag
FN:186,198,_ZSt9__advanceISt16reverse_iteratorIPN6optikg6EntityEElEvRT_T0_St26random_access_iterator_tag
FN:186,198,_ZSt9__advanceISt16reverse_iteratorIPN6optikg6TripleEElEvRT_T0_St26random_access_iterator_tag
FN:186,198,_ZSt9__advanceISt16reverse_iteratorIPN6optikg9GraphEdgeEElEvRT_T0_St26random_access_iterator_tag
FN:186,198,_ZSt9__advanceISt16reverse_iteratorIPN6optikg9GraphNodeEElEvRT_T0_St26random_access_iterator_tag
FN:83,96,_ZSt10__distanceIN5QHashI7QStringPN6optikg9GraphNodeEE12key_iteratorEENSt15iterator_traitsIT_E15difference_typeES8_S8_St18input_iterator_tag
FNDA:0,_ZSt9__advanceIN4QMapIiN12QtConcurrent19IntermediateResultsIN6optikg16ExtractionRecordEEEE14const_iteratorExEvRT_T0_St26bidirectional_iterator_tag
FNDA:0,_ZSt9__advanceIN5QListI7QStringE14const_iteratorExEvRT_T0_St26random_access_iterator_tag
FNDA:0,_ZSt9__advanceIN5QListIxE14const_iteratorExEvRT_T0_St26random_access_iterator_tag
FNDA:0,_ZSt9__advanceIN5QListIxE8iteratorExEvRT_T0_St26random_access_iterator_tag
FNDA:0,_ZSt9__advanceIPKclEvRT_T0_St26random_access_iterator_tag
FNDA:0,_ZSt9__advanceIPN6optikg16ExtractionRecordElEvRT_T0_St26random_access_iterator_tag
FNDA:0,_ZSt9__advanceIPN6optikg17FileProcessResultElEvRT_T0_St26random_access_iterator_tag
FNDA:0,_ZSt9__advanceIPN6optikg6EntityElEvRT_T0_St26random_access_iterator_tag
FNDA:0,_ZSt9__advanceIPN6optikg6TripleElEvRT_T0_St26random_access_iterator_tag
FNDA:0,_ZSt9__advanceIPN6optikg9GraphEdgeElEvRT_T0_St26random_access_iterator_tag
FNDA:0,_ZSt9__advanceIPN6optikg9GraphNodeElEvRT_T0_St26random_access_iterator_tag
FNDA:0,_ZSt9__advanceISt16reverse_iteratorIPN6optikg16ExtractionRecordEElEvRT_T0_St26random_access_iterator_tag
FNDA:0,_ZSt9__advanceISt16reverse_iteratorIPN6optikg17FileProcessResultEElEvRT_T0_St26random_access_iterator_tag
FNDA:0,_ZSt9__advanceISt16reverse_iteratorIPN6optikg6EntityEElEvRT_T0_St26random_access_iterator_tag
FNDA:0,_ZSt9__advanceISt16reverse_iteratorIPN6optikg6TripleEElEvRT_T0_St26random_access_iterator_tag
FNDA:0,_ZSt9__advanceISt16reverse_iteratorIPN6optikg9GraphEdgeEElEvRT_T0_St26random_access_iterator_tag
FNDA:0,_ZSt9__advanceISt16reverse_iteratorIPN6optikg9GraphNodeEElEvRT_T0_St26random_access_iterator_tag
FNDA:104,_ZSt10__distanceIN5QHashI7QStringPN6optikg9GraphNodeEE12key_iteratorEENSt15iterator_traitsIT_E15difference_typeES8_S8_St18input_iterator_tag
FNF:18
FNH:1
DA:83,104
DA:89,104
DA:90,944
DA:92,840
DA:93,840
DA:95,104
DA:108,11564
DA:153,36028
DA:154,47330
DA:170,0
DA:176,0
DA:177,0
DA:178,0
DA:180,0
DA:181,0
DA:182,0
DA:186,0
DA:197,0
DA:198,0
DA:225,0
DA:226,0
DA:227,0
DA:240,0
LF:23
LH:9
end_of_record
TN:
SF:/usr/include/c++/15/bits/stl_iterator_base_types.h
FNF:0
FNH:0
DA:242,35281
LF:1
LH:1
end_of_record
TN:
SF:/usr/include/c++/15/bits/stl_map.h
FN:1008,1021,_ZNSt3mapI7QStringN6optikg6TripleESt4lessIS0_ESaISt4pairIKS0_S2_EEE16insert_or_assignIRKS2_EES5_ISt17_Rb_tree_iteratorIS7_EbERS6_OT_
FN:1008,1021,_ZNSt3mapIiN12QtConcurrent19IntermediateResultsIN6optikg16ExtractionRecordEEESt4lessIiESaISt4pairIKiS4_EEE16insert_or_assignIRKS4_EES7_ISt17_Rb_tree_iteratorIS9_EbERS8_OT_
FN:1178,1179,_ZNSt3mapIiN12QtConcurrent19IntermediateResultsIN6optikg16ExtractionRecordEEESt4lessIiESaISt4pairIKiS4_EEE5eraseESt23_Rb_tree_const_iteratorIS9_ESD_
FN:1223,1224,_ZNSt3mapIiN12QtConcurrent19IntermediateResultsIN6optikg16ExtractionRecordEEESt4lessIiESaISt4pairIKiS4_EEE5clearEv
FN:1223,1224,_ZNSt3mapIiN9QtPrivate10ResultItemESt4lessIiESaISt4pairIKiS1_EEE5clearEv
FN:1232,1233,_ZNKSt3mapI7QStringN6optikg6TripleESt4lessIS0_ESaISt4pairIKS0_S2_EEE8key_compEv
FN:1232,1233,_ZNKSt3mapIiN12QtConcurrent19IntermediateResultsIN6optikg16ExtractionRecordEEESt4lessIiESaISt4pairIKiS4_EEE8key_compEv
FN:1259,1260,_ZNSt3mapI7QStringN6optikg12AppConstants14EntityTypeInfoESt4lessIS0_ESaISt4pairIKS0_S3_EEE4findERS7_
FN:1259,1260,_ZNSt3mapI7QStringN6optikg6TripleESt4lessIS0_ESaISt4pairIKS0_S2_EEE4findERS6_
FN:1259,1260,_ZNSt3mapIi7QStringSt4lessIiESaISt4pairIKiS0_EEE4findERS4_
FN:1284,1285,_ZNKSt3mapIi7QStringSt4lessIiESaISt4pairIKiS0_EEE4findERS4_
FN:1348,1349,_ZNSt3mapI7QStringN6optikg6TripleESt4lessIS0_ESaISt4pairIKS0_S2_EEE11lower_boundERS6_
FN:1348,1349,_ZNSt3mapIiN12QtConcurrent19IntermediateResultsIN6optikg16ExtractionRecordEEESt4lessIiESaISt4pairIKiS4_EEE11lower_boundERS8_
FN:200,200,_ZNSt3mapI7QStringN6optikg12AppConstants14EntityTypeInfoESt4lessIS0_ESaISt4pairIKS0_S3_EEEC2Ev
FN:200,200,_ZNSt3mapI7QStringN6optikg6TripleESt4lessIS0_ESaISt4pairIKS0_S2_EEEC2Ev
FN:200,200,_ZNSt3mapIi7QStringSt4lessIiESaISt4pairIKiS0_EEEC2Ev
FN:200,200,_ZNSt3mapIiN12QtConcurrent19IntermediateResultsIN6optikg16ExtractionRecordEEESt4lessIiESaISt4pairIKiS4_EEEC2Ev
FN:222,222,_ZNSt3mapI7QStringN6optikg12AppConstants14EntityTypeInfoESt4lessIS0_ESaISt4pairIKS0_S3_EEEC2ERKSA_
FN:222,222,_ZNSt3mapI7QStringN6optikg6TripleESt4lessIS0_ESaISt4pairIKS0_S2_EEEC2ERKS9_
FN:222,222,_ZNSt3mapIi7QStringSt4lessIiESaISt4pairIKiS0_EEEC2ERKS7_
FN:222,222,_ZNSt3mapIiN12QtConcurrent19IntermediateResultsIN6optikg16ExtractionRecordEEESt4lessIiESaISt4pairIKiS4_EEEC2ERKSB_
FN:337,337,_ZNSt3mapI7QStringN6optikg12AppConstants14EntityTypeInfoESt4lessIS0_ESaISt4pairIKS0_S3_EEED2Ev
FN:337,337,_ZNSt3mapI7QStringN6optikg6TripleESt4lessIS0_ESaISt4pairIKS0_S2_EEED2Ev
FN:337,337,_ZNSt3mapIi7QStringSt4lessIiESaISt4pairIKiS0_EEED2Ev
FN:337,337,_ZNSt3mapIiN12QtConcurrent19IntermediateResultsIN6optikg16ExtractionRecordEEESt4lessIiESaISt4pairIKiS4_EEED2Ev
FN:337,337,_ZNSt3mapIiN9QtPrivate10ResultItemESt4lessIiESaISt4pairIKiS1_EEED2Ev
FN:391,392,_ZNSt3mapI7QStringN6optikg6TripleESt4lessIS0_ESaISt4pairIKS0_S2_EEE5beginEv
FN:391,392,_ZNSt3mapIiN12QtConcurrent19IntermediateResultsIN6optikg16ExtractionRecordEEESt4lessIiESaISt4pairIKiS4_EEE5beginEv
FN:400,401,_ZNKSt3mapIiN12QtConcurrent19IntermediateResultsIN6optikg16ExtractionRecordEEESt4lessIiESaISt4pairIKiS4_EEE5beginEv
FN:409,410,_ZNSt3mapI7QStringN6optikg12AppConstants14EntityTypeInfoESt4lessIS0_ESaISt4pairIKS0_S3_EEE3endEv
FN:409,410,_ZNSt3mapI7QStringN6optikg6TripleESt4lessIS0_ESaISt4pairIKS0_S2_EEE3endEv
FN:409,410,_ZNSt3mapIi7QStringSt4lessIiESaISt4pairIKiS0_EEE3endEv
FN:409,410,_ZNSt3mapIiN12QtConcurrent19IntermediateResultsIN6optikg16ExtractionRecordEEESt4lessIiESaISt4pairIKiS4_EEE3endEv
FN:418,419,_ZNKSt3mapIiN12QtConcurrent19IntermediateResultsIN6optikg16ExtractionRecordEEESt4lessIiESaISt4pairIKiS4_EEE3endEv
FN:418,419,_ZNKSt3mapIiN9QtPrivate10ResultItemESt4lessIiESaISt4pairIKiS1_EEE3endEv
FN:464,465,_ZNKSt3mapI7QStringN6optikg6TripleESt4lessIS0_ESaISt4pairIKS0_S2_EEE6cbeginEv
FN:464,465,_ZNKSt3mapIiN9QtPrivate10ResultItemESt4lessIiESaISt4pairIKiS1_EEE6cbeginEv
FN:473,474,_ZNKSt3mapI7QStringN6optikg6TripleESt4lessIS0_ESaISt4pairIKS0_S2_EEE4cendEv
FN:473,474,_ZNKSt3mapIi7QStringSt4lessIiESaISt4pairIKiS0_EEE4cendEv
FN:500,501,_ZNKSt3mapI7QStringN6optikg12AppConstants14EntityTypeInfoESt4lessIS0_ESaISt4pairIKS0_S3_EEE5emptyEv
FN:500,501,_ZNKSt3mapIiN12QtConcurrent19IntermediateResultsIN6optikg16ExtractionRecordEEESt4lessIiESaISt4pairIKiS4_EEE5emptyEv
FN:505,506,_ZNKSt3mapI7QStringN6optikg6TripleESt4lessIS0_ESaISt4pairIKS0_S2_EEE4sizeEv
FN:505,506,_ZNKSt3mapIi7QStringSt4lessIiESaISt4pairIKiS0_EEE4sizeEv
FN:505,506,_ZNKSt3mapIiN12QtConcurrent19IntermediateResultsIN6optikg16ExtractionRecordEEESt4lessIiESaISt4pairIKiS4_EEE4sizeEv
FN:661,665,_ZNSt3mapI7QStringN6optikg6TripleESt4lessIS0_ESaISt4pairIKS0_S2_EEE12emplace_hintIJRKSt21piecewise_construct_tSt5tupleIJRS6_EESE_IJRKS2_EEEEESt17_Rb_tree_iteratorIS7_ESt23_Rb_tree_const_iteratorIS7_EDpOT_
FN:661,665,_ZNSt3mapIiN12QtConcurrent19IntermediateResultsIN6optikg16ExtractionRecordEEESt4lessIiESaISt4pairIKiS4_EEE12emplace_hintIJRKSt21piecewise_construct_tSt5tupleIJRS8_EESG_IJRKS4_EEEEESt17_Rb_tree_iteratorIS9_ESt23_Rb_tree_const_iteratorIS9_EDpOT_
FN:864,865,_ZNSt3mapI7QStringN6optikg12AppConstants14EntityTypeInfoESt4lessIS0_ESaISt4pairIKS0_S3_EEE6insertEOS8_
FN:864,865,_ZNSt3mapI7QStringN6optikg6TripleESt4lessIS0_ESaISt4pairIKS0_S2_EEE6insertEOS7_
FN:864,865,_ZNSt3mapIi7QStringSt4lessIiESaISt4pairIKiS0_EEE6insertEOS5_
FN:950,954,_ZNSt3mapIiN12QtConcurrent19IntermediateResultsIN6optikg16ExtractionRecordEEESt4lessIiESaISt4pairIKiS4_EEE6insertESt23_Rb_tree_const_iteratorIS9_ERKS9_
FNDA:4,_ZNSt3mapI7QStringN6optikg6TripleESt4lessIS0_ESaISt4pairIKS0_S2_EEE16insert_or_assignIRKS2_EES5_ISt17_Rb_tree_iteratorIS7_EbERS6_OT_
FNDA:0,_ZNSt3mapIiN12QtConcurrent19IntermediateResultsIN6optikg16ExtractionRecordEEESt4lessIiESaISt4pairIKiS4_EEE16insert_or_assignIRKS4_EES7_ISt17_Rb_tree_iteratorIS9_EbERS8_OT_
FNDA:0,_ZNSt3mapIiN12QtConcurrent19IntermediateResultsIN6optikg16ExtractionRecordEEESt4lessIiESaISt4pairIKiS4_EEE5eraseESt23_Rb_tree_const_iteratorIS9_ESD_
FNDA:0,_ZNSt3mapIiN12QtConcurrent19IntermediateResultsIN6optikg16ExtractionRecordEEESt4lessIiESaISt4pairIKiS4_EEE5clearEv
FNDA:0,_ZNSt3mapIiN9QtPrivate10ResultItemESt4lessIiESaISt4pairIKiS1_EEE5clearEv
FNDA:0,_ZNKSt3mapI7QStringN6optikg6TripleESt4lessIS0_ESaISt4pairIKS0_S2_EEE8key_compEv
FNDA:0,_ZNKSt3mapIiN12QtConcurrent19IntermediateResultsIN6optikg16ExtractionRecordEEESt4lessIiESaISt4pairIKiS4_EEE8key_compEv
FNDA:0,_ZNSt3mapI7QStringN6optikg12AppConstants14EntityTypeInfoESt4lessIS0_ESaISt4pairIKS0_S3_EEE4findERS7_
FNDA:5,_ZNSt3mapI7QStringN6optikg6TripleESt4lessIS0_ESaISt4pairIKS0_S2_EEE4findERS6_
FNDA:220,_ZNSt3mapIi7QStringSt4lessIiESaISt4pairIKiS0_EEE4findERS4_
FNDA:5651,_ZNKSt3mapIi7QStringSt4lessIiESaISt4pairIKiS0_EEE4findERS4_
FNDA:4,_ZNSt3mapI7QStringN6optikg6TripleESt4lessIS0_ESaISt4pairIKS0_S2_EEE11lower_boundERS6_
FNDA:0,_ZNSt3mapIiN12QtConcurrent19IntermediateResultsIN6optikg16ExtractionRecordEEESt4lessIiESaISt4pairIKiS4_EEE11lower_boundERS8_
FNDA:0,_ZNSt3mapI7QStringN6optikg12AppConstants14EntityTypeInfoESt4lessIS0_ESaISt4pairIKS0_S3_EEEC2Ev
FNDA:3,_ZNSt3mapI7QStringN6optikg6TripleESt4lessIS0_ESaISt4pairIKS0_S2_EEEC2Ev
FNDA:55,_ZNSt3mapIi7QStringSt4lessIiESaISt4pairIKiS0_EEEC2Ev
FNDA:0,_ZNSt3mapIiN12QtConcurrent19IntermediateResultsIN6optikg16ExtractionRecordEEESt4lessIiESaISt4pairIKiS4_EEEC2Ev
FNDA:0,_ZNSt3mapI7QStringN6optikg12AppConstants14EntityTypeInfoESt4lessIS0_ESaISt4pairIKS0_S3_EEEC2ERKSA_
FNDA:0,_ZNSt3mapI7QStringN6optikg6TripleESt4lessIS0_ESaISt4pairIKS0_S2_EEEC2ERKS9_
FNDA:0,_ZNSt3mapIi7QStringSt4lessIiESaISt4pairIKiS0_EEEC2ERKS7_
FNDA:0,_ZNSt3mapIiN12QtConcurrent19IntermediateResultsIN6optikg16ExtractionRecordEEESt4lessIiESaISt4pairIKiS4_EEEC2ERKSB_
FNDA:0,_ZNSt3mapI7QStringN6optikg12AppConstants14EntityTypeInfoESt4lessIS0_ESaISt4pairIKS0_S3_EEED2Ev
FNDA:3,_ZNSt3mapI7QStringN6optikg6TripleESt4lessIS0_ESaISt4pairIKS0_S2_EEED2Ev
FNDA:55,_ZNSt3mapIi7QStringSt4lessIiESaISt4pairIKiS0_EEED2Ev
FNDA:0,_ZNSt3mapIiN12QtConcurrent19IntermediateResultsIN6optikg16ExtractionRecordEEESt4lessIiESaISt4pairIKiS4_EEED2Ev
FNDA:0,_ZNSt3mapIiN9QtPrivate10ResultItemESt4lessIiESaISt4pairIKiS1_EEED2Ev
FNDA:272,_ZNSt3mapI7QStringN6optikg6TripleESt4lessIS0_ESaISt4pairIKS0_S2_EEE5beginEv
FNDA:0,_ZNSt3mapIiN12QtConcurrent19IntermediateResultsIN6optikg16ExtractionRecordEEESt4lessIiESaISt4pairIKiS4_EEE5beginEv
FNDA:0,_ZNKSt3mapIiN12QtConcurrent19IntermediateResultsIN6optikg16ExtractionRecordEEESt4lessIiESaISt4pairIKiS4_EEE5beginEv
FNDA:0,_ZNSt3mapI7QStringN6optikg12AppConstants14EntityTypeInfoESt4lessIS0_ESaISt4pairIKS0_S3_EEE3endEv
FNDA:400,_ZNSt3mapI7QStringN6optikg6TripleESt4lessIS0_ESaISt4pairIKS0_S2_EEE3endEv
FNDA:220,_ZNSt3mapIi7QStringSt4lessIiESaISt4pairIKiS0_EEE3endEv
FNDA:0,_ZNSt3mapIiN12QtConcurrent19IntermediateResultsIN6optikg16ExtractionRecordEEESt4lessIiESaISt4pairIKiS4_EEE3endEv
FNDA:0,_ZNKSt3mapIiN12QtConcurrent19IntermediateResultsIN6optikg16ExtractionRecordEEESt4lessIiESaISt4pairIKiS4_EEE3endEv
FNDA:0,_ZNKSt3mapIiN9QtPrivate10ResultItemESt4lessIiESaISt4pairIKiS1_EEE3endEv
FNDA:3,_ZNKSt3mapI7QStringN6optikg6TripleESt4lessIS0_ESaISt4pairIKS0_S2_EEE6cbeginEv
FNDA:0,_ZNKSt3mapIiN9QtPrivate10ResultItemESt4lessIiESaISt4pairIKiS1_EEE6cbeginEv
FNDA:3,_ZNKSt3mapI7QStringN6optikg6TripleESt4lessIS0_ESaISt4pairIKS0_S2_EEE4cendEv
FNDA:5651,_ZNKSt3mapIi7QStringSt4lessIiESaISt4pairIKiS0_EEE4cendEv
FNDA:0,_ZNKSt3mapI7QStringN6optikg12AppConstants14EntityTypeInfoESt4lessIS0_ESaISt4pairIKS0_S3_EEE5emptyEv
FNDA:0,_ZNKSt3mapIiN12QtConcurrent19IntermediateResultsIN6optikg16ExtractionRecordEEESt4lessIiESaISt4pairIKiS4_EEE5emptyEv
FNDA:3,_ZNKSt3mapI7QStringN6optikg6TripleESt4lessIS0_ESaISt4pairIKS0_S2_EEE4sizeEv
FNDA:55,_ZNKSt3mapIi7QStringSt4lessIiESaISt4pairIKiS0_EEE4sizeEv
FNDA:0,_ZNKSt3mapIiN12QtConcurrent19IntermediateResultsIN6optikg16ExtractionRecordEEESt4lessIiESaISt4pairIKiS4_EEE4sizeEv
FNDA:4,_ZNSt3mapI7QStringN6optikg6TripleESt4lessIS0_ESaISt4pairIKS0_S2_EEE12emplace_hintIJRKSt21piecewise_construct_tSt5tupleIJRS6_EESE_IJRKS2_EEEEESt17_Rb_tree_iteratorIS7_ESt23_Rb_tree_const_iteratorIS7_EDpOT_
FNDA:0,_ZNSt3mapIiN12QtConcurrent19IntermediateResultsIN6optikg16ExtractionRecordEEESt4lessIiESaISt4pairIKiS4_EEE12emplace_hintIJRKSt21piecewise_construct_tSt5tupleIJRS8_EESG_IJRKS4_EEEEESt17_Rb_tree_iteratorIS9_ESt23_Rb_tree_const_iteratorIS9_EDpOT_
FNDA:0,_ZNSt3mapI7QStringN6optikg12AppConstants14EntityTypeInfoESt4lessIS0_ESaISt4pairIKS0_S3_EEE6insertEOS8_
FNDA:0,_ZNSt3mapI7QStringN6optikg6TripleESt4lessIS0_ESaISt4pairIKS0_S2_EEE6insertEOS7_
FNDA:220,_ZNSt3mapIi7QStringSt4lessIiESaISt4pairIKiS0_EEE6insertEOS5_
FNDA:0,_ZNSt3mapIiN12QtConcurrent19IntermediateResultsIN6optikg16ExtractionRecordEEESt4lessIiESaISt4pairIKiS4_EEE6insertESt23_Rb_tree_const_iteratorIS9_ERKS9_
FNF:50
FNH:19
DA:200,58
DA:222,0
DA:337,58
DA:391,272
DA:392,272
DA:400,0
DA:401,0
DA:409,620
DA:410,620
DA:418,0
DA:419,0
DA:464,3
DA:465,3
DA:473,5654
DA:474,5654
DA:500,0
DA:501,0
DA:505,58
DA:506,58
DA:661,4
DA:663,16
DA:664,4
DA:864,220
DA:865,440
DA:950,0
DA:954,0
DA:1008,4
DA:1010,4
DA:1011,4
DA:1013,4
DA:1014,4
DA:1015,4
DA:1017,4
DA:1019,0
DA:1020,0
DA:1178,0
DA:1179,0
DA:1223,0
DA:1224,0
DA:1232,0
DA:1233,0
DA:1259,225
DA:1260,225
DA:1284,5651
DA:1285,5651
DA:1348,4
DA:1349,4
LF:47
LH:30
end_of_record
TN:
SF:/usr/include/c++/15/bits/stl_pair.h
FN:1060,1061,_ZSteqI7QStringN6optikg10EntityTypeEEbRKSt4pairIT_T0_ES8_
FN:1060,1061,_ZSteqI7QStringS0_EbRKSt4pairIT_T0_ES6_
FN:1164,1170,_ZSt9make_pairIR7QStringS1_ESt4pairINSt25__strip_reference_wrapperINSt5decayIT_E4typeEE6__typeENS3_INS4_IT0_E4typeEE6__typeEEOS5_OSA_
FN:1164,1170,_ZSt9make_pairIRK7QStringRKN6optikg10EntityTypeEESt4pairINSt25__strip_reference_wrapperINSt5decayIT_E4typeEE6__typeENS8_INS9_IT0_E4typeEE6__typeEEOSA_OSF_
FN:1164,1170,_ZSt9make_pairIRK7QStringS2_ESt4pairINSt25__strip_reference_wrapperINSt5decayIT_E4typeEE6__typeENS4_INS5_IT0_E4typeEE6__typeEEOS6_OSB_
FN:1238,1239,_ZNSt10__pair_getILm0EE10__move_getIP15QTypedArrayDataI26QTableWidgetSelectionRangeEPS3_EEOT_OSt4pairIS7_T0_E
FN:1238,1239,_ZNSt10__pair_getILm0EE10__move_getIP15QTypedArrayDataI5QListI8QVariantEEPS5_EEOT_OSt4pairIS9_T0_E
FN:1238,1239,_ZNSt10__pair_getILm0EE10__move_getIP15QTypedArrayDataI5QListIN6optikg16ExtractionRecordEEEPS6_EEOT_OSt4pairISA_T0_E
FN:1238,1239,_ZNSt10__pair_getILm0EE10__move_getIP15QTypedArrayDataI7QStringEPS3_EEOT_OSt4pairIS7_T0_E
FN:1238,1239,_ZNSt10__pair_getILm0EE10__move_getIP15QTypedArrayDataI8QVariantEPS3_EEOT_OSt4pairIS7_T0_E
FN:1238,1239,_ZNSt10__pair_getILm0EE10__move_getIP15QTypedArrayDataI9QFileInfoEPS3_EEOT_OSt4pairIS7_T0_E
FN:1238,1239,_ZNSt10__pair_getILm0EE10__move_getIP15QTypedArrayDataIN6optikg10EntityTypeEEPS4_EEOT_OSt4pairIS8_T0_E
FN:1238,1239,_ZNSt10__pair_getILm0EE10__move_getIP15QTypedArrayDataIN6optikg16ExtractionRecordEEPS4_EEOT_OSt4pairIS8_T0_E
FN:1238,1239,_ZNSt10__pair_getILm0EE10__move_getIP15QTypedArrayDataIN6optikg17FileProcessResultEEPS4_EEOT_OSt4pairIS8_T0_E
FN:1238,1239,_ZNSt10__pair_getILm0EE10__move_getIP15QTypedArrayDataIN6optikg6EntityEEPS4_EEOT_OSt4pairIS8_T0_E
FN:1238,1239,_ZNSt10__pair_getILm0EE10__move_getIP15QTypedArrayDataIN6optikg6TripleEEPS4_EEOT_OSt4pairIS8_T0_E
FN:1238,1239,_ZNSt10__pair_getILm0EE10__move_getIP15QTypedArrayDataIN6optikg9GraphEdgeEEPS4_EEOT_OSt4pairIS8_T0_E
FN:1238,1239,_ZNSt10__pair_getILm0EE10__move_getIP15QTypedArrayDataIN6optikg9GraphNodeEEPS4_EEOT_OSt4pairIS8_T0_E
FN:1238,1239,_ZNSt10__pair_getILm0EE10__move_getIP15QTypedArrayDataIP11QPushButtonEPS4_EEOT_OSt4pairIS8_T0_E
FN:1238,1239,_ZNSt10__pair_getILm0EE10__move_getIP15QTypedArrayDataIP13QGraphicsItemEPS4_EEOT_OSt4pairIS8_T0_E
FN:1238,1239,_ZNSt10__pair_getILm0EE10__move_getIP15QTypedArrayDataIP15QListWidgetItemEPS4_EEOT_OSt4pairIS8_T0_E
FN:1238,1239,_ZNSt10__pair_getILm0EE10__move_getIP15QTypedArrayDataIP6QLabelEPS4_EEOT_OSt4pairIS8_T0_E
FN:1238,1239,_ZNSt10__pair_getILm0EE10__move_getIP15QTypedArrayDataIP7QActionEPS4_EEOT_OSt4pairIS8_T0_E
FN:1238,1239,_ZNSt10__pair_getILm0EE10__move_getIP15QTypedArrayDataIP9QCheckBoxEPS4_EEOT_OSt4pairIS8_T0_E
FN:1238,1239,_ZNSt10__pair_getILm0EE10__move_getIP15QTypedArrayDataIP9QSplitterEPS4_EEOT_OSt4pairIS8_T0_E
FN:1238,1239,_ZNSt10__pair_getILm0EE10__move_getIP15QTypedArrayDataIPN6optikg9GraphEdgeEEPS5_EEOT_OSt4pairIS9_T0_E
FN:1238,1239,_ZNSt10__pair_getILm0EE10__move_getIP15QTypedArrayDataISt4pairI7QString6QColorEEPS6_EEOT_OS3_ISA_T0_E
FN:1238,1239,_ZNSt10__pair_getILm0EE10__move_getIP15QTypedArrayDataISt4pairI7QStringS4_EEPS5_EEOT_OS3_IS9_T0_E
FN:1238,1239,_ZNSt10__pair_getILm0EE10__move_getIP15QTypedArrayDataISt4pairI7QStringiEEPS5_EEOT_OS3_IS9_T0_E
FN:1238,1239,_ZNSt10__pair_getILm0EE10__move_getIP15QTypedArrayDataIiEPiEEOT_OSt4pairIS6_T0_E
FN:1238,1239,_ZNSt10__pair_getILm0EE10__move_getIP15QTypedArrayDataIxEPxEEOT_OSt4pairIS6_T0_E
FN:1262,1263,_ZNSt10__pair_getILm1EE10__move_getIP15QTypedArrayDataI26QTableWidgetSelectionRangeEPS3_EEOT0_OSt4pairIT_S7_E
FN:1262,1263,_ZNSt10__pair_getILm1EE10__move_getIP15QTypedArrayDataI5QListI8QVariantEEPS5_EEOT0_OSt4pairIT_S9_E
FN:1262,1263,_ZNSt10__pair_getILm1EE10__move_getIP15QTypedArrayDataI5QListIN6optikg16ExtractionRecordEEEPS6_EEOT0_OSt4pairIT_SA_E
FN:1262,1263,_ZNSt10__pair_getILm1EE10__move_getIP15QTypedArrayDataI7QStringEPS3_EEOT0_OSt4pairIT_S7_E
FN:1262,1263,_ZNSt10__pair_getILm1EE10__move_getIP15QTypedArrayDataI8QVariantEPS3_EEOT0_OSt4pairIT_S7_E
FN:1262,1263,_ZNSt10__pair_getILm1EE10__move_getIP15QTypedArrayDataI9QFileInfoEPS3_EEOT0_OSt4pairIT_S7_E
FN:1262,1263,_ZNSt10__pair_getILm1EE10__move_getIP15QTypedArrayDataIN6optikg10EntityTypeEEPS4_EEOT0_OSt4pairIT_S8_E
FN:1262,1263,_ZNSt10__pair_getILm1EE10__move_getIP15QTypedArrayDataIN6optikg16ExtractionRecordEEPS4_EEOT0_OSt4pairIT_S8_E
FN:1262,1263,_ZNSt10__pair_getILm1EE10__move_getIP15QTypedArrayDataIN6optikg17FileProcessResultEEPS4_EEOT0_OSt4pairIT_S8_E
FN:1262,1263,_ZNSt10__pair_getILm1EE10__move_getIP15QTypedArrayDataIN6optikg6EntityEEPS4_EEOT0_OSt4pairIT_S8_E
FN:1262,1263,_ZNSt10__pair_getILm1EE10__move_getIP15QTypedArrayDataIN6optikg6TripleEEPS4_EEOT0_OSt4pairIT_S8_E
FN:1262,1263,_ZNSt10__pair_getILm1EE10__move_getIP15QTypedArrayDataIN6optikg9GraphEdgeEEPS4_EEOT0_OSt4pairIT_S8_E
FN:1262,1263,_ZNSt10__pair_getILm1EE10__move_getIP15QTypedArrayDataIN6optikg9GraphNodeEEPS4_EEOT0_OSt4pairIT_S8_E
FN:1262,1263,_ZNSt10__pair_getILm1EE10__move_getIP15QTypedArrayDataIP11QPushButtonEPS4_EEOT0_OSt4pairIT_S8_E
FN:1262,1263,_ZNSt10__pair_getILm1EE10__move_getIP15QTypedArrayDataIP13QGraphicsItemEPS4_EEOT0_OSt4pairIT_S8_E
FN:1262,1263,_ZNSt10__pair_getILm1EE10__move_getIP15QTypedArrayDataIP15QListWidgetItemEPS4_EEOT0_OSt4pairIT_S8_E
FN:1262,1263,_ZNSt10__pair_getILm1EE10__move_getIP15QTypedArrayDataIP6QLabelEPS4_EEOT0_OSt4pairIT_S8_E
FN:1262,1263,_ZNSt10__pair_getILm1EE10__move_getIP15QTypedArrayDataIP7QActionEPS4_EEOT0_OSt4pairIT_S8_E
FN:1262,1263,_ZNSt10__pair_getILm1EE10__move_getIP15QTypedArrayDataIP9QCheckBoxEPS4_EEOT0_OSt4pairIT_S8_E
FN:1262,1263,_ZNSt10__pair_getILm1EE10__move_getIP15QTypedArrayDataIP9QSplitterEPS4_EEOT0_OSt4pairIT_S8_E
FN:1262,1263,_ZNSt10__pair_getILm1EE10__move_getIP15QTypedArrayDataIPN6optikg9GraphEdgeEEPS5_EEOT0_OSt4pairIT_S9_E
FN:1262,1263,_ZNSt10__pair_getILm1EE10__move_getIP15QTypedArrayDataISt4pairI7QString6QColorEEPS6_EEOT0_OS3_IT_SA_E
FN:1262,1263,_ZNSt10__pair_getILm1EE10__move_getIP15QTypedArrayDataISt4pairI7QStringS4_EEPS5_EEOT0_OS3_IT_S9_E
FN:1262,1263,_ZNSt10__pair_getILm1EE10__move_getIP15QTypedArrayDataISt4pairI7QStringiEEPS5_EEOT0_OS3_IT_S9_E
FN:1262,1263,_ZNSt10__pair_getILm1EE10__move_getIP15QTypedArrayDataIiEPiEEOT0_OSt4pairIT_S6_E
FN:1262,1263,_ZNSt10__pair_getILm1EE10__move_getIP15QTypedArrayDataIxEPxEEOT0_OSt4pairIT_S6_E
FN:1288,1289,_ZSt3getILm0EP15QTypedArrayDataI26QTableWidgetSelectionRangeEPS1_EONSt13tuple_elementIXT_ESt4pairIT0_T1_EE4typeEOS9_
FN:1288,1289,_ZSt3getILm0EP15QTypedArrayDataI5QListI8QVariantEEPS3_EONSt13tuple_elementIXT_ESt4pairIT0_T1_EE4typeEOSB_
FN:1288,1289,_ZSt3getILm0EP15QTypedArrayDataI5QListIN6optikg16ExtractionRecordEEEPS4_EONSt13tuple_elementIXT_ESt4pairIT0_T1_EE4typeEOSC_
FN:1288,1289,_ZSt3getILm0EP15QTypedArrayDataI7QStringEPS1_EONSt13tuple_elementIXT_ESt4pairIT0_T1_EE4typeEOS9_
FN:1288,1289,_ZSt3getILm0EP15QTypedArrayDataI8QVariantEPS1_EONSt13tuple_elementIXT_ESt4pairIT0_T1_EE4typeEOS9_
FN:1288,1289,_ZSt3getILm0EP15QTypedArrayDataI9QFileInfoEPS1_EONSt13tuple_elementIXT_ESt4pairIT0_T1_EE4typeEOS9_
FN:1288,1289,_ZSt3getILm0EP15QTypedArrayDataIN6optikg10EntityTypeEEPS2_EONSt13tuple_elementIXT_ESt4pairIT0_T1_EE4typeEOSA_
FN:1288,1289,_ZSt3getILm0EP15QTypedArrayDataIN6optikg16ExtractionRecordEEPS2_EONSt13tuple_elementIXT_ESt4pairIT0_T1_EE4typeEOSA_
FN:1288,1289,_ZSt3getILm0EP15QTypedArrayDataIN6optikg17FileProcessResultEEPS2_EONSt13tuple_elementIXT_ESt4pairIT0_T1_EE4typeEOSA_
FN:1288,1289,_ZSt3getILm0EP15QTypedArrayDataIN6optikg6EntityEEPS2_EONSt13tuple_elementIXT_ESt4pairIT0_T1_EE4typeEOSA_
FN:1288,1289,_ZSt3getILm0EP15QTypedArrayDataIN6optikg6TripleEEPS2_EONSt13tuple_elementIXT_ESt4pairIT0_T1_EE4typeEOSA_
FN:1288,1289,_ZSt3getILm0EP15QTypedArrayDataIN6optikg9GraphEdgeEEPS2_EONSt13tuple_elementIXT_ESt4pairIT0_T1_EE4typeEOSA_
FN:1288,1289,_ZSt3getILm0EP15QTypedArrayDataIN6optikg9GraphNodeEEPS2_EONSt13tuple_elementIXT_ESt4pairIT0_T1_EE4typeEOSA_
FN:1288,1289,_ZSt3getILm0EP15QTypedArrayDataIP11QPushButtonEPS2_EONSt13tuple_elementIXT_ESt4pairIT0_T1_EE4typeEOSA_
FN:1288,1289,_ZSt3getILm0EP15QTypedArrayDataIP13QGraphicsItemEPS2_EONSt13tuple_elementIXT_ESt4pairIT0_T1_EE4typeEOSA_
FN:1288,1289,_ZSt3getILm0EP15QTypedArrayDataIP15QListWidgetItemEPS2_EONSt13tuple_elementIXT_ESt4pairIT0_T1_EE4typeEOSA_
FN:1288,1289,_ZSt3getILm0EP15QTypedArrayDataIP6QLabelEPS2_EONSt13tuple_elementIXT_ESt4pairIT0_T1_EE4typeEOSA_
FN:1288,1289,_ZSt3getILm0EP15QTypedArrayDataIP7QActionEPS2_EONSt13tuple_elementIXT_ESt4pairIT0_T1_EE4typeEOSA_
FN:1288,1289,_ZSt3getILm0EP15QTypedArrayDataIP9QCheckBoxEPS2_EONSt13tuple_elementIXT_ESt4pairIT0_T1_EE4typeEOSA_
FN:1288,1289,_ZSt3getILm0EP15QTypedArrayDataIP9QSplitterEPS2_EONSt13tuple_elementIXT_ESt4pairIT0_T1_EE4typeEOSA_
FN:1288,1289,_ZSt3getILm0EP15QTypedArrayDataIPN6optikg9GraphEdgeEEPS3_EONSt13tuple_elementIXT_ESt4pairIT0_T1_EE4typeEOSB_
FN:1288,1289,_ZSt3getILm0EP15QTypedArrayDataISt4pairI7QString6QColorEEPS4_EONSt13tuple_elementIXT_ES1_IT0_T1_EE4typeEOSB_
FN:1288,1289,_ZSt3getILm0EP15QTypedArrayDataISt4pairI7QStringS2_EEPS3_EONSt13tuple_elementIXT_ES1_IT0_T1_EE4typeEOSA_
FN:1288,1289,_ZSt3getILm0EP15QTypedArrayDataISt4pairI7QStringiEEPS3_EONSt13tuple_elementIXT_ES1_IT0_T1_EE4typeEOSA_
FN:1288,1289,_ZSt3getILm0EP15QTypedArrayDataIiEPiEONSt13tuple_elementIXT_ESt4pairIT0_T1_EE4typeEOS8_
FN:1288,1289,_ZSt3getILm0EP15QTypedArrayDataIxEPxEONSt13tuple_elementIXT_ESt4pairIT0_T1_EE4typeEOS8_
FN:1288,1289,_ZSt3getILm1EP15QTypedArrayDataI26QTableWidgetSelectionRangeEPS1_EONSt13tuple_elementIXT_ESt4pairIT0_T1_EE4typeEOS9_
FN:1288,1289,_ZSt3getILm1EP15QTypedArrayDataI5QListI8QVariantEEPS3_EONSt13tuple_elementIXT_ESt4pairIT0_T1_EE4typeEOSB_
FN:1288,1289,_ZSt3getILm1EP15QTypedArrayDataI5QListIN6optikg16ExtractionRecordEEEPS4_EONSt13tuple_elementIXT_ESt4pairIT0_T1_EE4typeEOSC_
FN:1288,1289,_ZSt3getILm1EP15QTypedArrayDataI7QStringEPS1_EONSt13tuple_elementIXT_ESt4pairIT0_T1_EE4typeEOS9_
FN:1288,1289,_ZSt3getILm1EP15QTypedArrayDataI8QVariantEPS1_EONSt13tuple_elementIXT_ESt4pairIT0_T1_EE4typeEOS9_
FN:1288,1289,_ZSt3getILm1EP15QTypedArrayDataI9QFileInfoEPS1_EONSt13tuple_elementIXT_ESt4pairIT0_T1_EE4typeEOS9_
FN:1288,1289,_ZSt3getILm1EP15QTypedArrayDataIN6optikg10EntityTypeEEPS2_EONSt13tuple_elementIXT_ESt4pairIT0_T1_EE4typeEOSA_
FN:1288,1289,_ZSt3getILm1EP15QTypedArrayDataIN6optikg16ExtractionRecordEEPS2_EONSt13tuple_elementIXT_ESt4pairIT0_T1_EE4typeEOSA_
FN:1288,1289,_ZSt3getILm1EP15QTypedArrayDataIN6optikg17FileProcessResultEEPS2_EONSt13tuple_elementIXT_ESt4pairIT0_T1_EE4typeEOSA_
FN:1288,1289,_ZSt3getILm1EP15QTypedArrayDataIN6optikg6EntityEEPS2_EONSt13tuple_elementIXT_ESt4pairIT0_T1_EE4typeEOSA_
FN:1288,1289,_ZSt3getILm1EP15QTypedArrayDataIN6optikg6TripleEEPS2_EONSt13tuple_elementIXT_ESt4pairIT0_T1_EE4typeEOSA_
FN:1288,1289,_ZSt3getILm1EP15QTypedArrayDataIN6optikg9GraphEdgeEEPS2_EONSt13tuple_elementIXT_ESt4pairIT0_T1_EE4typeEOSA_
FN:1288,1289,_ZSt3getILm1EP15QTypedArrayDataIN6optikg9GraphNodeEEPS2_EONSt13tuple_elementIXT_ESt4pairIT0_T1_EE4typeEOSA_
FN:1288,1289,_ZSt3getILm1EP15QTypedArrayDataIP11QPushButtonEPS2_EONSt13tuple_elementIXT_ESt4pairIT0_T1_EE4typeEOSA_
FN:1288,1289,_ZSt3getILm1EP15QTypedArrayDataIP13QGraphicsItemEPS2_EONSt13tuple_elementIXT_ESt4pairIT0_T1_EE4typeEOSA_
FN:1288,1289,_ZSt3getILm1EP15QTypedArrayDataIP15QListWidgetItemEPS2_EONSt13tuple_elementIXT_ESt4pairIT0_T1_EE4typeEOSA_
FN:1288,1289,_ZSt3getILm1EP15QTypedArrayDataIP6QLabelEPS2_EONSt13tuple_elementIXT_ESt4pairIT0_T1_EE4typeEOSA_
FN:1288,1289,_ZSt3getILm1EP15QTypedArrayDataIP7QActionEPS2_EONSt13tuple_elementIXT_ESt4pairIT0_T1_EE4typeEOSA_
FN:1288,1289,_ZSt3getILm1EP15QTypedArrayDataIP9QCheckBoxEPS2_EONSt13tuple_elementIXT_ESt4pairIT0_T1_EE4typeEOSA_
FN:1288,1289,_ZSt3getILm1EP15QTypedArrayDataIP9QSplitterEPS2_EONSt13tuple_elementIXT_ESt4pairIT0_T1_EE4typeEOSA_
FN:1288,1289,_ZSt3getILm1EP15QTypedArrayDataIPN6optikg9GraphEdgeEEPS3_EONSt13tuple_elementIXT_ESt4pairIT0_T1_EE4typeEOSB_
FN:1288,1289,_ZSt3getILm1EP15QTypedArrayDataISt4pairI7QString6QColorEEPS4_EONSt13tuple_elementIXT_ES1_IT0_T1_EE4typeEOSB_
FN:1288,1289,_ZSt3getILm1EP15QTypedArrayDataISt4pairI7QStringS2_EEPS3_EONSt13tuple_elementIXT_ES1_IT0_T1_EE4typeEOSA_
FN:1288,1289,_ZSt3getILm1EP15QTypedArrayDataISt4pairI7QStringiEEPS3_EONSt13tuple_elementIXT_ES1_IT0_T1_EE4typeEOSA_
FN:1288,1289,_ZSt3getILm1EP15QTypedArrayDataIiEPiEONSt13tuple_elementIXT_ESt4pairIT0_T1_EE4typeEOS8_
FN:1288,1289,_ZSt3getILm1EP15QTypedArrayDataIxEPxEONSt13tuple_elementIXT_ESt4pairIT0_T1_EE4typeEOS8_
FN:312,312,_ZNSt4pairI7QString6QColorEC2ERKS2_
FN:312,312,_ZNSt4pairI7QStringN6optikg10EntityTypeEEC2ERKS3_
FN:312,312,_ZNSt4pairI7QStringS0_EC2ERKS1_
FN:312,312,_ZNSt4pairI7QStringiEC2ERKS1_
FN:312,312,_ZNSt4pairIK7QStringN6optikg12AppConstants14EntityTypeInfoEEC2ERKS5_
FN:312,312,_ZNSt4pairIK7QStringN6optikg6TripleEEC2ERKS4_
FN:312,312,_ZNSt4pairIKi7QStringEC2ERKS2_
FN:312,312,_ZNSt4pairIKiN12QtConcurrent19IntermediateResultsIN6optikg16ExtractionRecordEEEEC2ERKS6_
FN:313,313,_ZNSt4pairI7QString6QColorEC2EOS2_
FN:313,313,_ZNSt4pairI7QStringS0_EC2EOS1_
FN:313,313,_ZNSt4pairI7QStringiEC2EOS1_
FN:313,313,_ZNSt4pairIK7QStringN6optikg12AppConstants14EntityTypeInfoEEC2EOS5_
FN:313,313,_ZNSt4pairIK7QStringN6optikg6TripleEEC2EOS4_
FN:313,313,_ZNSt4pairIKi7QStringEC2EOS2_
FN:772,773,_ZNSt4pairI7QStringN6optikg10EntityTypeEEC2IS0_S2_Lb1EEERKS0_RKS2_
FN:772,773,_ZNSt4pairI7QStringS0_EC2IS0_S0_Lb1EEERKS0_S4_
FN:772,773,_ZNSt4pairIRKPN6optikg16ExtractionRecordES4_EC2IS4_S4_Lb1EEES4_S4_
FN:772,773,_ZNSt4pairIRKPN6optikg17FileProcessResultES4_EC2IS4_S4_Lb1EEES4_S4_
FN:772,773,_ZNSt4pairIRKPN6optikg6EntityES4_EC2IS4_S4_Lb1EEES4_S4_
FN:772,773,_ZNSt4pairIRKPN6optikg6TripleES4_EC2IS4_S4_Lb1EEES4_S4_
FN:772,773,_ZNSt4pairIRKPN6optikg9GraphEdgeES4_EC2IS4_S4_Lb1EEES4_S4_
FN:772,773,_ZNSt4pairIRKPN6optikg9GraphNodeES4_EC2IS4_S4_Lb1EEES4_S4_
FN:772,773,_ZNSt4pairIRKSt16reverse_iteratorIPN6optikg16ExtractionRecordEES6_EC2IS6_S6_Lb1EEES6_S6_
FN:772,773,_ZNSt4pairIRKSt16reverse_iteratorIPN6optikg17FileProcessResultEES6_EC2IS6_S6_Lb1EEES6_S6_
FN:772,773,_ZNSt4pairIRKSt16reverse_iteratorIPN6optikg6EntityEES6_EC2IS6_S6_Lb1EEES6_S6_
FN:772,773,_ZNSt4pairIRKSt16reverse_iteratorIPN6optikg6TripleEES6_EC2IS6_S6_Lb1EEES6_S6_
FN:772,773,_ZNSt4pairIRKSt16reverse_iteratorIPN6optikg9GraphEdgeEES6_EC2IS6_S6_Lb1EEES6_S6_
FN:772,773,_ZNSt4pairIRKSt16reverse_iteratorIPN6optikg9GraphNodeEES6_EC2IS6_S6_Lb1EEES6_S6_
FN:901,903,_ZNSt4pairI7QString6QColorEC2IRA7_KcS1_Lb1EEEOT_OT0_
FN:901,903,_ZNSt4pairI7QString6QColorEC2IS0_S1_Lb1EEEOT_OT0_
FN:901,903,_ZNSt4pairI7QStringS0_EC2IRA6_KcRA16_S3_Lb1EEEOT_OT0_
FN:901,903,_ZNSt4pairI7QStringS0_EC2IRA6_KcRA19_S3_Lb1EEEOT_OT0_
FN:901,903,_ZNSt4pairI7QStringS0_EC2IRA6_KcRA22_S3_Lb1EEEOT_OT0_
FN:901,903,_ZNSt4pairI7QStringS0_EC2IRA6_KcRA30_S3_Lb1EEEOT_OT0_
FN:901,903,_ZNSt4pairI7QStringS0_EC2IRS0_S3_Lb1EEEOT_OT0_
FN:901,903,_ZNSt4pairI7QStringiEC2IRA19_KciLb1EEEOT_OT0_
FN:901,903,_ZNSt4pairI7QStringiEC2IRA22_KciLb1EEEOT_OT0_
FN:901,903,_ZNSt4pairI7QStringiEC2IRA25_KciLb1EEEOT_OT0_
FN:901,903,_ZNSt4pairI7QStringiEC2IRA27_KciLb1EEEOT_OT0_
FN:901,903,_ZNSt4pairI7QStringiEC2IRA28_KciLb1EEEOT_OT0_
FN:901,903,_ZNSt4pairIK7QStringN6optikg12AppConstants14EntityTypeInfoEEC2IRS1_S4_Lb1EEEOT_OT0_
FN:901,903,_ZNSt4pairIK7QStringN6optikg6TripleEEC2IRS1_S3_Lb1EEEOT_OT0_
FN:901,903,_ZNSt4pairIKi7QStringEC2IRS0_S1_Lb1EEEOT_OT0_
FN:901,903,_ZNSt4pairIP15QTypedArrayDataI26QTableWidgetSelectionRangeEPS1_EC2IS3_S4_Lb1EEEOT_OT0_
FN:901,903,_ZNSt4pairIP15QTypedArrayDataI5QListI8QVariantEEPS3_EC2IS5_S6_Lb1EEEOT_OT0_
FN:901,903,_ZNSt4pairIP15QTypedArrayDataI5QListIN6optikg16ExtractionRecordEEEPS4_EC2IS6_S7_Lb1EEEOT_OT0_
FN:901,903,_ZNSt4pairIP15QTypedArrayDataI7QStringEPS1_EC2IS3_S4_Lb1EEEOT_OT0_
FN:901,903,_ZNSt4pairIP15QTypedArrayDataI8QVariantEPS1_EC2IS3_S4_Lb1EEEOT_OT0_
FN:901,903,_ZNSt4pairIP15QTypedArrayDataI9QFileInfoEPS1_EC2IS3_S4_Lb1EEEOT_OT0_
FN:901,903,_ZNSt4pairIP15QTypedArrayDataIN6optikg10EntityTypeEEPS2_EC2IS4_S5_Lb1EEEOT_OT0_
FN:901,903,_ZNSt4pairIP15QTypedArrayDataIN6optikg16ExtractionRecordEEPS2_EC2IS4_S5_Lb1EEEOT_OT0_
FN:901,903,_ZNSt4pairIP15QTypedArrayDataIN6optikg17FileProcessResultEEPS2_EC2IS4_S5_Lb1EEEOT_OT0_
FN:901,903,_ZNSt4pairIP15QTypedArrayDataIN6optikg6EntityEEPS2_EC2IS4_S5_Lb1EEEOT_OT0_
FN:901,903,_ZNSt4pairIP15QTypedArrayDataIN6optikg6TripleEEPS2_EC2IS4_S5_Lb1EEEOT_OT0_
FN:901,903,_ZNSt4pairIP15QTypedArrayDataIN6optikg9GraphEdgeEEPS2_EC2IS4_S5_Lb1EEEOT_OT0_
FN:901,903,_ZNSt4pairIP15QTypedArrayDataIN6optikg9GraphNodeEEPS2_EC2IS4_S5_Lb1EEEOT_OT0_
FN:901,903,_ZNSt4pairIP15QTypedArrayDataIP11QPushButtonEPS2_EC2IS4_S5_Lb1EEEOT_OT0_
FN:901,903,_ZNSt4pairIP15QTypedArrayDataIP13QGraphicsItemEPS2_EC2IS4_S5_Lb1EEEOT_OT0_
FN:901,903,_ZNSt4pairIP15QTypedArrayDataIP15QListWidgetItemEPS2_EC2IS4_S5_Lb1EEEOT_OT0_
FN:901,903,_ZNSt4pairIP15QTypedArrayDataIP6QLabelEPS2_EC2IS4_S5_Lb1EEEOT_OT0_
FN:901,903,_ZNSt4pairIP15QTypedArrayDataIP7QActionEPS2_EC2IS4_S5_Lb1EEEOT_OT0_
FN:901,903,_ZNSt4pairIP15QTypedArrayDataIP9QCheckBoxEPS2_EC2IS4_S5_Lb1EEEOT_OT0_
FN:901,903,_ZNSt4pairIP15QTypedArrayDataIP9QSplitterEPS2_EC2IS4_S5_Lb1EEEOT_OT0_
FN:901,903,_ZNSt4pairIP15QTypedArrayDataIPN6optikg9GraphEdgeEEPS3_EC2IS5_S6_Lb1EEEOT_OT0_
FN:901,903,_ZNSt4pairIP15QTypedArrayDataIS_I7QString6QColorEEPS3_EC2IS5_S6_Lb1EEEOT_OT0_
FN:901,903,_ZNSt4pairIP15QTypedArrayDataIS_I7QStringS1_EEPS2_EC2IS4_S5_Lb1EEEOT_OT0_
FN:901,903,_ZNSt4pairIP15QTypedArrayDataIS_I7QStringiEEPS2_EC2IS4_S5_Lb1EEEOT_OT0_
FN:901,903,_ZNSt4pairIP15QTypedArrayDataIiEPiEC2IS2_S3_Lb1EEEOT_OT0_
FN:901,903,_ZNSt4pairIP15QTypedArrayDataIxEPxEC2IS2_S3_Lb1EEEOT_OT0_
FN:901,903,_ZNSt4pairIPSt18_Rb_tree_node_baseS1_EC2IRS1_S1_Lb1EEEOT_OT0_
FN:901,903,_ZNSt4pairIPSt18_Rb_tree_node_baseS1_EC2IRS1_S4_Lb1EEEOT_OT0_
FN:901,903,_ZNSt4pairIPSt18_Rb_tree_node_baseS1_EC2IS1_RS1_Lb1EEEOT_OT0_
FN:901,903,_ZNSt4pairISt17_Rb_tree_iteratorIS_IK7QStringN6optikg12AppConstants14EntityTypeInfoEEEbEC2IS7_bLb1EEEOT_OT0_
FN:901,903,_ZNSt4pairISt17_Rb_tree_iteratorIS_IK7QStringN6optikg6TripleEEEbEC2IRS6_bLb1EEEOT_OT0_
FN:901,903,_ZNSt4pairISt17_Rb_tree_iteratorIS_IK7QStringN6optikg6TripleEEEbEC2IS6_bLb1EEEOT_OT0_
FN:901,903,_ZNSt4pairISt17_Rb_tree_iteratorIS_IKi7QStringEEbEC2IS4_bLb1EEEOT_OT0_
FN:901,903,_ZNSt4pairISt17_Rb_tree_iteratorIS_IKiN12QtConcurrent19IntermediateResultsIN6optikg16ExtractionRecordEEEEEbEC2IRS8_bLb1EEEOT_OT0_
FNDA:36,_ZSteqI7QStringN6optikg10EntityTypeEEbRKSt4pairIT_T0_ES8_
FNDA:52,_ZSteqI7QStringS0_EbRKSt4pairIT_T0_ES6_
FNDA:32,_ZSt9make_pairIR7QStringS1_ESt4pairINSt25__strip_reference_wrapperINSt5decayIT_E4typeEE6__typeENS3_INS4_IT0_E4typeEE6__typeEEOS5_OSA_
FNDA:36,_ZSt9make_pairIRK7QStringRKN6optikg10EntityTypeEESt4pairINSt25__strip_reference_wrapperINSt5decayIT_E4typeEE6__typeENS8_INS9_IT0_E4typeEE6__typeEEOSA_OSF_
FNDA:36,_ZSt9make_pairIRK7QStringS2_ESt4pairINSt25__strip_reference_wrapperINSt5decayIT_E4typeEE6__typeENS4_INS5_IT0_E4typeEE6__typeEEOS6_OSB_
FNDA:0,_ZNSt10__pair_getILm0EE10__move_getIP15QTypedArrayDataI26QTableWidgetSelectionRangeEPS3_EEOT_OSt4pairIS7_T0_E
FNDA:0,_ZNSt10__pair_getILm0EE10__move_getIP15QTypedArrayDataI5QListI8QVariantEEPS5_EEOT_OSt4pairIS9_T0_E
FNDA:0,_ZNSt10__pair_getILm0EE10__move_getIP15QTypedArrayDataI5QListIN6optikg16ExtractionRecordEEEPS6_EEOT_OSt4pairISA_T0_E
FNDA:17,_ZNSt10__pair_getILm0EE10__move_getIP15QTypedArrayDataI7QStringEPS3_EEOT_OSt4pairIS7_T0_E
FNDA:12,_ZNSt10__pair_getILm0EE10__move_getIP15QTypedArrayDataI8QVariantEPS3_EEOT_OSt4pairIS7_T0_E
FNDA:0,_ZNSt10__pair_getILm0EE10__move_getIP15QTypedArrayDataI9QFileInfoEPS3_EEOT_OSt4pairIS7_T0_E
FNDA:0,_ZNSt10__pair_getILm0EE10__move_getIP15QTypedArrayDataIN6optikg10EntityTypeEEPS4_EEOT_OSt4pairIS8_T0_E
FNDA:142,_ZNSt10__pair_getILm0EE10__move_getIP15QTypedArrayDataIN6optikg16ExtractionRecordEEPS4_EEOT_OSt4pairIS8_T0_E
FNDA:34,_ZNSt10__pair_getILm0EE10__move_getIP15QTypedArrayDataIN6optikg17FileProcessResultEEPS4_EEOT_OSt4pairIS8_T0_E
FNDA:0,_ZNSt10__pair_getILm0EE10__move_getIP15QTypedArrayDataIN6optikg6EntityEEPS4_EEOT_OSt4pairIS8_T0_E
FNDA:510,_ZNSt10__pair_getILm0EE10__move_getIP15QTypedArrayDataIN6optikg6TripleEEPS4_EEOT_OSt4pairIS8_T0_E
FNDA:15,_ZNSt10__pair_getILm0EE10__move_getIP15QTypedArrayDataIN6optikg9GraphEdgeEEPS4_EEOT_OSt4pairIS8_T0_E
FNDA:70,_ZNSt10__pair_getILm0EE10__move_getIP15QTypedArrayDataIN6optikg9GraphNodeEEPS4_EEOT_OSt4pairIS8_T0_E
FNDA:0,_ZNSt10__pair_getILm0EE10__move_getIP15QTypedArrayDataIP11QPushButtonEPS4_EEOT_OSt4pairIS8_T0_E
FNDA:0,_ZNSt10__pair_getILm0EE10__move_getIP15QTypedArrayDataIP13QGraphicsItemEPS4_EEOT_OSt4pairIS8_T0_E
FNDA:0,_ZNSt10__pair_getILm0EE10__move_getIP15QTypedArrayDataIP15QListWidgetItemEPS4_EEOT_OSt4pairIS8_T0_E
FNDA:0,_ZNSt10__pair_getILm0EE10__move_getIP15QTypedArrayDataIP6QLabelEPS4_EEOT_OSt4pairIS8_T0_E
FNDA:2,_ZNSt10__pair_getILm0EE10__move_getIP15QTypedArrayDataIP7QActionEPS4_EEOT_OSt4pairIS8_T0_E
FNDA:0,_ZNSt10__pair_getILm0EE10__move_getIP15QTypedArrayDataIP9QCheckBoxEPS4_EEOT_OSt4pairIS8_T0_E
FNDA:0,_ZNSt10__pair_getILm0EE10__move_getIP15QTypedArrayDataIP9QSplitterEPS4_EEOT_OSt4pairIS8_T0_E
FNDA:3768,_ZNSt10__pair_getILm0EE10__move_getIP15QTypedArrayDataIPN6optikg9GraphEdgeEEPS5_EEOT_OSt4pairIS9_T0_E
FNDA:26,_ZNSt10__pair_getILm0EE10__move_getIP15QTypedArrayDataISt4pairI7QString6QColorEEPS6_EEOT_OS3_ISA_T0_E
FNDA:0,_ZNSt10__pair_getILm0EE10__move_getIP15QTypedArrayDataISt4pairI7QStringS4_EEPS5_EEOT_OS3_IS9_T0_E
FNDA:0,_ZNSt10__pair_getILm0EE10__move_getIP15QTypedArrayDataISt4pairI7QStringiEEPS5_EEOT_OS3_IS9_T0_E
FNDA:40,_ZNSt10__pair_getILm0EE10__move_getIP15QTypedArrayDataIiEPiEEOT_OSt4pairIS6_T0_E
FNDA:0,_ZNSt10__pair_getILm0EE10__move_getIP15QTypedArrayDataIxEPxEEOT_OSt4pairIS6_T0_E
FNDA:0,_ZNSt10__pair_getILm1EE10__move_getIP15QTypedArrayDataI26QTableWidgetSelectionRangeEPS3_EEOT0_OSt4pairIT_S7_E
FNDA:0,_ZNSt10__pair_getILm1EE10__move_getIP15QTypedArrayDataI5QListI8QVariantEEPS5_EEOT0_OSt4pairIT_S9_E
FNDA:0,_ZNSt10__pair_getILm1EE10__move_getIP15QTypedArrayDataI5QListIN6optikg16ExtractionRecordEEEPS6_EEOT0_OSt4pairIT_SA_E
FNDA:17,_ZNSt10__pair_getILm1EE10__move_getIP15QTypedArrayDataI7QStringEPS3_EEOT0_OSt4pairIT_S7_E
FNDA:12,_ZNSt10__pair_getILm1EE10__move_getIP15QTypedArrayDataI8QVariantEPS3_EEOT0_OSt4pairIT_S7_E
FNDA:0,_ZNSt10__pair_getILm1EE10__move_getIP15QTypedArrayDataI9QFileInfoEPS3_EEOT0_OSt4pairIT_S7_E
FNDA:0,_ZNSt10__pair_getILm1EE10__move_getIP15QTypedArrayDataIN6optikg10EntityTypeEEPS4_EEOT0_OSt4pairIT_S8_E
FNDA:142,_ZNSt10__pair_getILm1EE10__move_getIP15QTypedArrayDataIN6optikg16ExtractionRecordEEPS4_EEOT0_OSt4pairIT_S8_E
FNDA:34,_ZNSt10__pair_getILm1EE10__move_getIP15QTypedArrayDataIN6optikg17FileProcessResultEEPS4_EEOT0_OSt4pairIT_S8_E
FNDA:0,_ZNSt10__pair_getILm1EE10__move_getIP15QTypedArrayDataIN6optikg6EntityEEPS4_EEOT0_OSt4pairIT_S8_E
FNDA:510,_ZNSt10__pair_getILm1EE10__move_getIP15QTypedArrayDataIN6optikg6TripleEEPS4_EEOT0_OSt4pairIT_S8_E
FNDA:15,_ZNSt10__pair_getILm1EE10__move_getIP15QTypedArrayDataIN6optikg9GraphEdgeEEPS4_EEOT0_OSt4pairIT_S8_E
FNDA:70,_ZNSt10__pair_getILm1EE10__move_getIP15QTypedArrayDataIN6optikg9GraphNodeEEPS4_EEOT0_OSt4pairIT_S8_E
FNDA:0,_ZNSt10__pair_getILm1EE10__move_getIP15QTypedArrayDataIP11QPushButtonEPS4_EEOT0_OSt4pairIT_S8_E
FNDA:0,_ZNSt10__pair_getILm1EE10__move_getIP15QTypedArrayDataIP13QGraphicsItemEPS4_EEOT0_OSt4pairIT_S8_E
FNDA:0,_ZNSt10__pair_getILm1EE10__move_getIP15QTypedArrayDataIP15QListWidgetItemEPS4_EEOT0_OSt4pairIT_S8_E
FNDA:0,_ZNSt10__pair_getILm1EE10__move_getIP15QTypedArrayDataIP6QLabelEPS4_EEOT0_OSt4pairIT_S8_E
FNDA:2,_ZNSt10__pair_getILm1EE10__move_getIP15QTypedArrayDataIP7QActionEPS4_EEOT0_OSt4pairIT_S8_E
FNDA:0,_ZNSt10__pair_getILm1EE10__move_getIP15QTypedArrayDataIP9QCheckBoxEPS4_EEOT0_OSt4pairIT_S8_E
FNDA:0,_ZNSt10__pair_getILm1EE10__move_getIP15QTypedArrayDataIP9QSplitterEPS4_EEOT0_OSt4pairIT_S8_E
FNDA:3768,_ZNSt10__pair_getILm1EE10__move_getIP15QTypedArrayDataIPN6optikg9GraphEdgeEEPS5_EEOT0_OSt4pairIT_S9_E
FNDA:26,_ZNSt10__pair_getILm1EE10__move_getIP15QTypedArrayDataISt4pairI7QString6QColorEEPS6_EEOT0_OS3_IT_SA_E
FNDA:0,_ZNSt10__pair_getILm1EE10__move_getIP15QTypedArrayDataISt4pairI7QStringS4_EEPS5_EEOT0_OS3_IT_S9_E
FNDA:0,_ZNSt10__pair_getILm1EE10__move_getIP15QTypedArrayDataISt4pairI7QStringiEEPS5_EEOT0_OS3_IT_S9_E
FNDA:40,_ZNSt10__pair_getILm1EE10__move_getIP15QTypedArrayDataIiEPiEEOT0_OSt4pairIT_S6_E
FNDA:0,_ZNSt10__pair_getILm1EE10__move_getIP15QTypedArrayDataIxEPxEEOT0_OSt4pairIT_S6_E
FNDA:0,_ZSt3getILm0EP15QTypedArrayDataI26QTableWidgetSelectionRangeEPS1_EONSt13tuple_elementIXT_ESt4pairIT0_T1_EE4typeEOS9_
FNDA:0,_ZSt3getILm0EP15QTypedArrayDataI5QListI8QVariantEEPS3_EONSt13tuple_elementIXT_ESt4pairIT0_T1_EE4typeEOSB_
FNDA:0,_ZSt3getILm0EP15QTypedArrayDataI5QListIN6optikg16ExtractionRecordEEEPS4_EONSt13tuple_elementIXT_ESt4pairIT0_T1_EE4typeEOSC_
FNDA:17,_ZSt3getILm0EP15QTypedArrayDataI7QStringEPS1_EONSt13tuple_elementIXT_ESt4pairIT0_T1_EE4typeEOS9_
FNDA:12,_ZSt3getILm0EP15QTypedArrayDataI8QVariantEPS1_EONSt13tuple_elementIXT_ESt4pairIT0_T1_EE4typeEOS9_
FNDA:0,_ZSt3getILm0EP15QTypedArrayDataI9QFileInfoEPS1_EONSt13tuple_elementIXT_ESt4pairIT0_T1_EE4typeEOS9_
FNDA:0,_ZSt3getILm0EP15QTypedArrayDataIN6optikg10EntityTypeEEPS2_EONSt13tuple_elementIXT_ESt4pairIT0_T1_EE4typeEOSA_
FNDA:142,_ZSt3getILm0EP15QTypedArrayDataIN6optikg16ExtractionRecordEEPS2_EONSt13tuple_elementIXT_ESt4pairIT0_T1_EE4typeEOSA_
FNDA:34,_ZSt3getILm0EP15QTypedArrayDataIN6optikg17FileProcessResultEEPS2_EONSt13tuple_elementIXT_ESt4pairIT0_T1_EE4typeEOSA_
FNDA:0,_ZSt3getILm0EP15QTypedArrayDataIN6optikg6EntityEEPS2_EONSt13tuple_elementIXT_ESt4pairIT0_T1_EE4typeEOSA_
FNDA:510,_ZSt3getILm0EP15QTypedArrayDataIN6optikg6TripleEEPS2_EONSt13tuple_elementIXT_ESt4pairIT0_T1_EE4typeEOSA_
FNDA:15,_ZSt3getILm0EP15QTypedArrayDataIN6optikg9GraphEdgeEEPS2_EONSt13tuple_elementIXT_ESt4pairIT0_T1_EE4typeEOSA_
FNDA:70,_ZSt3getILm0EP15QTypedArrayDataIN6optikg9GraphNodeEEPS2_EONSt13tuple_elementIXT_ESt4pairIT0_T1_EE4typeEOSA_
FNDA:0,_ZSt3getILm0EP15QTypedArrayDataIP11QPushButtonEPS2_EONSt13tuple_elementIXT_ESt4pairIT0_T1_EE4typeEOSA_
FNDA:0,_ZSt3getILm0EP15QTypedArrayDataIP13QGraphicsItemEPS2_EONSt13tuple_elementIXT_ESt4pairIT0_T1_EE4typeEOSA_
FNDA:0,_ZSt3getILm0EP15QTypedArrayDataIP15QListWidgetItemEPS2_EONSt13tuple_elementIXT_ESt4pairIT0_T1_EE4typeEOSA_
FNDA:0,_ZSt3getILm0EP15QTypedArrayDataIP6QLabelEPS2_EONSt13tuple_elementIXT_ESt4pairIT0_T1_EE4typeEOSA_
FNDA:2,_ZSt3getILm0EP15QTypedArrayDataIP7QActionEPS2_EONSt13tuple_elementIXT_ESt4pairIT0_T1_EE4typeEOSA_
FNDA:0,_ZSt3getILm0EP15QTypedArrayDataIP9QCheckBoxEPS2_EONSt13tuple_elementIXT_ESt4pairIT0_T1_EE4typeEOSA_
FNDA:0,_ZSt3getILm0EP15QTypedArrayDataIP9QSplitterEPS2_EONSt13tuple_elementIXT_ESt4pairIT0_T1_EE4typeEOSA_
FNDA:3768,_ZSt3getILm0EP15QTypedArrayDataIPN6optikg9GraphEdgeEEPS3_EONSt13tuple_elementIXT_ESt4pairIT0_T1_EE4typeEOSB_
FNDA:26,_ZSt3getILm0EP15QTypedArrayDataISt4pairI7QString6QColorEEPS4_EONSt13tuple_elementIXT_ES1_IT0_T1_EE4typeEOSB_
FNDA:0,_ZSt3getILm0EP15QTypedArrayDataISt4pairI7QStringS2_EEPS3_EONSt13tuple_elementIXT_ES1_IT0_T1_EE4typeEOSA_
FNDA:0,_ZSt3getILm0EP15QTypedArrayDataISt4pairI7QStringiEEPS3_EONSt13tuple_elementIXT_ES1_IT0_T1_EE4typeEOSA_
FNDA:40,_ZSt3getILm0EP15QTypedArrayDataIiEPiEONSt13tuple_elementIXT_ESt4pairIT0_T1_EE4typeEOS8_
FNDA:0,_ZSt3getILm0EP15QTypedArrayDataIxEPxEONSt13tuple_elementIXT_ESt4pairIT0_T1_EE4typeEOS8_
FNDA:0,_ZSt3getILm1EP15QTypedArrayDataI26QTableWidgetSelectionRangeEPS1_EONSt13tuple_elementIXT_ESt4pairIT0_T1_EE4typeEOS9_
FNDA:0,_ZSt3getILm1EP15QTypedArrayDataI5QListI8QVariantEEPS3_EONSt13tuple_elementIXT_ESt4pairIT0_T1_EE4typeEOSB_
FNDA:0,_ZSt3getILm1EP15QTypedArrayDataI5QListIN6optikg16ExtractionRecordEEEPS4_EONSt13tuple_elementIXT_ESt4pairIT0_T1_EE4typeEOSC_
FNDA:17,_ZSt3getILm1EP15QTypedArrayDataI7QStringEPS1_EONSt13tuple_elementIXT_ESt4pairIT0_T1_EE4typeEOS9_
FNDA:12,_ZSt3getILm1EP15QTypedArrayDataI8QVariantEPS1_EONSt13tuple_elementIXT_ESt4pairIT0_T1_EE4typeEOS9_
FNDA:0,_ZSt3getILm1EP15QTypedArrayDataI9QFileInfoEPS1_EONSt13tuple_elementIXT_ESt4pairIT0_T1_EE4typeEOS9_
FNDA:0,_ZSt3getILm1EP15QTypedArrayDataIN6optikg10EntityTypeEEPS2_EONSt13tuple_elementIXT_ESt4pairIT0_T1_EE4typeEOSA_
FNDA:142,_ZSt3getILm1EP15QTypedArrayDataIN6optikg16ExtractionRecordEEPS2_EONSt13tuple_elementIXT_ESt4pairIT0_T1_EE4typeEOSA_
FNDA:34,_ZSt3getILm1EP15QTypedArrayDataIN6optikg17FileProcessResultEEPS2_EONSt13tuple_elementIXT_ESt4pairIT0_T1_EE4typeEOSA_
FNDA:0,_ZSt3getILm1EP15QTypedArrayDataIN6optikg6EntityEEPS2_EONSt13tuple_elementIXT_ESt4pairIT0_T1_EE4typeEOSA_
FNDA:510,_ZSt3getILm1EP15QTypedArrayDataIN6optikg6TripleEEPS2_EONSt13tuple_elementIXT_ESt4pairIT0_T1_EE4typeEOSA_
FNDA:15,_ZSt3getILm1EP15QTypedArrayDataIN6optikg9GraphEdgeEEPS2_EONSt13tuple_elementIXT_ESt4pairIT0_T1_EE4typeEOSA_
FNDA:70,_ZSt3getILm1EP15QTypedArrayDataIN6optikg9GraphNodeEEPS2_EONSt13tuple_elementIXT_ESt4pairIT0_T1_EE4typeEOSA_
FNDA:0,_ZSt3getILm1EP15QTypedArrayDataIP11QPushButtonEPS2_EONSt13tuple_elementIXT_ESt4pairIT0_T1_EE4typeEOSA_
FNDA:0,_ZSt3getILm1EP15QTypedArrayDataIP13QGraphicsItemEPS2_EONSt13tuple_elementIXT_ESt4pairIT0_T1_EE4typeEOSA_
FNDA:0,_ZSt3getILm1EP15QTypedArrayDataIP15QListWidgetItemEPS2_EONSt13tuple_elementIXT_ESt4pairIT0_T1_EE4typeEOSA_
FNDA:0,_ZSt3getILm1EP15QTypedArrayDataIP6QLabelEPS2_EONSt13tuple_elementIXT_ESt4pairIT0_T1_EE4typeEOSA_
FNDA:2,_ZSt3getILm1EP15QTypedArrayDataIP7QActionEPS2_EONSt13tuple_elementIXT_ESt4pairIT0_T1_EE4typeEOSA_
FNDA:0,_ZSt3getILm1EP15QTypedArrayDataIP9QCheckBoxEPS2_EONSt13tuple_elementIXT_ESt4pairIT0_T1_EE4typeEOSA_
FNDA:0,_ZSt3getILm1EP15QTypedArrayDataIP9QSplitterEPS2_EONSt13tuple_elementIXT_ESt4pairIT0_T1_EE4typeEOSA_
FNDA:3768,_ZSt3getILm1EP15QTypedArrayDataIPN6optikg9GraphEdgeEEPS3_EONSt13tuple_elementIXT_ESt4pairIT0_T1_EE4typeEOSB_
FNDA:26,_ZSt3getILm1EP15QTypedArrayDataISt4pairI7QString6QColorEEPS4_EONSt13tuple_elementIXT_ES1_IT0_T1_EE4typeEOSB_
FNDA:0,_ZSt3getILm1EP15QTypedArrayDataISt4pairI7QStringS2_EEPS3_EONSt13tuple_elementIXT_ES1_IT0_T1_EE4typeEOSA_
FNDA:0,_ZSt3getILm1EP15QTypedArrayDataISt4pairI7QStringiEEPS3_EONSt13tuple_elementIXT_ES1_IT0_T1_EE4typeEOSA_
FNDA:40,_ZSt3getILm1EP15QTypedArrayDataIiEPiEONSt13tuple_elementIXT_ESt4pairIT0_T1_EE4typeEOS8_
FNDA:0,_ZSt3getILm1EP15QTypedArrayDataIxEPxEONSt13tuple_elementIXT_ESt4pairIT0_T1_EE4typeEOS8_
FNDA:0,_ZNSt4pairI7QString6QColorEC2ERKS2_
FNDA:36,_ZNSt4pairI7QStringN6optikg10EntityTypeEEC2ERKS3_
FNDA:28,_ZNSt4pairI7QStringS0_EC2ERKS1_
FNDA:14,_ZNSt4pairI7QStringiEC2ERKS1_
FNDA:0,_ZNSt4pairIK7QStringN6optikg12AppConstants14EntityTypeInfoEEC2ERKS5_
FNDA:0,_ZNSt4pairIK7QStringN6optikg6TripleEEC2ERKS4_
FNDA:0,_ZNSt4pairIKi7QStringEC2ERKS2_
FNDA:0,_ZNSt4pairIKiN12QtConcurrent19IntermediateResultsIN6optikg16ExtractionRecordEEEEC2ERKS6_
FNDA:182,_ZNSt4pairI7QString6QColorEC2EOS2_
FNDA:16,_ZNSt4pairI7QStringS0_EC2EOS1_
FNDA:0,_ZNSt4pairI7QStringiEC2EOS1_
FNDA:0,_ZNSt4pairIK7QStringN6optikg12AppConstants14EntityTypeInfoEEC2EOS5_
FNDA:0,_ZNSt4pairIK7QStringN6optikg6TripleEEC2EOS4_
FNDA:220,_ZNSt4pairIKi7QStringEC2EOS2_
FNDA:36,_ZNSt4pairI7QStringN6optikg10EntityTypeEEC2IS0_S2_Lb1EEERKS0_RKS2_
FNDA:36,_ZNSt4pairI7QStringS0_EC2IS0_S0_Lb1EEERKS0_S4_
FNDA:0,_ZNSt4pairIRKPN6optikg16ExtractionRecordES4_EC2IS4_S4_Lb1EEES4_S4_
FNDA:0,_ZNSt4pairIRKPN6optikg17FileProcessResultES4_EC2IS4_S4_Lb1EEES4_S4_
FNDA:0,_ZNSt4pairIRKPN6optikg6EntityES4_EC2IS4_S4_Lb1EEES4_S4_
FNDA:0,_ZNSt4pairIRKPN6optikg6TripleES4_EC2IS4_S4_Lb1EEES4_S4_
FNDA:0,_ZNSt4pairIRKPN6optikg9GraphEdgeES4_EC2IS4_S4_Lb1EEES4_S4_
FNDA:0,_ZNSt4pairIRKPN6optikg9GraphNodeES4_EC2IS4_S4_Lb1EEES4_S4_
FNDA:0,_ZNSt4pairIRKSt16reverse_iteratorIPN6optikg16ExtractionRecordEES6_EC2IS6_S6_Lb1EEES6_S6_
FNDA:0,_ZNSt4pairIRKSt16reverse_iteratorIPN6optikg17FileProcessResultEES6_EC2IS6_S6_Lb1EEES6_S6_
FNDA:0,_ZNSt4pairIRKSt16reverse_iteratorIPN6optikg6EntityEES6_EC2IS6_S6_Lb1EEES6_S6_
FNDA:0,_ZNSt4pairIRKSt16reverse_iteratorIPN6optikg6TripleEES6_EC2IS6_S6_Lb1EEES6_S6_
FNDA:0,_ZNSt4pairIRKSt16reverse_iteratorIPN6optikg9GraphEdgeEES6_EC2IS6_S6_Lb1EEES6_S6_
FNDA:0,_ZNSt4pairIRKSt16reverse_iteratorIPN6optikg9GraphNodeEES6_EC2IS6_S6_Lb1EEES6_S6_
FNDA:80,_ZNSt4pairI7QString6QColorEC2IRA7_KcS1_Lb1EEEOT_OT0_
FNDA:104,_ZNSt4pairI7QString6QColorEC2IS0_S1_Lb1EEEOT_OT0_
FNDA:2,_ZNSt4pairI7QStringS0_EC2IRA6_KcRA16_S3_Lb1EEEOT_OT0_
FNDA:6,_ZNSt4pairI7QStringS0_EC2IRA6_KcRA19_S3_Lb1EEEOT_OT0_
FNDA:2,_ZNSt4pairI7QStringS0_EC2IRA6_KcRA22_S3_Lb1EEEOT_OT0_
FNDA:2,_ZNSt4pairI7QStringS0_EC2IRA6_KcRA30_S3_Lb1EEEOT_OT0_
FNDA:32,_ZNSt4pairI7QStringS0_EC2IRS0_S3_Lb1EEEOT_OT0_
FNDA:6,_ZNSt4pairI7QStringiEC2IRA19_KciLb1EEEOT_OT0_
FNDA:2,_ZNSt4pairI7QStringiEC2IRA22_KciLb1EEEOT_OT0_
FNDA:2,_ZNSt4pairI7QStringiEC2IRA25_KciLb1EEEOT_OT0_
FNDA:2,_ZNSt4pairI7QStringiEC2IRA27_KciLb1EEEOT_OT0_
FNDA:2,_ZNSt4pairI7QStringiEC2IRA28_KciLb1EEEOT_OT0_
FNDA:0,_ZNSt4pairIK7QStringN6optikg12AppConstants14EntityTypeInfoEEC2IRS1_S4_Lb1EEEOT_OT0_
FNDA:0,_ZNSt4pairIK7QStringN6optikg6TripleEEC2IRS1_S3_Lb1EEEOT_OT0_
FNDA:220,_ZNSt4pairIKi7QStringEC2IRS0_S1_Lb1EEEOT_OT0_
FNDA:0,_ZNSt4pairIP15QTypedArrayDataI26QTableWidgetSelectionRangeEPS1_EC2IS3_S4_Lb1EEEOT_OT0_
FNDA:0,_ZNSt4pairIP15QTypedArrayDataI5QListI8QVariantEEPS3_EC2IS5_S6_Lb1EEEOT_OT0_
FNDA:0,_ZNSt4pairIP15QTypedArrayDataI5QListIN6optikg16ExtractionRecordEEEPS4_EC2IS6_S7_Lb1EEEOT_OT0_
FNDA:237,_ZNSt4pairIP15QTypedArrayDataI7QStringEPS1_EC2IS3_S4_Lb1EEEOT_OT0_
FNDA:22,_ZNSt4pairIP15QTypedArrayDataI8QVariantEPS1_EC2IS3_S4_Lb1EEEOT_OT0_
FNDA:0,_ZNSt4pairIP15QTypedArrayDataI9QFileInfoEPS1_EC2IS3_S4_Lb1EEEOT_OT0_
FNDA:26,_ZNSt4pairIP15QTypedArrayDataIN6optikg10EntityTypeEEPS2_EC2IS4_S5_Lb1EEEOT_OT0_
FNDA:142,_ZNSt4pairIP15QTypedArrayDataIN6optikg16ExtractionRecordEEPS2_EC2IS4_S5_Lb1EEEOT_OT0_
FNDA:34,_ZNSt4pairIP15QTypedArrayDataIN6optikg17FileProcessResultEEPS2_EC2IS4_S5_Lb1EEEOT_OT0_
FNDA:0,_ZNSt4pairIP15QTypedArrayDataIN6optikg6EntityEEPS2_EC2IS4_S5_Lb1EEEOT_OT0_
FNDA:513,_ZNSt4pairIP15QTypedArrayDataIN6optikg6TripleEEPS2_EC2IS4_S5_Lb1EEEOT_OT0_
FNDA:15,_ZNSt4pairIP15QTypedArrayDataIN6optikg9GraphEdgeEEPS2_EC2IS4_S5_Lb1EEEOT_OT0_
FNDA:70,_ZNSt4pairIP15QTypedArrayDataIN6optikg9GraphNodeEEPS2_EC2IS4_S5_Lb1EEEOT_OT0_
FNDA:0,_ZNSt4pairIP15QTypedArrayDataIP11QPushButtonEPS2_EC2IS4_S5_Lb1EEEOT_OT0_
FNDA:0,_ZNSt4pairIP15QTypedArrayDataIP13QGraphicsItemEPS2_EC2IS4_S5_Lb1EEEOT_OT0_
FNDA:0,_ZNSt4pairIP15QTypedArrayDataIP15QListWidgetItemEPS2_EC2IS4_S5_Lb1EEEOT_OT0_
FNDA:0,_ZNSt4pairIP15QTypedArrayDataIP6QLabelEPS2_EC2IS4_S5_Lb1EEEOT_OT0_
FNDA:2,_ZNSt4pairIP15QTypedArrayDataIP7QActionEPS2_EC2IS4_S5_Lb1EEEOT_OT0_
FNDA:0,_ZNSt4pairIP15QTypedArrayDataIP9QCheckBoxEPS2_EC2IS4_S5_Lb1EEEOT_OT0_
FNDA:0,_ZNSt4pairIP15QTypedArrayDataIP9QSplitterEPS2_EC2IS4_S5_Lb1EEEOT_OT0_
FNDA:3768,_ZNSt4pairIP15QTypedArrayDataIPN6optikg9GraphEdgeEEPS3_EC2IS5_S6_Lb1EEEOT_OT0_
FNDA:78,_ZNSt4pairIP15QTypedArrayDataIS_I7QString6QColorEEPS3_EC2IS5_S6_Lb1EEEOT_OT0_
FNDA:2,_ZNSt4pairIP15QTypedArrayDataIS_I7QStringS1_EEPS2_EC2IS4_S5_Lb1EEEOT_OT0_
FNDA:2,_ZNSt4pairIP15QTypedArrayDataIS_I7QStringiEEPS2_EC2IS4_S5_Lb1EEEOT_OT0_
FNDA:42,_ZNSt4pairIP15QTypedArrayDataIiEPiEC2IS2_S3_Lb1EEEOT_OT0_
FNDA:6,_ZNSt4pairIP15QTypedArrayDataIxEPxEC2IS2_S3_Lb1EEEOT_OT0_
FNDA:0,_ZNSt4pairIPSt18_Rb_tree_node_baseS1_EC2IRS1_S1_Lb1EEEOT_OT0_
FNDA:223,_ZNSt4pairIPSt18_Rb_tree_node_baseS1_EC2IRS1_S4_Lb1EEEOT_OT0_
FNDA:1,_ZNSt4pairIPSt18_Rb_tree_node_baseS1_EC2IS1_RS1_Lb1EEEOT_OT0_
FNDA:0,_ZNSt4pairISt17_Rb_tree_iteratorIS_IK7QStringN6optikg12AppConstants14EntityTypeInfoEEEbEC2IS7_bLb1EEEOT_OT0_
FNDA:4,_ZNSt4pairISt17_Rb_tree_iteratorIS_IK7QStringN6optikg6TripleEEEbEC2IRS6_bLb1EEEOT_OT0_
FNDA:0,_ZNSt4pairISt17_Rb_tree_iteratorIS_IK7QStringN6optikg6TripleEEEbEC2IS6_bLb1EEEOT_OT0_
FNDA:220,_ZNSt4pairISt17_Rb_tree_iteratorIS_IKi7QStringEEbEC2IS4_bLb1EEEOT_OT0_
FNDA:0,_ZNSt4pairISt17_Rb_tree_iteratorIS_IKiN12QtConcurrent19IntermediateResultsIN6optikg16ExtractionRecordEEEEEbEC2IRS8_bLb1EEEOT_OT0_
FNF:186
FNH:89
DA:312,78
DA:313,418
DA:772,72
DA:773,72
DA:901,5869
DA:902,6375
DA:903,5869
DA:1060,88
DA:1061,88
DA:1164,104
DA:1169,208
DA:1238,4636
DA:1239,9272
DA:1262,4636
DA:1263,9272
DA:1288,9272
DA:1289,9272
LF:17
LH:17
end_of_record
TN:
SF:/usr/include/c++/15/bits/stl_tree.h
FN:1130,1131,_ZNSt8_Rb_treeI7QStringSt4pairIKS0_N6optikg12AppConstants14EntityTypeInfoEESt10_Select1stIS6_ESt4lessIS0_ESaIS6_EE11_Alloc_nodeC2ERSC_
FN:1130,1131,_ZNSt8_Rb_treeI7QStringSt4pairIKS0_N6optikg6TripleEESt10_Select1stIS5_ESt4lessIS0_ESaIS5_EE11_Alloc_nodeC2ERSB_
FN:1130,1131,_ZNSt8_Rb_treeIiSt4pairIKi7QStringESt10_Select1stIS3_ESt4lessIiESaIS3_EE11_Alloc_nodeC2ERS9_
FN:1130,1131,_ZNSt8_Rb_treeIiSt4pairIKiN12QtConcurrent19IntermediateResultsIN6optikg16ExtractionRecordEEEESt10_Select1stIS7_ESt4lessIiESaIS7_EE11_Alloc_nodeC2ERSD_
FN:1135,1136,_ZNKSt8_Rb_treeI7QStringSt4pairIKS0_N6optikg12AppConstants14EntityTypeInfoEESt10_Select1stIS6_ESt4lessIS0_ESaIS6_EE11_Alloc_nodeclIRKS6_EEPSt13_Rb_tree_nodeIS6_EOT_
FN:1135,1136,_ZNKSt8_Rb_treeI7QStringSt4pairIKS0_N6optikg12AppConstants14EntityTypeInfoEESt10_Select1stIS6_ESt4lessIS0_ESaIS6_EE11_Alloc_nodeclIS6_EEPSt13_Rb_tree_nodeIS6_EOT_
FN:1135,1136,_ZNKSt8_Rb_treeI7QStringSt4pairIKS0_N6optikg6TripleEESt10_Select1stIS5_ESt4lessIS0_ESaIS5_EE11_Alloc_nodeclIRKS5_EEPSt13_Rb_tree_nodeIS5_EOT_
FN:1135,1136,_ZNKSt8_Rb_treeI7QStringSt4pairIKS0_N6optikg6TripleEESt10_Select1stIS5_ESt4lessIS0_ESaIS5_EE11_Alloc_nodeclIS5_EEPSt13_Rb_tree_nodeIS5_EOT_
FN:1135,1136,_ZNKSt8_Rb_treeIiSt4pairIKi7QStringESt10_Select1stIS3_ESt4lessIiESaIS3_EE11_Alloc_nodeclIRKS3_EEPSt13_Rb_tree_nodeIS3_EOT_
FN:1135,1136,_ZNKSt8_Rb_treeIiSt4pairIKi7QStringESt10_Select1stIS3_ESt4lessIiESaIS3_EE11_Alloc_nodeclIS3_EEPSt13_Rb_tree_nodeIS3_EOT_
FN:1135,1136,_ZNKSt8_Rb_treeIiSt4pairIKiN12QtConcurrent19IntermediateResultsIN6optikg16ExtractionRecordEEEESt10_Select1stIS7_ESt4lessIiESaIS7_EE11_Alloc_nodeclIRKS7_EEPSt13_Rb_tree_nodeIS7_EOT_
FN:1154,1155,_ZNSt8_Rb_treeI7QStringSt4pairIKS0_N6optikg12AppConstants14EntityTypeInfoEESt10_Select1stIS6_ESt4lessIS0_ESaIS6_EE21_M_get_Node_allocatorEv
FN:1154,1155,_ZNSt8_Rb_treeI7QStringSt4pairIKS0_N6optikg6TripleEESt10_Select1stIS5_ESt4lessIS0_ESaIS5_EE21_M_get_Node_allocatorEv
FN:1154,1155,_ZNSt8_Rb_treeIiSt4pairIKi7QStringESt10_Select1stIS3_ESt4lessIiESaIS3_EE21_M_get_Node_allocatorEv
FN:1154,1155,_ZNSt8_Rb_treeIiSt4pairIKiN12QtConcurrent19IntermediateResultsIN6optikg16ExtractionRecordEEEESt10_Select1stIS7_ESt4lessIiESaIS7_EE21_M_get_Node_allocatorEv
FN:1154,1155,_ZNSt8_Rb_treeIiSt4pairIKiN9QtPrivate10ResultItemEESt10_Select1stIS4_ESt4lessIiESaIS4_EE21_M_get_Node_allocatorEv
FN:1167,1185,_ZNSt8_Rb_treeI7QStringSt4pairIKS0_N6optikg12AppConstants14EntityTypeInfoEESt10_Select1stIS6_ESt4lessIS0_ESaIS6_EE11_M_get_nodeEv
FN:1167,1185,_ZNSt8_Rb_treeI7QStringSt4pairIKS0_N6optikg6TripleEESt10_Select1stIS5_ESt4lessIS0_ESaIS5_EE11_M_get_nodeEv
FN:1167,1185,_ZNSt8_Rb_treeIiSt4pairIKi7QStringESt10_Select1stIS3_ESt4lessIiESaIS3_EE11_M_get_nodeEv
FN:1167,1185,_ZNSt8_Rb_treeIiSt4pairIKiN12QtConcurrent19IntermediateResultsIN6optikg16ExtractionRecordEEEESt10_Select1stIS7_ESt4lessIiESaIS7_EE11_M_get_nodeEv
FN:117,121,_ZNSt18_Rb_tree_node_base10_S_minimumEPS_
FN:1188,1207,_ZNSt8_Rb_treeI7QStringSt4pairIKS0_N6optikg12AppConstants14EntityTypeInfoEESt10_Select1stIS6_ESt4lessIS0_ESaIS6_EE11_M_put_nodeEPSt13_Rb_tree_nodeIS6_E
FN:1188,1207,_ZNSt8_Rb_treeI7QStringSt4pairIKS0_N6optikg6TripleEESt10_Select1stIS5_ESt4lessIS0_ESaIS5_EE11_M_put_nodeEPSt13_Rb_tree_nodeIS5_E
FN:1188,1207,_ZNSt8_Rb_treeIiSt4pairIKi7QStringESt10_Select1stIS3_ESt4lessIiESaIS3_EE11_M_put_nodeEPSt13_Rb_tree_nodeIS3_E
FN:1188,1207,_ZNSt8_Rb_treeIiSt4pairIKiN12QtConcurrent19IntermediateResultsIN6optikg16ExtractionRecordEEEESt10_Select1stIS7_ESt4lessIiESaIS7_EE11_M_put_nodeEPSt13_Rb_tree_nodeIS7_E
FN:1188,1207,_ZNSt8_Rb_treeIiSt4pairIKiN9QtPrivate10ResultItemEESt10_Select1stIS4_ESt4lessIiESaIS4_EE11_M_put_nodeEPSt13_Rb_tree_nodeIS4_E
FN:1232,1247,_ZNSt8_Rb_treeI7QStringSt4pairIKS0_N6optikg12AppConstants14EntityTypeInfoEESt10_Select1stIS6_ESt4lessIS0_ESaIS6_EE17_M_construct_nodeIJRKS6_EEEvPSt13_Rb_tree_nodeIS6_EDpOT_
FN:1232,1247,_ZNSt8_Rb_treeI7QStringSt4pairIKS0_N6optikg12AppConstants14EntityTypeInfoEESt10_Select1stIS6_ESt4lessIS0_ESaIS6_EE17_M_construct_nodeIJS6_EEEvPSt13_Rb_tree_nodeIS6_EDpOT_
FN:1232,1247,_ZNSt8_Rb_treeI7QStringSt4pairIKS0_N6optikg6TripleEESt10_Select1stIS5_ESt4lessIS0_ESaIS5_EE17_M_construct_nodeIJRKS5_EEEvPSt13_Rb_tree_nodeIS5_EDpOT_
FN:1232,1247,_ZNSt8_Rb_treeI7QStringSt4pairIKS0_N6optikg6TripleEESt10_Select1stIS5_ESt4lessIS0_ESaIS5_EE17_M_construct_nodeIJRKSt21piecewise_construct_tSt5tupleIJRS2_EESG_IJRKS4_EEEEEvPSt13_Rb_tree_nodeIS5_EDpOT_
FN:1232,1247,_ZNSt8_Rb_treeI7QStringSt4pairIKS0_N6optikg6TripleEESt10_Select1stIS5_ESt4lessIS0_ESaIS5_EE17_M_construct_nodeIJS5_EEEvPSt13_Rb_tree_nodeIS5_EDpOT_
FN:1232,1247,_ZNSt8_Rb_treeIiSt4pairIKi7QStringESt10_Select1stIS3_ESt4lessIiESaIS3_EE17_M_construct_nodeIJRKS3_EEEvPSt13_Rb_tree_nodeIS3_EDpOT_
FN:1232,1247,_ZNSt8_Rb_treeIiSt4pairIKi7QStringESt10_Select1stIS3_ESt4lessIiESaIS3_EE17_M_construct_nodeIJS3_EEEvPSt13_Rb_tree_nodeIS3_EDpOT_
FN:1232,1247,_ZNSt8_Rb_treeIiSt4pairIKiN12QtConcurrent19IntermediateResultsIN6optikg16ExtractionRecordEEEESt10_Select1stIS7_ESt4lessIiESaIS7_EE17_M_construct_nodeIJRKS7_EEEvPSt13_Rb_tree_nodeIS7_EDpOT_
FN:1232,1247,_ZNSt8_Rb_treeIiSt4pairIKiN12QtConcurrent19IntermediateResultsIN6optikg16ExtractionRecordEEEESt10_Select1stIS7_ESt4lessIiESaIS7_EE17_M_construct_nodeIJRKSt21piecewise_construct_tSt5tupleIJRS1_EESI_IJRKS6_EEEEEvPSt13_Rb_tree_nodeIS7_EDpOT_
FN:124,128,_ZNSt18_Rb_tree_node_base10_S_maximumEPS_
FN:1251,1256,_ZNSt8_Rb_treeI7QStringSt4pairIKS0_N6optikg12AppConstants14EntityTypeInfoEESt10_Select1stIS6_ESt4lessIS0_ESaIS6_EE14_M_create_nodeIJRKS6_EEEPSt13_Rb_tree_nodeIS6_EDpOT_
FN:1251,1256,_ZNSt8_Rb_treeI7QStringSt4pairIKS0_N6optikg12AppConstants14EntityTypeInfoEESt10_Select1stIS6_ESt4lessIS0_ESaIS6_EE14_M_create_nodeIJS6_EEEPSt13_Rb_tree_nodeIS6_EDpOT_
FN:1251,1256,_ZNSt8_Rb_treeI7QStringSt4pairIKS0_N6optikg6TripleEESt10_Select1stIS5_ESt4lessIS0_ESaIS5_EE14_M_create_nodeIJRKS5_EEEPSt13_Rb_tree_nodeIS5_EDpOT_
FN:1251,1256,_ZNSt8_Rb_treeI7QStringSt4pairIKS0_N6optikg6TripleEESt10_Select1stIS5_ESt4lessIS0_ESaIS5_EE14_M_create_nodeIJRKSt21piecewise_construct_tSt5tupleIJRS2_EESG_IJRKS4_EEEEEPSt13_Rb_tree_nodeIS5_EDpOT_
FN:1251,1256,_ZNSt8_Rb_treeI7QStringSt4pairIKS0_N6optikg6TripleEESt10_Select1stIS5_ESt4lessIS0_ESaIS5_EE14_M_create_nodeIJS5_EEEPSt13_Rb_tree_nodeIS5_EDpOT_
FN:1251,1256,_ZNSt8_Rb_treeIiSt4pairIKi7QStringESt10_Select1stIS3_ESt4lessIiESaIS3_EE14_M_create_nodeIJRKS3_EEEPSt13_Rb_tree_nodeIS3_EDpOT_
FN:1251,1256,_ZNSt8_Rb_treeIiSt4pairIKi7QStringESt10_Select1stIS3_ESt4lessIiESaIS3_EE14_M_create_nodeIJS3_EEEPSt13_Rb_tree_nodeIS3_EDpOT_
FN:1251,1256,_ZNSt8_Rb_treeIiSt4pairIKiN12QtConcurrent19IntermediateResultsIN6optikg16ExtractionRecordEEEESt10_Select1stIS7_ESt4lessIiESaIS7_EE14_M_create_nodeIJRKS7_EEEPSt13_Rb_tree_nodeIS7_EDpOT_
FN:1251,1256,_ZNSt8_Rb_treeIiSt4pairIKiN12QtConcurrent19IntermediateResultsIN6optikg16ExtractionRecordEEEESt10_Select1stIS7_ESt4lessIiESaIS7_EE14_M_create_nodeIJRKSt21piecewise_construct_tSt5tupleIJRS1_EESI_IJRKS6_EEEEEPSt13_Rb_tree_nodeIS7_EDpOT_
FN:1260,1268,_ZNSt8_Rb_treeI7QStringSt4pairIKS0_N6optikg12AppConstants14EntityTypeInfoEESt10_Select1stIS6_ESt4lessIS0_ESaIS6_EE15_M_destroy_nodeEPSt13_Rb_tree_nodeIS6_E
FN:1260,1268,_ZNSt8_Rb_treeI7QStringSt4pairIKS0_N6optikg6TripleEESt10_Select1stIS5_ESt4lessIS0_ESaIS5_EE15_M_destroy_nodeEPSt13_Rb_tree_nodeIS5_E
FN:1260,1268,_ZNSt8_Rb_treeIiSt4pairIKi7QStringESt10_Select1stIS3_ESt4lessIiESaIS3_EE15_M_destroy_nodeEPSt13_Rb_tree_nodeIS3_E
FN:1260,1268,_ZNSt8_Rb_treeIiSt4pairIKiN12QtConcurrent19IntermediateResultsIN6optikg16ExtractionRecordEEEESt10_Select1stIS7_ESt4lessIiESaIS7_EE15_M_destroy_nodeEPSt13_Rb_tree_nodeIS7_E
FN:1260,1268,_ZNSt8_Rb_treeIiSt4pairIKiN9QtPrivate10ResultItemEESt10_Select1stIS4_ESt4lessIiESaIS4_EE15_M_destroy_nodeEPSt13_Rb_tree_nodeIS4_E
FN:1271,1275,_ZNSt8_Rb_treeI7QStringSt4pairIKS0_N6optikg12AppConstants14EntityTypeInfoEESt10_Select1stIS6_ESt4lessIS0_ESaIS6_EE12_M_drop_nodeEPSt13_Rb_tree_nodeIS6_E
FN:1271,1275,_ZNSt8_Rb_treeI7QStringSt4pairIKS0_N6optikg6TripleEESt10_Select1stIS5_ESt4lessIS0_ESaIS5_EE12_M_drop_nodeEPSt13_Rb_tree_nodeIS5_E
FN:1271,1275,_ZNSt8_Rb_treeIiSt4pairIKi7QStringESt10_Select1stIS3_ESt4lessIiESaIS3_EE12_M_drop_nodeEPSt13_Rb_tree_nodeIS3_E
FN:1271,1275,_ZNSt8_Rb_treeIiSt4pairIKiN12QtConcurrent19IntermediateResultsIN6optikg16ExtractionRecordEEEESt10_Select1stIS7_ESt4lessIiESaIS7_EE12_M_drop_nodeEPSt13_Rb_tree_nodeIS7_E
FN:1271,1275,_ZNSt8_Rb_treeIiSt4pairIKiN9QtPrivate10ResultItemEESt10_Select1stIS4_ESt4lessIiESaIS4_EE12_M_drop_nodeEPSt13_Rb_tree_nodeIS4_E
FN:1279,1291,_ZNSt8_Rb_treeI7QStringSt4pairIKS0_N6optikg12AppConstants14EntityTypeInfoEESt10_Select1stIS6_ESt4lessIS0_ESaIS6_EE13_M_clone_nodeILb0ENSC_11_Alloc_nodeEEEPSt13_Rb_tree_nodeIS6_ESH_RT0_
FN:1279,1291,_ZNSt8_Rb_treeI7QStringSt4pairIKS0_N6optikg6TripleEESt10_Select1stIS5_ESt4lessIS0_ESaIS5_EE13_M_clone_nodeILb0ENSB_11_Alloc_nodeEEEPSt13_Rb_tree_nodeIS5_ESG_RT0_
FN:1279,1291,_ZNSt8_Rb_treeIiSt4pairIKi7QStringESt10_Select1stIS3_ESt4lessIiESaIS3_EE13_M_clone_nodeILb0ENS9_11_Alloc_nodeEEEPSt13_Rb_tree_nodeIS3_ESE_RT0_
FN:1279,1291,_ZNSt8_Rb_treeIiSt4pairIKiN12QtConcurrent19IntermediateResultsIN6optikg16ExtractionRecordEEEESt10_Select1stIS7_ESt4lessIiESaIS7_EE13_M_clone_nodeILb0ENSD_11_Alloc_nodeEEEPSt13_Rb_tree_nodeIS7_ESI_RT0_
FN:1310,1315,_ZNSt8_Rb_treeI7QStringSt4pairIKS0_N6optikg12AppConstants14EntityTypeInfoEESt10_Select1stIS6_ESt4lessIS0_ESaIS6_EE13_Rb_tree_implISA_Lb1EEC2Ev
FN:1310,1315,_ZNSt8_Rb_treeI7QStringSt4pairIKS0_N6optikg6TripleEESt10_Select1stIS5_ESt4lessIS0_ESaIS5_EE13_Rb_tree_implIS9_Lb1EEC2Ev
FN:1310,1315,_ZNSt8_Rb_treeIiSt4pairIKi7QStringESt10_Select1stIS3_ESt4lessIiESaIS3_EE13_Rb_tree_implIS7_Lb1EEC2Ev
FN:1310,1315,_ZNSt8_Rb_treeIiSt4pairIKiN12QtConcurrent19IntermediateResultsIN6optikg16ExtractionRecordEEEESt10_Select1stIS7_ESt4lessIiESaIS7_EE13_Rb_tree_implISB_Lb1EEC2Ev
FN:1317,1321,_ZNSt8_Rb_treeI7QStringSt4pairIKS0_N6optikg12AppConstants14EntityTypeInfoEESt10_Select1stIS6_ESt4lessIS0_ESaIS6_EE13_Rb_tree_implISA_Lb1EEC2ERKSE_
FN:1317,1321,_ZNSt8_Rb_treeI7QStringSt4pairIKS0_N6optikg6TripleEESt10_Select1stIS5_ESt4lessIS0_ESaIS5_EE13_Rb_tree_implIS9_Lb1EEC2ERKSD_
FN:1317,1321,_ZNSt8_Rb_treeIiSt4pairIKi7QStringESt10_Select1stIS3_ESt4lessIiESaIS3_EE13_Rb_tree_implIS7_Lb1EEC2ERKSB_
FN:1317,1321,_ZNSt8_Rb_treeIiSt4pairIKiN12QtConcurrent19IntermediateResultsIN6optikg16ExtractionRecordEEEESt10_Select1stIS7_ESt4lessIiESaIS7_EE13_Rb_tree_implISB_Lb1EEC2ERKSF_
FN:134,135,_ZNKSt18_Rb_tree_node_base11_M_base_ptrEv
FN:1353,1354,_ZNSt8_Rb_treeI7QStringSt4pairIKS0_N6optikg12AppConstants14EntityTypeInfoEESt10_Select1stIS6_ESt4lessIS0_ESaIS6_EE7_M_rootEv
FN:1353,1354,_ZNSt8_Rb_treeI7QStringSt4pairIKS0_N6optikg6TripleEESt10_Select1stIS5_ESt4lessIS0_ESaIS5_EE7_M_rootEv
FN:1353,1354,_ZNSt8_Rb_treeIiSt4pairIKi7QStringESt10_Select1stIS3_ESt4lessIiESaIS3_EE7_M_rootEv
FN:1353,1354,_ZNSt8_Rb_treeIiSt4pairIKiN12QtConcurrent19IntermediateResultsIN6optikg16ExtractionRecordEEEESt10_Select1stIS7_ESt4lessIiESaIS7_EE7_M_rootEv
FN:1357,1358,_ZNKSt8_Rb_treeI7QStringSt4pairIKS0_N6optikg12AppConstants14EntityTypeInfoEESt10_Select1stIS6_ESt4lessIS0_ESaIS6_EE7_M_rootEv
FN:1357,1358,_ZNKSt8_Rb_treeI7QStringSt4pairIKS0_N6optikg6TripleEESt10_Select1stIS5_ESt4lessIS0_ESaIS5_EE7_M_rootEv
FN:1357,1358,_ZNKSt8_Rb_treeIiSt4pairIKi7QStringESt10_Select1stIS3_ESt4lessIiESaIS3_EE7_M_rootEv
FN:1357,1358,_ZNKSt8_Rb_treeIiSt4pairIKiN12QtConcurrent19IntermediateResultsIN6optikg16ExtractionRecordEEEESt10_Select1stIS7_ESt4lessIiESaIS7_EE7_M_rootEv
FN:1361,1362,_ZNSt8_Rb_treeI7QStringSt4pairIKS0_N6optikg12AppConstants14EntityTypeInfoEESt10_Select1stIS6_ESt4lessIS0_ESaIS6_EE11_M_leftmostEv
FN:1361,1362,_ZNSt8_Rb_treeI7QStringSt4pairIKS0_N6optikg6TripleEESt10_Select1stIS5_ESt4lessIS0_ESaIS5_EE11_M_leftmostEv
FN:1361,1362,_ZNSt8_Rb_treeIiSt4pairIKi7QStringESt10_Select1stIS3_ESt4lessIiESaIS3_EE11_M_leftmostEv
FN:1361,1362,_ZNSt8_Rb_treeIiSt4pairIKiN12QtConcurrent19IntermediateResultsIN6optikg16ExtractionRecordEEEESt10_Select1stIS7_ESt4lessIiESaIS7_EE11_M_leftmostEv
FN:1369,1370,_ZNSt8_Rb_treeI7QStringSt4pairIKS0_N6optikg12AppConstants14EntityTypeInfoEESt10_Select1stIS6_ESt4lessIS0_ESaIS6_EE12_M_rightmostEv
FN:1369,1370,_ZNSt8_Rb_treeI7QStringSt4pairIKS0_N6optikg6TripleEESt10_Select1stIS5_ESt4lessIS0_ESaIS5_EE12_M_rightmostEv
FN:1369,1370,_ZNSt8_Rb_treeIiSt4pairIKi7QStringESt10_Select1stIS3_ESt4lessIiESaIS3_EE12_M_rightmostEv
FN:1369,1370,_ZNSt8_Rb_treeIiSt4pairIKiN12QtConcurrent19IntermediateResultsIN6optikg16ExtractionRecordEEEESt10_Select1stIS7_ESt4lessIiESaIS7_EE12_M_rightmostEv
FN:1377,1378,_ZNKSt8_Rb_treeI7QStringSt4pairIKS0_N6optikg12AppConstants14EntityTypeInfoEESt10_Select1stIS6_ESt4lessIS0_ESaIS6_EE8_M_beginEv
FN:1377,1378,_ZNKSt8_Rb_treeI7QStringSt4pairIKS0_N6optikg6TripleEESt10_Select1stIS5_ESt4lessIS0_ESaIS5_EE8_M_beginEv
FN:1377,1378,_ZNKSt8_Rb_treeIiSt4pairIKi7QStringESt10_Select1stIS3_ESt4lessIiESaIS3_EE8_M_beginEv
FN:1377,1378,_ZNKSt8_Rb_treeIiSt4pairIKiN12QtConcurrent19IntermediateResultsIN6optikg16ExtractionRecordEEEESt10_Select1stIS7_ESt4lessIiESaIS7_EE8_M_beginEv
FN:1381,1387,_ZNKSt8_Rb_treeI7QStringSt4pairIKS0_N6optikg12AppConstants14EntityTypeInfoEESt10_Select1stIS6_ESt4lessIS0_ESaIS6_EE13_M_begin_nodeEv
FN:1381,1387,_ZNKSt8_Rb_treeI7QStringSt4pairIKS0_N6optikg6TripleEESt10_Select1stIS5_ESt4lessIS0_ESaIS5_EE13_M_begin_nodeEv
FN:1381,1387,_ZNKSt8_Rb_treeIiSt4pairIKi7QStringESt10_Select1stIS3_ESt4lessIiESaIS3_EE13_M_begin_nodeEv
FN:1381,1387,_ZNKSt8_Rb_treeIiSt4pairIKiN12QtConcurrent19IntermediateResultsIN6optikg16ExtractionRecordEEEESt10_Select1stIS7_ESt4lessIiESaIS7_EE13_M_begin_nodeEv
FN:1381,1387,_ZNKSt8_Rb_treeIiSt4pairIKiN9QtPrivate10ResultItemEESt10_Select1stIS4_ESt4lessIiESaIS4_EE13_M_begin_nodeEv
FN:1390,1391,_ZNKSt8_Rb_treeI7QStringSt4pairIKS0_N6optikg12AppConstants14EntityTypeInfoEESt10_Select1stIS6_ESt4lessIS0_ESaIS6_EE6_M_endEv
FN:1390,1391,_ZNKSt8_Rb_treeI7QStringSt4pairIKS0_N6optikg6TripleEESt10_Select1stIS5_ESt4lessIS0_ESaIS5_EE6_M_endEv
FN:1390,1391,_ZNKSt8_Rb_treeIiSt4pairIKi7QStringESt10_Select1stIS3_ESt4lessIiESaIS3_EE6_M_endEv
FN:1390,1391,_ZNKSt8_Rb_treeIiSt4pairIKiN12QtConcurrent19IntermediateResultsIN6optikg16ExtractionRecordEEEESt10_Select1stIS7_ESt4lessIiESaIS7_EE6_M_endEv
FN:1390,1391,_ZNKSt8_Rb_treeIiSt4pairIKiN9QtPrivate10ResultItemEESt10_Select1stIS4_ESt4lessIiESaIS4_EE6_M_endEv
FN:1394,1413,_ZNSt8_Rb_treeI7QStringSt4pairIKS0_N6optikg12AppConstants14EntityTypeInfoEESt10_Select1stIS6_ESt4lessIS0_ESaIS6_EE6_S_keyERKSt13_Rb_tree_nodeIS6_E
FN:1394,1413,_ZNSt8_Rb_treeI7QStringSt4pairIKS0_N6optikg6TripleEESt10_Select1stIS5_ESt4lessIS0_ESaIS5_EE6_S_keyERKSt13_Rb_tree_nodeIS5_E
FN:1394,1413,_ZNSt8_Rb_treeIiSt4pairIKi7QStringESt10_Select1stIS3_ESt4lessIiESaIS3_EE6_S_keyERKSt13_Rb_tree_nodeIS3_E
FN:1394,1413,_ZNSt8_Rb_treeIiSt4pairIKiN12QtConcurrent19IntermediateResultsIN6optikg16ExtractionRecordEEEESt10_Select1stIS7_ESt4lessIiESaIS7_EE6_S_keyERKSt13_Rb_tree_nodeIS7_E
FN:1416,1417,_ZNSt8_Rb_treeI7QStringSt4pairIKS0_N6optikg12AppConstants14EntityTypeInfoEESt10_Select1stIS6_ESt4lessIS0_ESaIS6_EE6_S_keyEPSt18_Rb_tree_node_base
FN:1416,1417,_ZNSt8_Rb_treeI7QStringSt4pairIKS0_N6optikg6TripleEESt10_Select1stIS5_ESt4lessIS0_ESaIS5_EE6_S_keyEPSt18_Rb_tree_node_base
FN:1416,1417,_ZNSt8_Rb_treeIiSt4pairIKi7QStringESt10_Select1stIS3_ESt4lessIiESaIS3_EE6_S_keyEPSt18_Rb_tree_node_base
FN:1416,1417,_ZNSt8_Rb_treeIiSt4pairIKiN12QtConcurrent19IntermediateResultsIN6optikg16ExtractionRecordEEEESt10_Select1stIS7_ESt4lessIiESaIS7_EE6_S_keyEPSt18_Rb_tree_node_base
FN:1420,1421,_ZNSt8_Rb_treeI7QStringSt4pairIKS0_N6optikg6TripleEESt10_Select1stIS5_ESt4lessIS0_ESaIS5_EE6_S_keyEPSt13_Rb_tree_nodeIS5_E
FN:1420,1421,_ZNSt8_Rb_treeIiSt4pairIKiN12QtConcurrent19IntermediateResultsIN6optikg16ExtractionRecordEEEESt10_Select1stIS7_ESt4lessIiESaIS7_EE6_S_keyEPSt13_Rb_tree_nodeIS7_E
FN:1424,1425,_ZNSt8_Rb_treeI7QStringSt4pairIKS0_N6optikg12AppConstants14EntityTypeInfoEESt10_Select1stIS6_ESt4lessIS0_ESaIS6_EE7_S_leftEPSt18_Rb_tree_node_base
FN:1424,1425,_ZNSt8_Rb_treeI7QStringSt4pairIKS0_N6optikg6TripleEESt10_Select1stIS5_ESt4lessIS0_ESaIS5_EE7_S_leftEPSt18_Rb_tree_node_base
FN:1424,1425,_ZNSt8_Rb_treeIiSt4pairIKi7QStringESt10_Select1stIS3_ESt4lessIiESaIS3_EE7_S_leftEPSt18_Rb_tree_node_base
FN:1424,1425,_ZNSt8_Rb_treeIiSt4pairIKiN12QtConcurrent19IntermediateResultsIN6optikg16ExtractionRecordEEEESt10_Select1stIS7_ESt4lessIiESaIS7_EE7_S_leftEPSt18_Rb_tree_node_base
FN:1428,1433,_ZNSt8_Rb_treeI7QStringSt4pairIKS0_N6optikg12AppConstants14EntityTypeInfoEESt10_Select1stIS6_ESt4lessIS0_ESaIS6_EE7_S_leftEPSt13_Rb_tree_nodeIS6_E
FN:1428,1433,_ZNSt8_Rb_treeI7QStringSt4pairIKS0_N6optikg6TripleEESt10_Select1stIS5_ESt4lessIS0_ESaIS5_EE7_S_leftEPSt13_Rb_tree_nodeIS5_E
FN:1428,1433,_ZNSt8_Rb_treeIiSt4pairIKi7QStringESt10_Select1stIS3_ESt4lessIiESaIS3_EE7_S_leftEPSt13_Rb_tree_nodeIS3_E
FN:1428,1433,_ZNSt8_Rb_treeIiSt4pairIKiN12QtConcurrent19IntermediateResultsIN6optikg16ExtractionRecordEEEESt10_Select1stIS7_ESt4lessIiESaIS7_EE7_S_leftEPSt13_Rb_tree_nodeIS7_E
FN:1428,1433,_ZNSt8_Rb_treeIiSt4pairIKiN9QtPrivate10ResultItemEESt10_Select1stIS4_ESt4lessIiESaIS4_EE7_S_leftEPSt13_Rb_tree_nodeIS4_E
FN:1436,1437,_ZNSt8_Rb_treeI7QStringSt4pairIKS0_N6optikg12AppConstants14EntityTypeInfoEESt10_Select1stIS6_ESt4lessIS0_ESaIS6_EE8_S_rightEPSt18_Rb_tree_node_base
FN:1436,1437,_ZNSt8_Rb_treeI7QStringSt4pairIKS0_N6optikg6TripleEESt10_Select1stIS5_ESt4lessIS0_ESaIS5_EE8_S_rightEPSt18_Rb_tree_node_base
FN:1436,1437,_ZNSt8_Rb_treeIiSt4pairIKi7QStringESt10_Select1stIS3_ESt4lessIiESaIS3_EE8_S_rightEPSt18_Rb_tree_node_base
FN:1436,1437,_ZNSt8_Rb_treeIiSt4pairIKiN12QtConcurrent19IntermediateResultsIN6optikg16ExtractionRecordEEEESt10_Select1stIS7_ESt4lessIiESaIS7_EE8_S_rightEPSt18_Rb_tree_node_base
FN:144,148,_ZNSt20_Rb_tree_key_compareISt4lessI7QStringEEC2Ev
FN:144,148,_ZNSt20_Rb_tree_key_compareISt4lessIiEEC2Ev
FN:1440,1445,_ZNSt8_Rb_treeI7QStringSt4pairIKS0_N6optikg12AppConstants14EntityTypeInfoEESt10_Select1stIS6_ESt4lessIS0_ESaIS6_EE8_S_rightEPSt13_Rb_tree_nodeIS6_E
FN:1440,1445,_ZNSt8_Rb_treeI7QStringSt4pairIKS0_N6optikg6TripleEESt10_Select1stIS5_ESt4lessIS0_ESaIS5_EE8_S_rightEPSt13_Rb_tree_nodeIS5_E
FN:1440,1445,_ZNSt8_Rb_treeIiSt4pairIKi7QStringESt10_Select1stIS3_ESt4lessIiESaIS3_EE8_S_rightEPSt13_Rb_tree_nodeIS3_E
FN:1440,1445,_ZNSt8_Rb_treeIiSt4pairIKiN12QtConcurrent19IntermediateResultsIN6optikg16ExtractionRecordEEEESt10_Select1stIS7_ESt4lessIiESaIS7_EE8_S_rightEPSt13_Rb_tree_nodeIS7_E
FN:1440,1445,_ZNSt8_Rb_treeIiSt4pairIKiN9QtPrivate10ResultItemEESt10_Select1stIS4_ESt4lessIiESaIS4_EE8_S_rightEPSt13_Rb_tree_nodeIS4_E
FN:150,152,_ZNSt20_Rb_tree_key_compareISt4lessI7QStringEEC2ERKS2_
FN:150,152,_ZNSt20_Rb_tree_key_compareISt4lessIiEEC2ERKS1_
FN:1520,1528,_ZNSt8_Rb_treeI7QStringSt4pairIKS0_N6optikg12AppConstants14EntityTypeInfoEESt10_Select1stIS6_ESt4lessIS0_ESaIS6_EE7_M_copyILb0ENSC_11_Alloc_nodeEEEPSt18_Rb_tree_node_baseRKSC_RT0_
FN:1520,1528,_ZNSt8_Rb_treeI7QStringSt4pairIKS0_N6optikg6TripleEESt10_Select1stIS5_ESt4lessIS0_ESaIS5_EE7_M_copyILb0ENSB_11_Alloc_nodeEEEPSt18_Rb_tree_node_baseRKSB_RT0_
FN:1520,1528,_ZNSt8_Rb_treeIiSt4pairIKi7QStringESt10_Select1stIS3_ESt4lessIiESaIS3_EE7_M_copyILb0ENS9_11_Alloc_nodeEEEPSt18_Rb_tree_node_baseRKS9_RT0_
FN:1520,1528,_ZNSt8_Rb_treeIiSt4pairIKiN12QtConcurrent19IntermediateResultsIN6optikg16ExtractionRecordEEEESt10_Select1stIS7_ESt4lessIiESaIS7_EE7_M_copyILb0ENSD_11_Alloc_nodeEEEPSt18_Rb_tree_node_baseRKSD_RT0_
FN:1531,1535,_ZNSt8_Rb_treeI7QStringSt4pairIKS0_N6optikg12AppConstants14EntityTypeInfoEESt10_Select1stIS6_ESt4lessIS0_ESaIS6_EE7_M_copyERKSC_
FN:1531,1535,_ZNSt8_Rb_treeI7QStringSt4pairIKS0_N6optikg6TripleEESt10_Select1stIS5_ESt4lessIS0_ESaIS5_EE7_M_copyERKSB_
FN:1531,1535,_ZNSt8_Rb_treeIiSt4pairIKi7QStringESt10_Select1stIS3_ESt4lessIiESaIS3_EE7_M_copyERKS9_
FN:1531,1535,_ZNSt8_Rb_treeIiSt4pairIKiN12QtConcurrent19IntermediateResultsIN6optikg16ExtractionRecordEEEESt10_Select1stIS7_ESt4lessIiESaIS7_EE7_M_copyERKSD_
FN:1553,1553,_ZNSt8_Rb_treeI7QStringSt4pairIKS0_N6optikg12AppConstants14EntityTypeInfoEESt10_Select1stIS6_ESt4lessIS0_ESaIS6_EEC2Ev
FN:1553,1553,_ZNSt8_Rb_treeI7QStringSt4pairIKS0_N6optikg6TripleEESt10_Select1stIS5_ESt4lessIS0_ESaIS5_EEC2Ev
FN:1553,1553,_ZNSt8_Rb_treeIiSt4pairIKi7QStringESt10_Select1stIS3_ESt4lessIiESaIS3_EEC2Ev
FN:1553,1553,_ZNSt8_Rb_treeIiSt4pairIKiN12QtConcurrent19IntermediateResultsIN6optikg16ExtractionRecordEEEESt10_Select1stIS7_ESt4lessIiESaIS7_EEC2Ev
FN:1560,1565,_ZNSt8_Rb_treeI7QStringSt4pairIKS0_N6optikg12AppConstants14EntityTypeInfoEESt10_Select1stIS6_ESt4lessIS0_ESaIS6_EEC2ERKSC_
FN:1560,1565,_ZNSt8_Rb_treeI7QStringSt4pairIKS0_N6optikg6TripleEESt10_Select1stIS5_ESt4lessIS0_ESaIS5_EEC2ERKSB_
FN:1560,1565,_ZNSt8_Rb_treeIiSt4pairIKi7QStringESt10_Select1stIS3_ESt4lessIiESaIS3_EEC2ERKS9_
FN:1560,1565,_ZNSt8_Rb_treeIiSt4pairIKiN12QtConcurrent19IntermediateResultsIN6optikg16ExtractionRecordEEEESt10_Select1stIS7_ESt4lessIiESaIS7_EEC2ERKSD_
FN:1608,1609,_ZNSt8_Rb_treeI7QStringSt4pairIKS0_N6optikg12AppConstants14EntityTypeInfoEESt10_Select1stIS6_ESt4lessIS0_ESaIS6_EED2Ev
FN:1608,1609,_ZNSt8_Rb_treeI7QStringSt4pairIKS0_N6optikg6TripleEESt10_Select1stIS5_ESt4lessIS0_ESaIS5_EED2Ev
FN:1608,1609,_ZNSt8_Rb_treeIiSt4pairIKi7QStringESt10_Select1stIS3_ESt4lessIiESaIS3_EED2Ev
FN:1608,1609,_ZNSt8_Rb_treeIiSt4pairIKiN12QtConcurrent19IntermediateResultsIN6optikg16ExtractionRecordEEEESt10_Select1stIS7_ESt4lessIiESaIS7_EED2Ev
FN:1608,1609,_ZNSt8_Rb_treeIiSt4pairIKiN9QtPrivate10ResultItemEESt10_Select1stIS4_ESt4lessIiESaIS4_EED2Ev
FN:1616,1617,_ZNKSt8_Rb_treeI7QStringSt4pairIKS0_N6optikg6TripleEESt10_Select1stIS5_ESt4lessIS0_ESaIS5_EE8key_compEv
FN:1616,1617,_ZNKSt8_Rb_treeIiSt4pairIKiN12QtConcurrent19IntermediateResultsIN6optikg16ExtractionRecordEEEESt10_Select1stIS7_ESt4lessIiESaIS7_EE8key_compEv
FN:1620,1621,_ZNSt8_Rb_treeI7QStringSt4pairIKS0_N6optikg12AppConstants14EntityTypeInfoEESt10_Select1stIS6_ESt4lessIS0_ESaIS6_EE5beginEv
FN:1620,1621,_ZNSt8_Rb_treeI7QStringSt4pairIKS0_N6optikg6TripleEESt10_Select1stIS5_ESt4lessIS0_ESaIS5_EE5beginEv
FN:1620,1621,_ZNSt8_Rb_treeIiSt4pairIKi7QStringESt10_Select1stIS3_ESt4lessIiESaIS3_EE5beginEv
FN:1620,1621,_ZNSt8_Rb_treeIiSt4pairIKiN12QtConcurrent19IntermediateResultsIN6optikg16ExtractionRecordEEEESt10_Select1stIS7_ESt4lessIiESaIS7_EE5beginEv
FN:1624,1625,_ZNKSt8_Rb_treeI7QStringSt4pairIKS0_N6optikg6TripleEESt10_Select1stIS5_ESt4lessIS0_ESaIS5_EE5beginEv
FN:1624,1625,_ZNKSt8_Rb_treeIiSt4pairIKiN12QtConcurrent19IntermediateResultsIN6optikg16ExtractionRecordEEEESt10_Select1stIS7_ESt4lessIiESaIS7_EE5beginEv
FN:1624,1625,_ZNKSt8_Rb_treeIiSt4pairIKiN9QtPrivate10ResultItemEESt10_Select1stIS4_ESt4lessIiESaIS4_EE5beginEv
FN:1628,1629,_ZNSt8_Rb_treeI7QStringSt4pairIKS0_N6optikg12AppConstants14EntityTypeInfoEESt10_Select1stIS6_ESt4lessIS0_ESaIS6_EE3endEv
FN:1628,1629,_ZNSt8_Rb_treeI7QStringSt4pairIKS0_N6optikg6TripleEESt10_Select1stIS5_ESt4lessIS0_ESaIS5_EE3endEv
FN:1628,1629,_ZNSt8_Rb_treeIiSt4pairIKi7QStringESt10_Select1stIS3_ESt4lessIiESaIS3_EE3endEv
FN:1628,1629,_ZNSt8_Rb_treeIiSt4pairIKiN12QtConcurrent19IntermediateResultsIN6optikg16ExtractionRecordEEEESt10_Select1stIS7_ESt4lessIiESaIS7_EE3endEv
FN:1632,1633,_ZNKSt8_Rb_treeI7QStringSt4pairIKS0_N6optikg6TripleEESt10_Select1stIS5_ESt4lessIS0_ESaIS5_EE3endEv
FN:1632,1633,_ZNKSt8_Rb_treeIiSt4pairIKi7QStringESt10_Select1stIS3_ESt4lessIiESaIS3_EE3endEv
FN:1632,1633,_ZNKSt8_Rb_treeIiSt4pairIKiN12QtConcurrent19IntermediateResultsIN6optikg16ExtractionRecordEEEESt10_Select1stIS7_ESt4lessIiESaIS7_EE3endEv
FN:1632,1633,_ZNKSt8_Rb_treeIiSt4pairIKiN9QtPrivate10ResultItemEESt10_Select1stIS4_ESt4lessIiESaIS4_EE3endEv
FN:1652,1653,_ZNKSt8_Rb_treeI7QStringSt4pairIKS0_N6optikg12AppConstants14EntityTypeInfoEESt10_Select1stIS6_ESt4lessIS0_ESaIS6_EE5emptyEv
FN:1652,1653,_ZNKSt8_Rb_treeIiSt4pairIKiN12QtConcurrent19IntermediateResultsIN6optikg16ExtractionRecordEEEESt10_Select1stIS7_ESt4lessIiESaIS7_EE5emptyEv
FN:1656,1657,_ZNKSt8_Rb_treeI7QStringSt4pairIKS0_N6optikg6TripleEESt10_Select1stIS5_ESt4lessIS0_ESaIS5_EE4sizeEv
FN:1656,1657,_ZNKSt8_Rb_treeIiSt4pairIKi7QStringESt10_Select1stIS3_ESt4lessIiESaIS3_EE4sizeEv
FN:1656,1657,_ZNKSt8_Rb_treeIiSt4pairIKiN12QtConcurrent19IntermediateResultsIN6optikg16ExtractionRecordEEEESt10_Select1stIS7_ESt4lessIiESaIS7_EE4sizeEv
FN:1683,1687,_ZNSt8_Rb_treeIiSt4pairIKiN12QtConcurrent19IntermediateResultsIN6optikg16ExtractionRecordEEEESt10_Select1stIS7_ESt4lessIiESaIS7_EE17_M_insert_unique_IRKS7_EESt17_Rb_tree_iteratorIS7_ESt23_Rb_tree_const_iteratorIS7_EOT_
FN:171,175,_ZNSt15_Rb_tree_headerC2Ev
FN:1860,1864,_ZNSt8_Rb_treeIiSt4pairIKiN12QtConcurrent19IntermediateResultsIN6optikg16ExtractionRecordEEEESt10_Select1stIS7_ESt4lessIiESaIS7_EE5eraseB5cxx11ESt23_Rb_tree_const_iteratorIS7_ESF_
FN:1876,1880,_ZNSt8_Rb_treeIiSt4pairIKiN12QtConcurrent19IntermediateResultsIN6optikg16ExtractionRecordEEEESt10_Select1stIS7_ESt4lessIiESaIS7_EE5clearEv
FN:1876,1880,_ZNSt8_Rb_treeIiSt4pairIKiN9QtPrivate10ResultItemEESt10_Select1stIS4_ESt4lessIiESaIS4_EE5clearEv
FN:1893,1894,_ZNSt8_Rb_treeI7QStringSt4pairIKS0_N6optikg6TripleEESt10_Select1stIS5_ESt4lessIS0_ESaIS5_EE11lower_boundERS2_
FN:1893,1894,_ZNSt8_Rb_treeIiSt4pairIKiN12QtConcurrent19IntermediateResultsIN6optikg16ExtractionRecordEEEESt10_Select1stIS7_ESt4lessIiESaIS7_EE11lower_boundERS1_
FN:204,210,_ZNSt15_Rb_tree_header8_M_resetEv
FN:2283,2286,_ZNSt8_Rb_treeI7QStringSt4pairIKS0_N6optikg6TripleEESt10_Select1stIS5_ESt4lessIS0_ESaIS5_EE10_Auto_nodeC2IJRKSt21piecewise_construct_tSt5tupleIJRS2_EESH_IJRKS4_EEEEERSB_DpOT_
FN:2283,2286,_ZNSt8_Rb_treeIiSt4pairIKiN12QtConcurrent19IntermediateResultsIN6optikg16ExtractionRecordEEEESt10_Select1stIS7_ESt4lessIiESaIS7_EE10_Auto_nodeC2IJRKSt21piecewise_construct_tSt5tupleIJRS1_EESJ_IJRKS6_EEEEERSD_DpOT_
FN:2288,2292,_ZNSt8_Rb_treeI7QStringSt4pairIKS0_N6optikg6TripleEESt10_Select1stIS5_ESt4lessIS0_ESaIS5_EE10_Auto_nodeD2Ev
FN:2288,2292,_ZNSt8_Rb_treeIiSt4pairIKiN12QtConcurrent19IntermediateResultsIN6optikg16ExtractionRecordEEEESt10_Select1stIS7_ESt4lessIiESaIS7_EE10_Auto_nodeD2Ev
FN:2299,2300,_ZNKSt8_Rb_treeI7QStringSt4pairIKS0_N6optikg6TripleEESt10_Select1stIS5_ESt4lessIS0_ESaIS5_EE10_Auto_node6_M_keyEv
FN:2299,2300,_ZNKSt8_Rb_treeIiSt4pairIKiN12QtConcurrent19IntermediateResultsIN6optikg16ExtractionRecordEEEESt10_Select1stIS7_ESt4lessIiESaIS7_EE10_Auto_node6_M_keyEv
FN:230,231,_ZNSt13_Rb_tree_nodeISt4pairIK7QStringN6optikg12AppConstants14EntityTypeInfoEEE9_M_valptrEv
FN:230,231,_ZNSt13_Rb_tree_nodeISt4pairIK7QStringN6optikg6TripleEEE9_M_valptrEv
FN:230,231,_ZNSt13_Rb_tree_nodeISt4pairIKi7QStringEE9_M_valptrEv
FN:230,231,_ZNSt13_Rb_tree_nodeISt4pairIKiN12QtConcurrent19IntermediateResultsIN6optikg16ExtractionRecordEEEEE9_M_valptrEv
FN:230,231,_ZNSt13_Rb_tree_nodeISt4pairIKiN9QtPrivate10ResultItemEEE9_M_valptrEv
FN:2303,2308,_ZNSt8_Rb_treeI7QStringSt4pairIKS0_N6optikg6TripleEESt10_Select1stIS5_ESt4lessIS0_ESaIS5_EE10_Auto_node9_M_insertES1_IPSt18_Rb_tree_node_baseSE_E
FN:2303,2308,_ZNSt8_Rb_treeIiSt4pairIKiN12QtConcurrent19IntermediateResultsIN6optikg16ExtractionRecordEEEESt10_Select1stIS7_ESt4lessIiESaIS7_EE10_Auto_node9_M_insertES0_IPSt18_Rb_tree_node_baseSG_E
FN:234,235,_ZNKSt13_Rb_tree_nodeISt4pairIK7QStringN6optikg12AppConstants14EntityTypeInfoEEE9_M_valptrEv
FN:234,235,_ZNKSt13_Rb_tree_nodeISt4pairIK7QStringN6optikg6TripleEEE9_M_valptrEv
FN:234,235,_ZNKSt13_Rb_tree_nodeISt4pairIKi7QStringEE9_M_valptrEv
FN:234,235,_ZNKSt13_Rb_tree_nodeISt4pairIKiN12QtConcurrent19IntermediateResultsIN6optikg16ExtractionRecordEEEEE9_M_valptrEv
FN:234,235,_ZNKSt13_Rb_tree_nodeISt4pairIKiN9QtPrivate10ResultItemEEE9_M_valptrEv
FN:239,240,_ZNSt13_Rb_tree_nodeISt4pairIK7QStringN6optikg12AppConstants14EntityTypeInfoEEE11_M_node_ptrEv
FN:239,240,_ZNSt13_Rb_tree_nodeISt4pairIK7QStringN6optikg6TripleEEE11_M_node_ptrEv
FN:239,240,_ZNSt13_Rb_tree_nodeISt4pairIKi7QStringEE11_M_node_ptrEv
FN:239,240,_ZNSt13_Rb_tree_nodeISt4pairIKiN12QtConcurrent19IntermediateResultsIN6optikg16ExtractionRecordEEEEE11_M_node_ptrEv
FN:239,240,_ZNSt13_Rb_tree_nodeISt4pairIKiN9QtPrivate10ResultItemEEE11_M_node_ptrEv
FN:2467,2487,_ZNSt8_Rb_treeI7QStringSt4pairIKS0_N6optikg12AppConstants14EntityTypeInfoEESt10_Select1stIS6_ESt4lessIS0_ESaIS6_EE10_M_insert_IS6_NSC_11_Alloc_nodeEEESt17_Rb_tree_iteratorIS6_EPSt18_Rb_tree_node_baseSI_OT_RT0_
FN:2467,2487,_ZNSt8_Rb_treeI7QStringSt4pairIKS0_N6optikg6TripleEESt10_Select1stIS5_ESt4lessIS0_ESaIS5_EE10_M_insert_IS5_NSB_11_Alloc_nodeEEESt17_Rb_tree_iteratorIS5_EPSt18_Rb_tree_node_baseSH_OT_RT0_
FN:2467,2487,_ZNSt8_Rb_treeIiSt4pairIKi7QStringESt10_Select1stIS3_ESt4lessIiESaIS3_EE10_M_insert_IS3_NS9_11_Alloc_nodeEEESt17_Rb_tree_iteratorIS3_EPSt18_Rb_tree_node_baseSF_OT_RT0_
FN:2467,2487,_ZNSt8_Rb_treeIiSt4pairIKiN12QtConcurrent19IntermediateResultsIN6optikg16ExtractionRecordEEEESt10_Select1stIS7_ESt4lessIiESaIS7_EE10_M_insert_IRKS7_NSD_11_Alloc_nodeEEESt17_Rb_tree_iteratorIS7_EPSt18_Rb_tree_node_baseSL_OT_RT0_
FN:2542,2577,_ZNSt8_Rb_treeI7QStringSt4pairIKS0_N6optikg12AppConstants14EntityTypeInfoEESt10_Select1stIS6_ESt4lessIS0_ESaIS6_EE7_M_copyILb0ENSC_11_Alloc_nodeEEEPSt18_Rb_tree_node_basePSt13_Rb_tree_nodeIS6_ESG_RT0_
FN:2542,2577,_ZNSt8_Rb_treeI7QStringSt4pairIKS0_N6optikg6TripleEESt10_Select1stIS5_ESt4lessIS0_ESaIS5_EE7_M_copyILb0ENSB_11_Alloc_nodeEEEPSt18_Rb_tree_node_basePSt13_Rb_tree_nodeIS5_ESF_RT0_
FN:2542,2577,_ZNSt8_Rb_treeIiSt4pairIKi7QStringESt10_Select1stIS3_ESt4lessIiESaIS3_EE7_M_copyILb0ENS9_11_Alloc_nodeEEEPSt18_Rb_tree_node_basePSt13_Rb_tree_nodeIS3_ESD_RT0_
FN:2542,2577,_ZNSt8_Rb_treeIiSt4pairIKiN12QtConcurrent19IntermediateResultsIN6optikg16ExtractionRecordEEEESt10_Select1stIS7_ESt4lessIiESaIS7_EE7_M_copyILb0ENSD_11_Alloc_nodeEEEPSt18_Rb_tree_node_basePSt13_Rb_tree_nodeIS7_ESH_RT0_
FN:2582,2593,_ZNSt8_Rb_treeI7QStringSt4pairIKS0_N6optikg12AppConstants14EntityTypeInfoEESt10_Select1stIS6_ESt4lessIS0_ESaIS6_EE8_M_eraseEPSt13_Rb_tree_nodeIS6_E
FN:2582,2593,_ZNSt8_Rb_treeI7QStringSt4pairIKS0_N6optikg6TripleEESt10_Select1stIS5_ESt4lessIS0_ESaIS5_EE8_M_eraseEPSt13_Rb_tree_nodeIS5_E
FN:2582,2593,_ZNSt8_Rb_treeIiSt4pairIKi7QStringESt10_Select1stIS3_ESt4lessIiESaIS3_EE8_M_eraseEPSt13_Rb_tree_nodeIS3_E
FN:2582,2593,_ZNSt8_Rb_treeIiSt4pairIKiN12QtConcurrent19IntermediateResultsIN6optikg16ExtractionRecordEEEESt10_Select1stIS7_ESt4lessIiESaIS7_EE8_M_eraseEPSt13_Rb_tree_nodeIS7_E
FN:2582,2593,_ZNSt8_Rb_treeIiSt4pairIKiN9QtPrivate10ResultItemEESt10_Select1stIS4_ESt4lessIiESaIS4_EE8_M_eraseEPSt13_Rb_tree_nodeIS4_E
FN:2599,2609,_ZNKSt8_Rb_treeI7QStringSt4pairIKS0_N6optikg12AppConstants14EntityTypeInfoEESt10_Select1stIS6_ESt4lessIS0_ESaIS6_EE14_M_lower_boundEPSt18_Rb_tree_node_baseSE_RS2_
FN:2599,2609,_ZNKSt8_Rb_treeI7QStringSt4pairIKS0_N6optikg6TripleEESt10_Select1stIS5_ESt4lessIS0_ESaIS5_EE14_M_lower_boundEPSt18_Rb_tree_node_baseSD_RS2_
FN:2599,2609,_ZNKSt8_Rb_treeIiSt4pairIKi7QStringESt10_Select1stIS3_ESt4lessIiESaIS3_EE14_M_lower_boundEPSt18_Rb_tree_node_baseSB_RS1_
FN:2599,2609,_ZNKSt8_Rb_treeIiSt4pairIKiN12QtConcurrent19IntermediateResultsIN6optikg16ExtractionRecordEEEESt10_Select1stIS7_ESt4lessIiESaIS7_EE14_M_lower_boundEPSt18_Rb_tree_node_baseSF_RS1_
FN:2730,2754,_ZNSt8_Rb_treeI7QStringSt4pairIKS0_N6optikg12AppConstants14EntityTypeInfoEESt10_Select1stIS6_ESt4lessIS0_ESaIS6_EE24_M_get_insert_unique_posERS2_
FN:2730,2754,_ZNSt8_Rb_treeI7QStringSt4pairIKS0_N6optikg6TripleEESt10_Select1stIS5_ESt4lessIS0_ESaIS5_EE24_M_get_insert_unique_posERS2_
FN:2730,2754,_ZNSt8_Rb_treeIiSt4pairIKi7QStringESt10_Select1stIS3_ESt4lessIiESaIS3_EE24_M_get_insert_unique_posERS1_
FN:2730,2754,_ZNSt8_Rb_treeIiSt4pairIKiN12QtConcurrent19IntermediateResultsIN6optikg16ExtractionRecordEEEESt10_Select1stIS7_ESt4lessIiESaIS7_EE24_M_get_insert_unique_posERS1_
FN:2784,2804,_ZNSt8_Rb_treeI7QStringSt4pairIKS0_N6optikg12AppConstants14EntityTypeInfoEESt10_Select1stIS6_ESt4lessIS0_ESaIS6_EE16_M_insert_uniqueIS6_EES1_ISt17_Rb_tree_iteratorIS6_EbEOT_
FN:2784,2804,_ZNSt8_Rb_treeI7QStringSt4pairIKS0_N6optikg6TripleEESt10_Select1stIS5_ESt4lessIS0_ESaIS5_EE16_M_insert_uniqueIS5_EES1_ISt17_Rb_tree_iteratorIS5_EbEOT_
FN:2784,2804,_ZNSt8_Rb_treeIiSt4pairIKi7QStringESt10_Select1stIS3_ESt4lessIiESaIS3_EE16_M_insert_uniqueIS3_EES0_ISt17_Rb_tree_iteratorIS3_EbEOT_
FN:2832,2882,_ZNSt8_Rb_treeI7QStringSt4pairIKS0_N6optikg6TripleEESt10_Select1stIS5_ESt4lessIS0_ESaIS5_EE29_M_get_insert_hint_unique_posESt23_Rb_tree_const_iteratorIS5_ERS2_
FN:2832,2882,_ZNSt8_Rb_treeIiSt4pairIKiN12QtConcurrent19IntermediateResultsIN6optikg16ExtractionRecordEEEESt10_Select1stIS7_ESt4lessIiESaIS7_EE29_M_get_insert_hint_unique_posESt23_Rb_tree_const_iteratorIS7_ERS1_
FN:2892,2909,_ZNSt8_Rb_treeIiSt4pairIKiN12QtConcurrent19IntermediateResultsIN6optikg16ExtractionRecordEEEESt10_Select1stIS7_ESt4lessIiESaIS7_EE17_M_insert_unique_IRKS7_NSD_11_Alloc_nodeEEESt17_Rb_tree_iteratorIS7_ESt23_Rb_tree_const_iteratorIS7_EOT_RT0_
FN:2997,3010,_ZNSt8_Rb_treeI7QStringSt4pairIKS0_N6optikg6TripleEESt10_Select1stIS5_ESt4lessIS0_ESaIS5_EE14_M_insert_nodeEPSt18_Rb_tree_node_baseSD_PSt13_Rb_tree_nodeIS5_E
FN:2997,3010,_ZNSt8_Rb_treeIiSt4pairIKiN12QtConcurrent19IntermediateResultsIN6optikg16ExtractionRecordEEEESt10_Select1stIS7_ESt4lessIiESaIS7_EE14_M_insert_nodeEPSt18_Rb_tree_node_baseSF_PSt13_Rb_tree_nodeIS7_E
FN:3080,3089,_ZNSt8_Rb_treeI7QStringSt4pairIKS0_N6optikg6TripleEESt10_Select1stIS5_ESt4lessIS0_ESaIS5_EE22_M_emplace_hint_uniqueIJRKSt21piecewise_construct_tSt5tupleIJRS2_EESG_IJRKS4_EEEEESt17_Rb_tree_iteratorIS5_ESt23_Rb_tree_const_iteratorIS5_EDpOT_
FN:3080,3089,_ZNSt8_Rb_treeIiSt4pairIKiN12QtConcurrent19IntermediateResultsIN6optikg16ExtractionRecordEEEESt10_Select1stIS7_ESt4lessIiESaIS7_EE22_M_emplace_hint_uniqueIJRKSt21piecewise_construct_tSt5tupleIJRS1_EESI_IJRKS6_EEEEESt17_Rb_tree_iteratorIS7_ESt23_Rb_tree_const_iteratorIS7_EDpOT_
FN:3111,3118,_ZNSt8_Rb_treeIiSt4pairIKiN12QtConcurrent19IntermediateResultsIN6optikg16ExtractionRecordEEEESt10_Select1stIS7_ESt4lessIiESaIS7_EE12_M_erase_auxESt23_Rb_tree_const_iteratorIS7_E
FN:3123,3131,_ZNSt8_Rb_treeIiSt4pairIKiN12QtConcurrent19IntermediateResultsIN6optikg16ExtractionRecordEEEESt10_Select1stIS7_ESt4lessIiESaIS7_EE12_M_erase_auxESt23_Rb_tree_const_iteratorIS7_ESF_
FN:3149,3156,_ZNSt8_Rb_treeI7QStringSt4pairIKS0_N6optikg12AppConstants14EntityTypeInfoEESt10_Select1stIS6_ESt4lessIS0_ESaIS6_EE4findERS2_
FN:3149,3156,_ZNSt8_Rb_treeI7QStringSt4pairIKS0_N6optikg6TripleEESt10_Select1stIS5_ESt4lessIS0_ESaIS5_EE4findERS2_
FN:3149,3156,_ZNSt8_Rb_treeIiSt4pairIKi7QStringESt10_Select1stIS3_ESt4lessIiESaIS3_EE4findERS1_
FN:3162,3169,_ZNKSt8_Rb_treeIiSt4pairIKi7QStringESt10_Select1stIS3_ESt4lessIiESaIS3_EE4findERS1_
FN:384,385,_ZNSt17_Rb_tree_iteratorISt4pairIKiN12QtConcurrent19IntermediateResultsIN6optikg16ExtractionRecordEEEEEC2Ev
FN:388,389,_ZNSt17_Rb_tree_iteratorISt4pairIK7QStringN6optikg12AppConstants14EntityTypeInfoEEEC2EPSt18_Rb_tree_node_base
FN:388,389,_ZNSt17_Rb_tree_iteratorISt4pairIK7QStringN6optikg6TripleEEEC2EPSt18_Rb_tree_node_base
FN:388,389,_ZNSt17_Rb_tree_iteratorISt4pairIKi7QStringEEC2EPSt18_Rb_tree_node_base
FN:388,389,_ZNSt17_Rb_tree_iteratorISt4pairIKiN12QtConcurrent19IntermediateResultsIN6optikg16ExtractionRecordEEEEEC2EPSt18_Rb_tree_node_base
FN:392,393,_ZNKSt17_Rb_tree_iteratorISt4pairIK7QStringN6optikg6TripleEEEdeEv
FN:392,393,_ZNKSt17_Rb_tree_iteratorISt4pairIKiN12QtConcurrent19IntermediateResultsIN6optikg16ExtractionRecordEEEEEdeEv
FN:396,397,_ZNKSt17_Rb_tree_iteratorISt4pairIK7QStringN6optikg12AppConstants14EntityTypeInfoEEEptEv
FN:396,397,_ZNKSt17_Rb_tree_iteratorISt4pairIK7QStringN6optikg6TripleEEEptEv
FN:396,397,_ZNKSt17_Rb_tree_iteratorISt4pairIKi7QStringEEptEv
FN:396,397,_ZNKSt17_Rb_tree_iteratorISt4pairIKiN12QtConcurrent19IntermediateResultsIN6optikg16ExtractionRecordEEEEEptEv
FN:400,404,_ZNSt17_Rb_tree_iteratorISt4pairIK7QStringN6optikg6TripleEEEppEv
FN:400,404,_ZNSt17_Rb_tree_iteratorISt4pairIKiN12QtConcurrent19IntermediateResultsIN6optikg16ExtractionRecordEEEEEppEv
FN:415,419,_ZNSt17_Rb_tree_iteratorISt4pairIK7QStringN6optikg12AppConstants14EntityTypeInfoEEEmmEv
FN:415,419,_ZNSt17_Rb_tree_iteratorISt4pairIK7QStringN6optikg6TripleEEEmmEv
FN:415,419,_ZNSt17_Rb_tree_iteratorISt4pairIKi7QStringEEmmEv
FN:415,419,_ZNSt17_Rb_tree_iteratorISt4pairIKiN12QtConcurrent19IntermediateResultsIN6optikg16ExtractionRecordEEEEEmmEv
FN:430,432,_ZSteqRKSt17_Rb_tree_iteratorISt4pairIK7QStringN6optikg12AppConstants14EntityTypeInfoEEES9_
FN:430,432,_ZSteqRKSt17_Rb_tree_iteratorISt4pairIK7QStringN6optikg6TripleEEES8_
FN:430,432,_ZSteqRKSt17_Rb_tree_iteratorISt4pairIKi7QStringEES6_
FN:430,432,_ZSteqRKSt17_Rb_tree_iteratorISt4pairIKiN12QtConcurrent19IntermediateResultsIN6optikg16ExtractionRecordEEEEESA_
FN:436,438,_ZStneRKSt17_Rb_tree_iteratorISt4pairIK7QStringN6optikg6TripleEEES8_
FN:436,438,_ZStneRKSt17_Rb_tree_iteratorISt4pairIKiN12QtConcurrent19IntermediateResultsIN6optikg16ExtractionRecordEEEEESA_
FN:459,460,_ZNSt23_Rb_tree_const_iteratorISt4pairIKiN9QtPrivate10ResultItemEEEC2Ev
FN:463,464,_ZNSt23_Rb_tree_const_iteratorISt4pairIK7QStringN6optikg6TripleEEEC2EPSt18_Rb_tree_node_base
FN:463,464,_ZNSt23_Rb_tree_const_iteratorISt4pairIKi7QStringEEC2EPSt18_Rb_tree_node_base
FN:463,464,_ZNSt23_Rb_tree_const_iteratorISt4pairIKiN12QtConcurrent19IntermediateResultsIN6optikg16ExtractionRecordEEEEEC2EPSt18_Rb_tree_node_base
FN:463,464,_ZNSt23_Rb_tree_const_iteratorISt4pairIKiN9QtPrivate10ResultItemEEEC2EPSt18_Rb_tree_node_base
FN:466,467,_ZNSt23_Rb_tree_const_iteratorISt4pairIK7QStringN6optikg6TripleEEEC2ERKSt17_Rb_tree_iteratorIS5_E
FN:466,467,_ZNSt23_Rb_tree_const_iteratorISt4pairIKiN12QtConcurrent19IntermediateResultsIN6optikg16ExtractionRecordEEEEEC2ERKSt17_Rb_tree_iteratorIS7_E
FN:470,471,_ZNKSt23_Rb_tree_const_iteratorISt4pairIK7QStringN6optikg6TripleEEEdeEv
FN:470,471,_ZNKSt23_Rb_tree_const_iteratorISt4pairIKiN12QtConcurrent19IntermediateResultsIN6optikg16ExtractionRecordEEEEEdeEv
FN:474,475,_ZNKSt23_Rb_tree_const_iteratorISt4pairIKi7QStringEEptEv
FN:474,475,_ZNKSt23_Rb_tree_const_iteratorISt4pairIKiN9QtPrivate10ResultItemEEEptEv
FN:478,482,_ZNSt23_Rb_tree_const_iteratorISt4pairIK7QStringN6optikg6TripleEEEppEv
FN:478,482,_ZNSt23_Rb_tree_const_iteratorISt4pairIKiN12QtConcurrent19IntermediateResultsIN6optikg16ExtractionRecordEEEEEppEv
FN:478,482,_ZNSt23_Rb_tree_const_iteratorISt4pairIKiN9QtPrivate10ResultItemEEEppEv
FN:485,490,_ZNSt23_Rb_tree_const_iteratorISt4pairIKiN12QtConcurrent19IntermediateResultsIN6optikg16ExtractionRecordEEEEEppEi
FN:493,497,_ZNSt23_Rb_tree_const_iteratorISt4pairIKiN12QtConcurrent19IntermediateResultsIN6optikg16ExtractionRecordEEEEEmmEv
FN:508,510,_ZSteqRKSt23_Rb_tree_const_iteratorISt4pairIKi7QStringEES6_
FN:508,510,_ZSteqRKSt23_Rb_tree_const_iteratorISt4pairIKiN12QtConcurrent19IntermediateResultsIN6optikg16ExtractionRecordEEEEESA_
FN:514,516,_ZStneRKSt23_Rb_tree_const_iteratorISt4pairIK7QStringN6optikg6TripleEEES8_
FN:514,516,_ZStneRKSt23_Rb_tree_const_iteratorISt4pairIKi7QStringEES6_
FN:514,516,_ZStneRKSt23_Rb_tree_const_iteratorISt4pairIKiN12QtConcurrent19IntermediateResultsIN6optikg16ExtractionRecordEEEEESA_
FN:514,516,_ZStneRKSt23_Rb_tree_const_iteratorISt4pairIKiN9QtPrivate10ResultItemEEES7_
FN:689,694,_ZNSt9__rb_tree12_Node_traitsISt4pairIK7QStringN6optikg12AppConstants14EntityTypeInfoEEPS7_E23_S_insert_and_rebalanceEbPSt18_Rb_tree_node_baseSB_RSA_
FN:689,694,_ZNSt9__rb_tree12_Node_traitsISt4pairIK7QStringN6optikg6TripleEEPS6_E23_S_insert_and_rebalanceEbPSt18_Rb_tree_node_baseSA_RS9_
FN:689,694,_ZNSt9__rb_tree12_Node_traitsISt4pairIKi7QStringEPS4_E23_S_insert_and_rebalanceEbPSt18_Rb_tree_node_baseS8_RS7_
FN:689,694,_ZNSt9__rb_tree12_Node_traitsISt4pairIKiN12QtConcurrent19IntermediateResultsIN6optikg16ExtractionRecordEEEEPS8_E23_S_insert_and_rebalanceEbPSt18_Rb_tree_node_baseSC_RSB_
FN:698,700,_ZNSt9__rb_tree12_Node_traitsISt4pairIKiN12QtConcurrent19IntermediateResultsIN6optikg16ExtractionRecordEEEEPS8_E22_S_rebalance_for_eraseEPSt18_Rb_tree_node_baseRSB_
FNDA:0,_ZNSt8_Rb_treeI7QStringSt4pairIKS0_N6optikg12AppConstants14EntityTypeInfoEESt10_Select1stIS6_ESt4lessIS0_ESaIS6_EE11_Alloc_nodeC2ERSC_
FNDA:0,_ZNSt8_Rb_treeI7QStringSt4pairIKS0_N6optikg6TripleEESt10_Select1stIS5_ESt4lessIS0_ESaIS5_EE11_Alloc_nodeC2ERSB_
FNDA:220,_ZNSt8_Rb_treeIiSt4pairIKi7QStringESt10_Select1stIS3_ESt4lessIiESaIS3_EE11_Alloc_nodeC2ERS9_
FNDA:0,_ZNSt8_Rb_treeIiSt4pairIKiN12QtConcurrent19IntermediateResultsIN6optikg16ExtractionRecordEEEESt10_Select1stIS7_ESt4lessIiESaIS7_EE11_Alloc_nodeC2ERSD_
FNDA:0,_ZNKSt8_Rb_treeI7QStringSt4pairIKS0_N6optikg12AppConstants14EntityTypeInfoEESt10_Select1stIS6_ESt4lessIS0_ESaIS6_EE11_Alloc_nodeclIRKS6_EEPSt13_Rb_tree_nodeIS6_EOT_
FNDA:0,_ZNKSt8_Rb_treeI7QStringSt4pairIKS0_N6optikg12AppConstants14EntityTypeInfoEESt10_Select1stIS6_ESt4lessIS0_ESaIS6_EE11_Alloc_nodeclIS6_EEPSt13_Rb_tree_nodeIS6_EOT_
FNDA:0,_ZNKSt8_Rb_treeI7QStringSt4pairIKS0_N6optikg6TripleEESt10_Select1stIS5_ESt4lessIS0_ESaIS5_EE11_Alloc_nodeclIRKS5_EEPSt13_Rb_tree_nodeIS5_EOT_
FNDA:0,_ZNKSt8_Rb_treeI7QStringSt4pairIKS0_N6optikg6TripleEESt10_Select1stIS5_ESt4lessIS0_ESaIS5_EE11_Alloc_nodeclIS5_EEPSt13_Rb_tree_nodeIS5_EOT_
FNDA:0,_ZNKSt8_Rb_treeIiSt4pairIKi7QStringESt10_Select1stIS3_ESt4lessIiESaIS3_EE11_Alloc_nodeclIRKS3_EEPSt13_Rb_tree_nodeIS3_EOT_
FNDA:220,_ZNKSt8_Rb_treeIiSt4pairIKi7QStringESt10_Select1stIS3_ESt4lessIiESaIS3_EE11_Alloc_nodeclIS3_EEPSt13_Rb_tree_nodeIS3_EOT_
FNDA:0,_ZNKSt8_Rb_treeIiSt4pairIKiN12QtConcurrent19IntermediateResultsIN6optikg16ExtractionRecordEEEESt10_Select1stIS7_ESt4lessIiESaIS7_EE11_Alloc_nodeclIRKS7_EEPSt13_Rb_tree_nodeIS7_EOT_
FNDA:0,_ZNSt8_Rb_treeI7QStringSt4pairIKS0_N6optikg12AppConstants14EntityTypeInfoEESt10_Select1stIS6_ESt4lessIS0_ESaIS6_EE21_M_get_Node_allocatorEv
FNDA:16,_ZNSt8_Rb_treeI7QStringSt4pairIKS0_N6optikg6TripleEESt10_Select1stIS5_ESt4lessIS0_ESaIS5_EE21_M_get_Node_allocatorEv
FNDA:880,_ZNSt8_Rb_treeIiSt4pairIKi7QStringESt10_Select1stIS3_ESt4lessIiESaIS3_EE21_M_get_Node_allocatorEv
FNDA:0,_ZNSt8_Rb_treeIiSt4pairIKiN12QtConcurrent19IntermediateResultsIN6optikg16ExtractionRecordEEEESt10_Select1stIS7_ESt4lessIiESaIS7_EE21_M_get_Node_allocatorEv
FNDA:0,_ZNSt8_Rb_treeIiSt4pairIKiN9QtPrivate10ResultItemEESt10_Select1stIS4_ESt4lessIiESaIS4_EE21_M_get_Node_allocatorEv
FNDA:0,_ZNSt8_Rb_treeI7QStringSt4pairIKS0_N6optikg12AppConstants14EntityTypeInfoEESt10_Select1stIS6_ESt4lessIS0_ESaIS6_EE11_M_get_nodeEv
FNDA:4,_ZNSt8_Rb_treeI7QStringSt4pairIKS0_N6optikg6TripleEESt10_Select1stIS5_ESt4lessIS0_ESaIS5_EE11_M_get_nodeEv
FNDA:220,_ZNSt8_Rb_treeIiSt4pairIKi7QStringESt10_Select1stIS3_ESt4lessIiESaIS3_EE11_M_get_nodeEv
FNDA:0,_ZNSt8_Rb_treeIiSt4pairIKiN12QtConcurrent19IntermediateResultsIN6optikg16ExtractionRecordEEEESt10_Select1stIS7_ESt4lessIiESaIS7_EE11_M_get_nodeEv
FNDA:0,_ZNSt18_Rb_tree_node_base10_S_minimumEPS_
FNDA:0,_ZNSt8_Rb_treeI7QStringSt4pairIKS0_N6optikg12AppConstants14EntityTypeInfoEESt10_Select1stIS6_ESt4lessIS0_ESaIS6_EE11_M_put_nodeEPSt13_Rb_tree_nodeIS6_E
FNDA:4,_ZNSt8_Rb_treeI7QStringSt4pairIKS0_N6optikg6TripleEESt10_Select1stIS5_ESt4lessIS0_ESaIS5_EE11_M_put_nodeEPSt13_Rb_tree_nodeIS5_E
FNDA:220,_ZNSt8_Rb_treeIiSt4pairIKi7QStringESt10_Select1stIS3_ESt4lessIiESaIS3_EE11_M_put_nodeEPSt13_Rb_tree_nodeIS3_E
FNDA:0,_ZNSt8_Rb_treeIiSt4pairIKiN12QtConcurrent19IntermediateResultsIN6optikg16ExtractionRecordEEEESt10_Select1stIS7_ESt4lessIiESaIS7_EE11_M_put_nodeEPSt13_Rb_tree_nodeIS7_E
FNDA:0,_ZNSt8_Rb_treeIiSt4pairIKiN9QtPrivate10ResultItemEESt10_Select1stIS4_ESt4lessIiESaIS4_EE11_M_put_nodeEPSt13_Rb_tree_nodeIS4_E
FNDA:0,_ZNSt8_Rb_treeI7QStringSt4pairIKS0_N6optikg12AppConstants14EntityTypeInfoEESt10_Select1stIS6_ESt4lessIS0_ESaIS6_EE17_M_construct_nodeIJRKS6_EEEvPSt13_Rb_tree_nodeIS6_EDpOT_
FNDA:0,_ZNSt8_Rb_treeI7QStringSt4pairIKS0_N6optikg12AppConstants14EntityTypeInfoEESt10_Select1stIS6_ESt4lessIS0_ESaIS6_EE17_M_construct_nodeIJS6_EEEvPSt13_Rb_tree_nodeIS6_EDpOT_
FNDA:0,_ZNSt8_Rb_treeI7QStringSt4pairIKS0_N6optikg6TripleEESt10_Select1stIS5_ESt4lessIS0_ESaIS5_EE17_M_construct_nodeIJRKS5_EEEvPSt13_Rb_tree_nodeIS5_EDpOT_
FNDA:4,_ZNSt8_Rb_treeI7QStringSt4pairIKS0_N6optikg6TripleEESt10_Select1stIS5_ESt4lessIS0_ESaIS5_EE17_M_construct_nodeIJRKSt21piecewise_construct_tSt5tupleIJRS2_EESG_IJRKS4_EEEEEvPSt13_Rb_tree_nodeIS5_EDpOT_
FNDA:0,_ZNSt8_Rb_treeI7QStringSt4pairIKS0_N6optikg6TripleEESt10_Select1stIS5_ESt4lessIS0_ESaIS5_EE17_M_construct_nodeIJS5_EEEvPSt13_Rb_tree_nodeIS5_EDpOT_
FNDA:0,_ZNSt8_Rb_treeIiSt4pairIKi7QStringESt10_Select1stIS3_ESt4lessIiESaIS3_EE17_M_construct_nodeIJRKS3_EEEvPSt13_Rb_tree_nodeIS3_EDpOT_
FNDA:220,_ZNSt8_Rb_treeIiSt4pairIKi7QStringESt10_Select1stIS3_ESt4lessIiESaIS3_EE17_M_construct_nodeIJS3_EEEvPSt13_Rb_tree_nodeIS3_EDpOT_
FNDA:0,_ZNSt8_Rb_treeIiSt4pairIKiN12QtConcurrent19IntermediateResultsIN6optikg16ExtractionRecordEEEESt10_Select1stIS7_ESt4lessIiESaIS7_EE17_M_construct_nodeIJRKS7_EEEvPSt13_Rb_tree_nodeIS7_EDpOT_
FNDA:0,_ZNSt8_Rb_treeIiSt4pairIKiN12QtConcurrent19IntermediateResultsIN6optikg16ExtractionRecordEEEESt10_Select1stIS7_ESt4lessIiESaIS7_EE17_M_construct_nodeIJRKSt21piecewise_construct_tSt5tupleIJRS1_EESI_IJRKS6_EEEEEvPSt13_Rb_tree_nodeIS7_EDpOT_
FNDA:0,_ZNSt18_Rb_tree_node_base10_S_maximumEPS_
FNDA:0,_ZNSt8_Rb_treeI7QStringSt4pairIKS0_N6optikg12AppConstants14EntityTypeInfoEESt10_Select1stIS6_ESt4lessIS0_ESaIS6_EE14_M_create_nodeIJRKS6_EEEPSt13_Rb_tree_nodeIS6_EDpOT_
FNDA:0,_ZNSt8_Rb_treeI7QStringSt4pairIKS0_N6optikg12AppConstants14EntityTypeInfoEESt10_Select1stIS6_ESt4lessIS0_ESaIS6_EE14_M_create_nodeIJS6_EEEPSt13_Rb_tree_nodeIS6_EDpOT_
FNDA:0,_ZNSt8_Rb_treeI7QStringSt4pairIKS0_N6optikg6TripleEESt10_Select1stIS5_ESt4lessIS0_ESaIS5_EE14_M_create_nodeIJRKS5_EEEPSt13_Rb_tree_nodeIS5_EDpOT_
FNDA:4,_ZNSt8_Rb_treeI7QStringSt4pairIKS0_N6optikg6TripleEESt10_Select1stIS5_ESt4lessIS0_ESaIS5_EE14_M_create_nodeIJRKSt21piecewise_construct_tSt5tupleIJRS2_EESG_IJRKS4_EEEEEPSt13_Rb_tree_nodeIS5_EDpOT_
FNDA:0,_ZNSt8_Rb_treeI7QStringSt4pairIKS0_N6optikg6TripleEESt10_Select1stIS5_ESt4lessIS0_ESaIS5_EE14_M_create_nodeIJS5_EEEPSt13_Rb_tree_nodeIS5_EDpOT_
FNDA:0,_ZNSt8_Rb_treeIiSt4pairIKi7QStringESt10_Select1stIS3_ESt4lessIiESaIS3_EE14_M_create_nodeIJRKS3_EEEPSt13_Rb_tree_nodeIS3_EDpOT_
FNDA:220,_ZNSt8_Rb_treeIiSt4pairIKi7QStringESt10_Select1stIS3_ESt4lessIiESaIS3_EE14_M_create_nodeIJS3_EEEPSt13_Rb_tree_nodeIS3_EDpOT_
FNDA:0,_ZNSt8_Rb_treeIiSt4pairIKiN12QtConcurrent19IntermediateResultsIN6optikg16ExtractionRecordEEEESt10_Select1stIS7_ESt4lessIiESaIS7_EE14_M_create_nodeIJRKS7_EEEPSt13_Rb_tree_nodeIS7_EDpOT_
FNDA:0,_ZNSt8_Rb_treeIiSt4pairIKiN12QtConcurrent19IntermediateResultsIN6optikg16ExtractionRecordEEEESt10_Select1stIS7_ESt4lessIiESaIS7_EE14_M_create_nodeIJRKSt21piecewise_construct_tSt5tupleIJRS1_EESI_IJRKS6_EEEEEPSt13_Rb_tree_nodeIS7_EDpOT_
FNDA:0,_ZNSt8_Rb_treeI7QStringSt4pairIKS0_N6optikg12AppConstants14EntityTypeInfoEESt10_Select1stIS6_ESt4lessIS0_ESaIS6_EE15_M_destroy_nodeEPSt13_Rb_tree_nodeIS6_E
FNDA:4,_ZNSt8_Rb_treeI7QStringSt4pairIKS0_N6optikg6TripleEESt10_Select1stIS5_ESt4lessIS0_ESaIS5_EE15_M_destroy_nodeEPSt13_Rb_tree_nodeIS5_E
FNDA:220,_ZNSt8_Rb_treeIiSt4pairIKi7QStringESt10_Select1stIS3_ESt4lessIiESaIS3_EE15_M_destroy_nodeEPSt13_Rb_tree_nodeIS3_E
FNDA:0,_ZNSt8_Rb_treeIiSt4pairIKiN12QtConcurrent19IntermediateResultsIN6optikg16ExtractionRecordEEEESt10_Select1stIS7_ESt4lessIiESaIS7_EE15_M_destroy_nodeEPSt13_Rb_tree_nodeIS7_E
FNDA:0,_ZNSt8_Rb_treeIiSt4pairIKiN9QtPrivate10ResultItemEESt10_Select1stIS4_ESt4lessIiESaIS4_EE15_M_destroy_nodeEPSt13_Rb_tree_nodeIS4_E
FNDA:0,_ZNSt8_Rb_treeI7QStringSt4pairIKS0_N6optikg12AppConstants14EntityTypeInfoEESt10_Select1stIS6_ESt4lessIS0_ESaIS6_EE12_M_drop_nodeEPSt13_Rb_tree_nodeIS6_E
FNDA:4,_ZNSt8_Rb_treeI7QStringSt4pairIKS0_N6optikg6TripleEESt10_Select1stIS5_ESt4lessIS0_ESaIS5_EE12_M_drop_nodeEPSt13_Rb_tree_nodeIS5_E
FNDA:220,_ZNSt8_Rb_treeIiSt4pairIKi7QStringESt10_Select1stIS3_ESt4lessIiESaIS3_EE12_M_drop_nodeEPSt13_Rb_tree_nodeIS3_E
FNDA:0,_ZNSt8_Rb_treeIiSt4pairIKiN12QtConcurrent19IntermediateResultsIN6optikg16ExtractionRecordEEEESt10_Select1stIS7_ESt4lessIiESaIS7_EE12_M_drop_nodeEPSt13_Rb_tree_nodeIS7_E
FNDA:0,_ZNSt8_Rb_treeIiSt4pairIKiN9QtPrivate10ResultItemEESt10_Select1stIS4_ESt4lessIiESaIS4_EE12_M_drop_nodeEPSt13_Rb_tree_nodeIS4_E
FNDA:0,_ZNSt8_Rb_treeI7QStringSt4pairIKS0_N6optikg12AppConstants14EntityTypeInfoEESt10_Select1stIS6_ESt4lessIS0_ESaIS6_EE13_M_clone_nodeILb0ENSC_11_Alloc_nodeEEEPSt13_Rb_tree_nodeIS6_ESH_RT0_
FNDA:0,_ZNSt8_Rb_treeI7QStringSt4pairIKS0_N6optikg6TripleEESt10_Select1stIS5_ESt4lessIS0_ESaIS5_EE13_M_clone_nodeILb0ENSB_11_Alloc_nodeEEEPSt13_Rb_tree_nodeIS5_ESG_RT0_
FNDA:0,_ZNSt8_Rb_treeIiSt4pairIKi7QStringESt10_Select1stIS3_ESt4lessIiESaIS3_EE13_M_clone_nodeILb0ENS9_11_Alloc_nodeEEEPSt13_Rb_tree_nodeIS3_ESE_RT0_
FNDA:0,_ZNSt8_Rb_treeIiSt4pairIKiN12QtConcurrent19IntermediateResultsIN6optikg16ExtractionRecordEEEESt10_Select1stIS7_ESt4lessIiESaIS7_EE13_M_clone_nodeILb0ENSD_11_Alloc_nodeEEEPSt13_Rb_tree_nodeIS7_ESI_RT0_
FNDA:0,_ZNSt8_Rb_treeI7QStringSt4pairIKS0_N6optikg12AppConstants14EntityTypeInfoEESt10_Select1stIS6_ESt4lessIS0_ESaIS6_EE13_Rb_tree_implISA_Lb1EEC2Ev
FNDA:3,_ZNSt8_Rb_treeI7QStringSt4pairIKS0_N6optikg6TripleEESt10_Select1stIS5_ESt4lessIS0_ESaIS5_EE13_Rb_tree_implIS9_Lb1EEC2Ev
FNDA:55,_ZNSt8_Rb_treeIiSt4pairIKi7QStringESt10_Select1stIS3_ESt4lessIiESaIS3_EE13_Rb_tree_implIS7_Lb1EEC2Ev
FNDA:0,_ZNSt8_Rb_treeIiSt4pairIKiN12QtConcurrent19IntermediateResultsIN6optikg16ExtractionRecordEEEESt10_Select1stIS7_ESt4lessIiESaIS7_EE13_Rb_tree_implISB_Lb1EEC2Ev
FNDA:0,_ZNSt8_Rb_treeI7QStringSt4pairIKS0_N6optikg12AppConstants14EntityTypeInfoEESt10_Select1stIS6_ESt4lessIS0_ESaIS6_EE13_Rb_tree_implISA_Lb1EEC2ERKSE_
FNDA:0,_ZNSt8_Rb_treeI7QStringSt4pairIKS0_N6optikg6TripleEESt10_Select1stIS5_ESt4lessIS0_ESaIS5_EE13_Rb_tree_implIS9_Lb1EEC2ERKSD_
FNDA:0,_ZNSt8_Rb_treeIiSt4pairIKi7QStringESt10_Select1stIS3_ESt4lessIiESaIS3_EE13_Rb_tree_implIS7_Lb1EEC2ERKSB_
FNDA:0,_ZNSt8_Rb_treeIiSt4pairIKiN12QtConcurrent19IntermediateResultsIN6optikg16ExtractionRecordEEEESt10_Select1stIS7_ESt4lessIiESaIS7_EE13_Rb_tree_implISB_Lb1EEC2ERKSF_
FNDA:18925,_ZNKSt18_Rb_tree_node_base11_M_base_ptrEv
FNDA:0,_ZNSt8_Rb_treeI7QStringSt4pairIKS0_N6optikg12AppConstants14EntityTypeInfoEESt10_Select1stIS6_ESt4lessIS0_ESaIS6_EE7_M_rootEv
FNDA:0,_ZNSt8_Rb_treeI7QStringSt4pairIKS0_N6optikg6TripleEESt10_Select1stIS5_ESt4lessIS0_ESaIS5_EE7_M_rootEv
FNDA:0,_ZNSt8_Rb_treeIiSt4pairIKi7QStringESt10_Select1stIS3_ESt4lessIiESaIS3_EE7_M_rootEv
FNDA:0,_ZNSt8_Rb_treeIiSt4pairIKiN12QtConcurrent19IntermediateResultsIN6optikg16ExtractionRecordEEEESt10_Select1stIS7_ESt4lessIiESaIS7_EE7_M_rootEv
FNDA:0,_ZNKSt8_Rb_treeI7QStringSt4pairIKS0_N6optikg12AppConstants14EntityTypeInfoEESt10_Select1stIS6_ESt4lessIS0_ESaIS6_EE7_M_rootEv
FNDA:0,_ZNKSt8_Rb_treeI7QStringSt4pairIKS0_N6optikg6TripleEESt10_Select1stIS5_ESt4lessIS0_ESaIS5_EE7_M_rootEv
FNDA:0,_ZNKSt8_Rb_treeIiSt4pairIKi7QStringESt10_Select1stIS3_ESt4lessIiESaIS3_EE7_M_rootEv
FNDA:0,_ZNKSt8_Rb_treeIiSt4pairIKiN12QtConcurrent19IntermediateResultsIN6optikg16ExtractionRecordEEEESt10_Select1stIS7_ESt4lessIiESaIS7_EE7_M_rootEv
FNDA:0,_ZNSt8_Rb_treeI7QStringSt4pairIKS0_N6optikg12AppConstants14EntityTypeInfoEESt10_Select1stIS6_ESt4lessIS0_ESaIS6_EE11_M_leftmostEv
FNDA:0,_ZNSt8_Rb_treeI7QStringSt4pairIKS0_N6optikg6TripleEESt10_Select1stIS5_ESt4lessIS0_ESaIS5_EE11_M_leftmostEv
FNDA:0,_ZNSt8_Rb_treeIiSt4pairIKi7QStringESt10_Select1stIS3_ESt4lessIiESaIS3_EE11_M_leftmostEv
FNDA:0,_ZNSt8_Rb_treeIiSt4pairIKiN12QtConcurrent19IntermediateResultsIN6optikg16ExtractionRecordEEEESt10_Select1stIS7_ESt4lessIiESaIS7_EE11_M_leftmostEv
FNDA:0,_ZNSt8_Rb_treeI7QStringSt4pairIKS0_N6optikg12AppConstants14EntityTypeInfoEESt10_Select1stIS6_ESt4lessIS0_ESaIS6_EE12_M_rightmostEv
FNDA:2,_ZNSt8_Rb_treeI7QStringSt4pairIKS0_N6optikg6TripleEESt10_Select1stIS5_ESt4lessIS0_ESaIS5_EE12_M_rightmostEv
FNDA:0,_ZNSt8_Rb_treeIiSt4pairIKi7QStringESt10_Select1stIS3_ESt4lessIiESaIS3_EE12_M_rightmostEv
FNDA:0,_ZNSt8_Rb_treeIiSt4pairIKiN12QtConcurrent19IntermediateResultsIN6optikg16ExtractionRecordEEEESt10_Select1stIS7_ESt4lessIiESaIS7_EE12_M_rightmostEv
FNDA:0,_ZNKSt8_Rb_treeI7QStringSt4pairIKS0_N6optikg12AppConstants14EntityTypeInfoEESt10_Select1stIS6_ESt4lessIS0_ESaIS6_EE8_M_beginEv
FNDA:12,_ZNKSt8_Rb_treeI7QStringSt4pairIKS0_N6optikg6TripleEESt10_Select1stIS5_ESt4lessIS0_ESaIS5_EE8_M_beginEv
FNDA:6091,_ZNKSt8_Rb_treeIiSt4pairIKi7QStringESt10_Select1stIS3_ESt4lessIiESaIS3_EE8_M_beginEv
FNDA:0,_ZNKSt8_Rb_treeIiSt4pairIKiN12QtConcurrent19IntermediateResultsIN6optikg16ExtractionRecordEEEESt10_Select1stIS7_ESt4lessIiESaIS7_EE8_M_beginEv
FNDA:0,_ZNKSt8_Rb_treeI7QStringSt4pairIKS0_N6optikg12AppConstants14EntityTypeInfoEESt10_Select1stIS6_ESt4lessIS0_ESaIS6_EE13_M_begin_nodeEv
FNDA:3,_ZNKSt8_Rb_treeI7QStringSt4pairIKS0_N6optikg6TripleEESt10_Select1stIS5_ESt4lessIS0_ESaIS5_EE13_M_begin_nodeEv
FNDA:55,_ZNKSt8_Rb_treeIiSt4pairIKi7QStringESt10_Select1stIS3_ESt4lessIiESaIS3_EE13_M_begin_nodeEv
FNDA:0,_ZNKSt8_Rb_treeIiSt4pairIKiN12QtConcurrent19IntermediateResultsIN6optikg16ExtractionRecordEEEESt10_Select1stIS7_ESt4lessIiESaIS7_EE13_M_begin_nodeEv
FNDA:0,_ZNKSt8_Rb_treeIiSt4pairIKiN9QtPrivate10ResultItemEESt10_Select1stIS4_ESt4lessIiESaIS4_EE13_M_begin_nodeEv
FNDA:0,_ZNKSt8_Rb_treeI7QStringSt4pairIKS0_N6optikg12AppConstants14EntityTypeInfoEESt10_Select1stIS6_ESt4lessIS0_ESaIS6_EE6_M_endEv
FNDA:428,_ZNKSt8_Rb_treeI7QStringSt4pairIKS0_N6optikg6TripleEESt10_Select1stIS5_ESt4lessIS0_ESaIS5_EE6_M_endEv
FNDA:18273,_ZNKSt8_Rb_treeIiSt4pairIKi7QStringESt10_Select1stIS3_ESt4lessIiESaIS3_EE6_M_endEv
FNDA:0,_ZNKSt8_Rb_treeIiSt4pairIKiN12QtConcurrent19IntermediateResultsIN6optikg16ExtractionRecordEEEESt10_Select1stIS7_ESt4lessIiESaIS7_EE6_M_endEv
FNDA:0,_ZNKSt8_Rb_treeIiSt4pairIKiN9QtPrivate10ResultItemEESt10_Select1stIS4_ESt4lessIiESaIS4_EE6_M_endEv
FNDA:0,_ZNSt8_Rb_treeI7QStringSt4pairIKS0_N6optikg12AppConstants14EntityTypeInfoEESt10_Select1stIS6_ESt4lessIS0_ESaIS6_EE6_S_keyERKSt13_Rb_tree_nodeIS6_E
FNDA:19,_ZNSt8_Rb_treeI7QStringSt4pairIKS0_N6optikg6TripleEESt10_Select1stIS5_ESt4lessIS0_ESaIS5_EE6_S_keyERKSt13_Rb_tree_nodeIS5_E
FNDA:17833,_ZNSt8_Rb_treeIiSt4pairIKi7QStringESt10_Select1stIS3_ESt4lessIiESaIS3_EE6_S_keyERKSt13_Rb_tree_nodeIS3_E
FNDA:0,_ZNSt8_Rb_treeIiSt4pairIKiN12QtConcurrent19IntermediateResultsIN6optikg16ExtractionRecordEEEESt10_Select1stIS7_ESt4lessIiESaIS7_EE6_S_keyERKSt13_Rb_tree_nodeIS7_E
FNDA:0,_ZNSt8_Rb_treeI7QStringSt4pairIKS0_N6optikg12AppConstants14EntityTypeInfoEESt10_Select1stIS6_ESt4lessIS0_ESaIS6_EE6_S_keyEPSt18_Rb_tree_node_base
FNDA:14,_ZNSt8_Rb_treeI7QStringSt4pairIKS0_N6optikg6TripleEESt10_Select1stIS5_ESt4lessIS0_ESaIS5_EE6_S_keyEPSt18_Rb_tree_node_base
FNDA:17833,_ZNSt8_Rb_treeIiSt4pairIKi7QStringESt10_Select1stIS3_ESt4lessIiESaIS3_EE6_S_keyEPSt18_Rb_tree_node_base
FNDA:0,_ZNSt8_Rb_treeIiSt4pairIKiN12QtConcurrent19IntermediateResultsIN6optikg16ExtractionRecordEEEESt10_Select1stIS7_ESt4lessIiESaIS7_EE6_S_keyEPSt18_Rb_tree_node_base
FNDA:5,_ZNSt8_Rb_treeI7QStringSt4pairIKS0_N6optikg6TripleEESt10_Select1stIS5_ESt4lessIS0_ESaIS5_EE6_S_keyEPSt13_Rb_tree_nodeIS5_E
FNDA:0,_ZNSt8_Rb_treeIiSt4pairIKiN12QtConcurrent19IntermediateResultsIN6optikg16ExtractionRecordEEEESt10_Select1stIS7_ESt4lessIiESaIS7_EE6_S_keyEPSt13_Rb_tree_nodeIS7_E
FNDA:0,_ZNSt8_Rb_treeI7QStringSt4pairIKS0_N6optikg12AppConstants14EntityTypeInfoEESt10_Select1stIS6_ESt4lessIS0_ESaIS6_EE7_S_leftEPSt18_Rb_tree_node_base
FNDA:5,_ZNSt8_Rb_treeI7QStringSt4pairIKS0_N6optikg6TripleEESt10_Select1stIS5_ESt4lessIS0_ESaIS5_EE7_S_leftEPSt18_Rb_tree_node_base
FNDA:8710,_ZNSt8_Rb_treeIiSt4pairIKi7QStringESt10_Select1stIS3_ESt4lessIiESaIS3_EE7_S_leftEPSt18_Rb_tree_node_base
FNDA:0,_ZNSt8_Rb_treeIiSt4pairIKiN12QtConcurrent19IntermediateResultsIN6optikg16ExtractionRecordEEEESt10_Select1stIS7_ESt4lessIiESaIS7_EE7_S_leftEPSt18_Rb_tree_node_base
FNDA:0,_ZNSt8_Rb_treeI7QStringSt4pairIKS0_N6optikg12AppConstants14EntityTypeInfoEESt10_Select1stIS6_ESt4lessIS0_ESaIS6_EE7_S_leftEPSt13_Rb_tree_nodeIS6_E
FNDA:4,_ZNSt8_Rb_treeI7QStringSt4pairIKS0_N6optikg6TripleEESt10_Select1stIS5_ESt4lessIS0_ESaIS5_EE7_S_leftEPSt13_Rb_tree_nodeIS5_E
FNDA:220,_ZNSt8_Rb_treeIiSt4pairIKi7QStringESt10_Select1stIS3_ESt4lessIiESaIS3_EE7_S_leftEPSt13_Rb_tree_nodeIS3_E
FNDA:0,_ZNSt8_Rb_treeIiSt4pairIKiN12QtConcurrent19IntermediateResultsIN6optikg16ExtractionRecordEEEESt10_Select1stIS7_ESt4lessIiESaIS7_EE7_S_leftEPSt13_Rb_tree_nodeIS7_E
FNDA:0,_ZNSt8_Rb_treeIiSt4pairIKiN9QtPrivate10ResultItemEESt10_Select1stIS4_ESt4lessIiESaIS4_EE7_S_leftEPSt13_Rb_tree_nodeIS4_E
FNDA:0,_ZNSt8_Rb_treeI7QStringSt4pairIKS0_N6optikg12AppConstants14EntityTypeInfoEESt10_Select1stIS6_ESt4lessIS0_ESaIS6_EE8_S_rightEPSt18_Rb_tree_node_base
FNDA:2,_ZNSt8_Rb_treeI7QStringSt4pairIKS0_N6optikg6TripleEESt10_Select1stIS5_ESt4lessIS0_ESaIS5_EE8_S_rightEPSt18_Rb_tree_node_base
FNDA:3142,_ZNSt8_Rb_treeIiSt4pairIKi7QStringESt10_Select1stIS3_ESt4lessIiESaIS3_EE8_S_rightEPSt18_Rb_tree_node_base
FNDA:0,_ZNSt8_Rb_treeIiSt4pairIKiN12QtConcurrent19IntermediateResultsIN6optikg16ExtractionRecordEEEESt10_Select1stIS7_ESt4lessIiESaIS7_EE8_S_rightEPSt18_Rb_tree_node_base
FNDA:3,_ZNSt20_Rb_tree_key_compareISt4lessI7QStringEEC2Ev
FNDA:55,_ZNSt20_Rb_tree_key_compareISt4lessIiEEC2Ev
FNDA:0,_ZNSt8_Rb_treeI7QStringSt4pairIKS0_N6optikg12AppConstants14EntityTypeInfoEESt10_Select1stIS6_ESt4lessIS0_ESaIS6_EE8_S_rightEPSt13_Rb_tree_nodeIS6_E
FNDA:4,_ZNSt8_Rb_treeI7QStringSt4pairIKS0_N6optikg6TripleEESt10_Select1stIS5_ESt4lessIS0_ESaIS5_EE8_S_rightEPSt13_Rb_tree_nodeIS5_E
FNDA:220,_ZNSt8_Rb_treeIiSt4pairIKi7QStringESt10_Select1stIS3_ESt4lessIiESaIS3_EE8_S_rightEPSt13_Rb_tree_nodeIS3_E
FNDA:0,_ZNSt8_Rb_treeIiSt4pairIKiN12QtConcurrent19IntermediateResultsIN6optikg16ExtractionRecordEEEESt10_Select1stIS7_ESt4lessIiESaIS7_EE8_S_rightEPSt13_Rb_tree_nodeIS7_E
FNDA:0,_ZNSt8_Rb_treeIiSt4pairIKiN9QtPrivate10ResultItemEESt10_Select1stIS4_ESt4lessIiESaIS4_EE8_S_rightEPSt13_Rb_tree_nodeIS4_E
FNDA:0,_ZNSt20_Rb_tree_key_compareISt4lessI7QStringEEC2ERKS2_
FNDA:0,_ZNSt20_Rb_tree_key_compareISt4lessIiEEC2ERKS1_
FNDA:0,_ZNSt8_Rb_treeI7QStringSt4pairIKS0_N6optikg12AppConstants14EntityTypeInfoEESt10_Select1stIS6_ESt4lessIS0_ESaIS6_EE7_M_copyILb0ENSC_11_Alloc_nodeEEEPSt18_Rb_tree_node_baseRKSC_RT0_
FNDA:0,_ZNSt8_Rb_treeI7QStringSt4pairIKS0_N6optikg6TripleEESt10_Select1stIS5_ESt4lessIS0_ESaIS5_EE7_M_copyILb0ENSB_11_Alloc_nodeEEEPSt18_Rb_tree_node_baseRKSB_RT0_
FNDA:0,_ZNSt8_Rb_treeIiSt4pairIKi7QStringESt10_Select1stIS3_ESt4lessIiESaIS3_EE7_M_copyILb0ENS9_11_Alloc_nodeEEEPSt18_Rb_tree_node_baseRKS9_RT0_
FNDA:0,_ZNSt8_Rb_treeIiSt4pairIKiN12QtConcurrent19IntermediateResultsIN6optikg16ExtractionRecordEEEESt10_Select1stIS7_ESt4lessIiESaIS7_EE7_M_copyILb0ENSD_11_Alloc_nodeEEEPSt18_Rb_tree_node_baseRKSD_RT0_
FNDA:0,_ZNSt8_Rb_treeI7QStringSt4pairIKS0_N6optikg12AppConstants14EntityTypeInfoEESt10_Select1stIS6_ESt4lessIS0_ESaIS6_EE7_M_copyERKSC_
FNDA:0,_ZNSt8_Rb_treeI7QStringSt4pairIKS0_N6optikg6TripleEESt10_Select1stIS5_ESt4lessIS0_ESaIS5_EE7_M_copyERKSB_
FNDA:0,_ZNSt8_Rb_treeIiSt4pairIKi7QStringESt10_Select1stIS3_ESt4lessIiESaIS3_EE7_M_copyERKS9_
FNDA:0,_ZNSt8_Rb_treeIiSt4pairIKiN12QtConcurrent19IntermediateResultsIN6optikg16ExtractionRecordEEEESt10_Select1stIS7_ESt4lessIiESaIS7_EE7_M_copyERKSD_
FNDA:0,_ZNSt8_Rb_treeI7QStringSt4pairIKS0_N6optikg12AppConstants14EntityTypeInfoEESt10_Select1stIS6_ESt4lessIS0_ESaIS6_EEC2Ev
FNDA:3,_ZNSt8_Rb_treeI7QStringSt4pairIKS0_N6optikg6TripleEESt10_Select1stIS5_ESt4lessIS0_ESaIS5_EEC2Ev
FNDA:55,_ZNSt8_Rb_treeIiSt4pairIKi7QStringESt10_Select1stIS3_ESt4lessIiESaIS3_EEC2Ev
FNDA:0,_ZNSt8_Rb_treeIiSt4pairIKiN12QtConcurrent19IntermediateResultsIN6optikg16ExtractionRecordEEEESt10_Select1stIS7_ESt4lessIiESaIS7_EEC2Ev
FNDA:0,_ZNSt8_Rb_treeI7QStringSt4pairIKS0_N6optikg12AppConstants14EntityTypeInfoEESt10_Select1stIS6_ESt4lessIS0_ESaIS6_EEC2ERKSC_
FNDA:0,_ZNSt8_Rb_treeI7QStringSt4pairIKS0_N6optikg6TripleEESt10_Select1stIS5_ESt4lessIS0_ESaIS5_EEC2ERKSB_
FNDA:0,_ZNSt8_Rb_treeIiSt4pairIKi7QStringESt10_Select1stIS3_ESt4lessIiESaIS3_EEC2ERKS9_
FNDA:0,_ZNSt8_Rb_treeIiSt4pairIKiN12QtConcurrent19IntermediateResultsIN6optikg16ExtractionRecordEEEESt10_Select1stIS7_ESt4lessIiESaIS7_EEC2ERKSD_
FNDA:0,_ZNSt8_Rb_treeI7QStringSt4pairIKS0_N6optikg12AppConstants14EntityTypeInfoEESt10_Select1stIS6_ESt4lessIS0_ESaIS6_EED2Ev
FNDA:3,_ZNSt8_Rb_treeI7QStringSt4pairIKS0_N6optikg6TripleEESt10_Select1stIS5_ESt4lessIS0_ESaIS5_EED2Ev
FNDA:55,_ZNSt8_Rb_treeIiSt4pairIKi7QStringESt10_Select1stIS3_ESt4lessIiESaIS3_EED2Ev
FNDA:0,_ZNSt8_Rb_treeIiSt4pairIKiN12QtConcurrent19IntermediateResultsIN6optikg16ExtractionRecordEEEESt10_Select1stIS7_ESt4lessIiESaIS7_EED2Ev
FNDA:0,_ZNSt8_Rb_treeIiSt4pairIKiN9QtPrivate10ResultItemEESt10_Select1stIS4_ESt4lessIiESaIS4_EED2Ev
FNDA:0,_ZNKSt8_Rb_treeI7QStringSt4pairIKS0_N6optikg6TripleEESt10_Select1stIS5_ESt4lessIS0_ESaIS5_EE8key_compEv
FNDA:0,_ZNKSt8_Rb_treeIiSt4pairIKiN12QtConcurrent19IntermediateResultsIN6optikg16ExtractionRecordEEEESt10_Select1stIS7_ESt4lessIiESaIS7_EE8key_compEv
FNDA:0,_ZNSt8_Rb_treeI7QStringSt4pairIKS0_N6optikg12AppConstants14EntityTypeInfoEESt10_Select1stIS6_ESt4lessIS0_ESaIS6_EE5beginEv
FNDA:275,_ZNSt8_Rb_treeI7QStringSt4pairIKS0_N6optikg6TripleEESt10_Select1stIS5_ESt4lessIS0_ESaIS5_EE5beginEv
FNDA:55,_ZNSt8_Rb_treeIiSt4pairIKi7QStringESt10_Select1stIS3_ESt4lessIiESaIS3_EE5beginEv
FNDA:0,_ZNSt8_Rb_treeIiSt4pairIKiN12QtConcurrent19IntermediateResultsIN6optikg16ExtractionRecordEEEESt10_Select1stIS7_ESt4lessIiESaIS7_EE5beginEv
FNDA:3,_ZNKSt8_Rb_treeI7QStringSt4pairIKS0_N6optikg6TripleEESt10_Select1stIS5_ESt4lessIS0_ESaIS5_EE5beginEv
FNDA:0,_ZNKSt8_Rb_treeIiSt4pairIKiN12QtConcurrent19IntermediateResultsIN6optikg16ExtractionRecordEEEESt10_Select1stIS7_ESt4lessIiESaIS7_EE5beginEv
FNDA:0,_ZNKSt8_Rb_treeIiSt4pairIKiN9QtPrivate10ResultItemEESt10_Select1stIS4_ESt4lessIiESaIS4_EE5beginEv
FNDA:0,_ZNSt8_Rb_treeI7QStringSt4pairIKS0_N6optikg12AppConstants14EntityTypeInfoEESt10_Select1stIS6_ESt4lessIS0_ESaIS6_EE3endEv
FNDA:405,_ZNSt8_Rb_treeI7QStringSt4pairIKS0_N6optikg6TripleEESt10_Select1stIS5_ESt4lessIS0_ESaIS5_EE3endEv
FNDA:660,_ZNSt8_Rb_treeIiSt4pairIKi7QStringESt10_Select1stIS3_ESt4lessIiESaIS3_EE3endEv
FNDA:0,_ZNSt8_Rb_treeIiSt4pairIKiN12QtConcurrent19IntermediateResultsIN6optikg16ExtractionRecordEEEESt10_Select1stIS7_ESt4lessIiESaIS7_EE3endEv
FNDA:3,_ZNKSt8_Rb_treeI7QStringSt4pairIKS0_N6optikg6TripleEESt10_Select1stIS5_ESt4lessIS0_ESaIS5_EE3endEv
FNDA:11302,_ZNKSt8_Rb_treeIiSt4pairIKi7QStringESt10_Select1stIS3_ESt4lessIiESaIS3_EE3endEv
FNDA:0,_ZNKSt8_Rb_treeIiSt4pairIKiN12QtConcurrent19IntermediateResultsIN6optikg16ExtractionRecordEEEESt10_Select1stIS7_ESt4lessIiESaIS7_EE3endEv
FNDA:0,_ZNKSt8_Rb_treeIiSt4pairIKiN9QtPrivate10ResultItemEESt10_Select1stIS4_ESt4lessIiESaIS4_EE3endEv
FNDA:0,_ZNKSt8_Rb_treeI7QStringSt4pairIKS0_N6optikg12AppConstants14EntityTypeInfoEESt10_Select1stIS6_ESt4lessIS0_ESaIS6_EE5emptyEv
FNDA:0,_ZNKSt8_Rb_treeIiSt4pairIKiN12QtConcurrent19IntermediateResultsIN6optikg16ExtractionRecordEEEESt10_Select1stIS7_ESt4lessIiESaIS7_EE5emptyEv
FNDA:7,_ZNKSt8_Rb_treeI7QStringSt4pairIKS0_N6optikg6TripleEESt10_Select1stIS5_ESt4lessIS0_ESaIS5_EE4sizeEv
FNDA:55,_ZNKSt8_Rb_treeIiSt4pairIKi7QStringESt10_Select1stIS3_ESt4lessIiESaIS3_EE4sizeEv
FNDA:0,_ZNKSt8_Rb_treeIiSt4pairIKiN12QtConcurrent19IntermediateResultsIN6optikg16ExtractionRecordEEEESt10_Select1stIS7_ESt4lessIiESaIS7_EE4sizeEv
FNDA:0,_ZNSt8_Rb_treeIiSt4pairIKiN12QtConcurrent19IntermediateResultsIN6optikg16ExtractionRecordEEEESt10_Select1stIS7_ESt4lessIiESaIS7_EE17_M_insert_unique_IRKS7_EESt17_Rb_tree_iteratorIS7_ESt23_Rb_tree_const_iteratorIS7_EOT_
FNDA:58,_ZNSt15_Rb_tree_headerC2Ev
FNDA:0,_ZNSt8_Rb_treeIiSt4pairIKiN12QtConcurrent19IntermediateResultsIN6optikg16ExtractionRecordEEEESt10_Select1stIS7_ESt4lessIiESaIS7_EE5eraseB5cxx11ESt23_Rb_tree_const_iteratorIS7_ESF_
FNDA:0,_ZNSt8_Rb_treeIiSt4pairIKiN12QtConcurrent19IntermediateResultsIN6optikg16ExtractionRecordEEEESt10_Select1stIS7_ESt4lessIiESaIS7_EE5clearEv
FNDA:0,_ZNSt8_Rb_treeIiSt4pairIKiN9QtPrivate10ResultItemEESt10_Select1stIS4_ESt4lessIiESaIS4_EE5clearEv
FNDA:4,_ZNSt8_Rb_treeI7QStringSt4pairIKS0_N6optikg6TripleEESt10_Select1stIS5_ESt4lessIS0_ESaIS5_EE11lower_boundERS2_
FNDA:0,_ZNSt8_Rb_treeIiSt4pairIKiN12QtConcurrent19IntermediateResultsIN6optikg16ExtractionRecordEEEESt10_Select1stIS7_ESt4lessIiESaIS7_EE11lower_boundERS1_
FNDA:58,_ZNSt15_Rb_tree_header8_M_resetEv
FNDA:4,_ZNSt8_Rb_treeI7QStringSt4pairIKS0_N6optikg6TripleEESt10_Select1stIS5_ESt4lessIS0_ESaIS5_EE10_Auto_nodeC2IJRKSt21piecewise_construct_tSt5tupleIJRS2_EESH_IJRKS4_EEEEERSB_DpOT_
FNDA:0,_ZNSt8_Rb_treeIiSt4pairIKiN12QtConcurrent19IntermediateResultsIN6optikg16ExtractionRecordEEEESt10_Select1stIS7_ESt4lessIiESaIS7_EE10_Auto_nodeC2IJRKSt21piecewise_construct_tSt5tupleIJRS1_EESJ_IJRKS6_EEEEERSD_DpOT_
FNDA:4,_ZNSt8_Rb_treeI7QStringSt4pairIKS0_N6optikg6TripleEESt10_Select1stIS5_ESt4lessIS0_ESaIS5_EE10_Auto_nodeD2Ev
