TN:
SF:/home/fed/Documents/clion-workspace/qt-try/src/core/batchprocessor.cpp
FN:101,106,_ZN6optikg14BatchProcessorC2EP7QObject
FN:108,112,_ZN6optikg14BatchProcessorD0Ev
FN:108,112,_ZN6optikg14BatchProcessorD2Ev
FN:114,116,_ZN6optikg14BatchProcessor8setFilesERK5QListI7QStringE
FN:118,120,_ZN6optikg14BatchProcessor19setJsonContentFieldERK7QString
FN:122,124,_ZN6optikg14BatchProcessor19setCsvContentColumnERK7QString
FN:126,128,_ZN6optikg14BatchProcessor14setCsvEncodingERK7QString
FN:130,132,_ZN6optikg14BatchProcessor12setThresholdEf
FN:134,136,_ZN6optikg14BatchProcessor12setModelPathERK7QString
FN:138,140,_ZN6optikg14BatchProcessor4stopEv
FN:142,144,_ZNK6optikg14BatchProcessor10getResultsEv
FN:146,288,_ZN6optikg14BatchProcessor3runEv
FN:292,355,_ZN6optikg14BatchProcessor17processSingleTextERK7QStringfS3_S3_R10QAtomicInti
FN:31,34,_ZN6optikgL16getEngineStorageEv
FN:359,518,_ZN6optikg14BatchProcessor15processJsonFileERK7QStringPNS_15InferenceEngineE
FN:37,40,_ZN6optikgL17getModelLoadMutexEv
FN:43,46,_ZN6optikgL21getModelLoadAttemptedEv
FN:520,617,_ZN6optikg14BatchProcessor14processCsvFileERK7QStringPNS_15InferenceEngineE
FN:53,99,_ZN6optikgL12parseCsvLineERK7QString
FN:619,669,_ZN6optikg14BatchProcessor15extractFromTextERK7QStringPNS_15InferenceEngineEi
FN:673,747,_ZN6optikg14BatchProcessor12scanJsonFileERK7QString
FN:749,778,_ZN6optikg14BatchProcessor11scanCsvFileERK7QString
FN:782,895,_ZN6optikg14BatchProcessor27processJsonFileWithProgressERK7QStringPNS_15InferenceEngineERii
FN:873,875,_ZZN6optikg14BatchProcessor27processJsonFileWithProgressERK7QStringPNS_15InferenceEngineERiiENKUlS3_E_clES3_
FN:897,1006,_ZN6optikg14BatchProcessor26processCsvFileWithProgressERK7QStringPNS_15InferenceEngineERii
FN:983,985,_ZZN6optikg14BatchProcessor26processCsvFileWithProgressERK7QStringPNS_15InferenceEngineERiiENKUlS3_E_clES3_
FNDA:62,_ZN6optikg14BatchProcessorC2EP7QObject
FNDA:0,_ZN6optikg14BatchProcessorD0Ev
FNDA:62,_ZN6optikg14BatchProcessorD2Ev
FNDA:44,_ZN6optikg14BatchProcessor8setFilesERK5QListI7QStringE
FNDA:34,_ZN6optikg14BatchProcessor19setJsonContentFieldERK7QString
FNDA:6,_ZN6optikg14BatchProcessor19setCsvContentColumnERK7QString
FNDA:2,_ZN6optikg14BatchProcessor14setCsvEncodingERK7QString
FNDA:4,_ZN6optikg14BatchProcessor12setThresholdEf
FNDA:34,_ZN6optikg14BatchProcessor12setModelPathERK7QString
FNDA:68,_ZN6optikg14BatchProcessor4stopEv
FNDA:10,_ZNK6optikg14BatchProcessor10getResultsEv
FNDA:46,_ZN6optikg14BatchProcessor3runEv
FNDA:0,_ZN6optikg14BatchProcessor17processSingleTextERK7QStringfS3_S3_R10QAtomicInti
FNDA:0,_ZN6optikgL16getEngineStorageEv
FNDA:0,_ZN6optikg14BatchProcessor15processJsonFileERK7QStringPNS_15InferenceEngineE
FNDA:0,_ZN6optikgL17getModelLoadMutexEv
FNDA:70,_ZN6optikgL21getModelLoadAttemptedEv
FNDA:0,_ZN6optikg14BatchProcessor14processCsvFileERK7QStringPNS_15InferenceEngineE
FNDA:0,_ZN6optikgL12parseCsvLineERK7QString
FNDA:0,_ZN6optikg14BatchProcessor15extractFromTextERK7QStringPNS_15InferenceEngineEi
FNDA:48,_ZN6optikg14BatchProcessor12scanJsonFileERK7QString
FNDA:4,_ZN6optikg14BatchProcessor11scanCsvFileERK7QString
FNDA:0,_ZN6optikg14BatchProcessor27processJsonFileWithProgressERK7QStringPNS_15InferenceEngineERii
FNDA:0,_ZZN6optikg14BatchProcessor27processJsonFileWithProgressERK7QStringPNS_15InferenceEngineERiiENKUlS3_E_clES3_
FNDA:0,_ZN6optikg14BatchProcessor26processCsvFileWithProgressERK7QStringPNS_15InferenceEngineERii
FNDA:0,_ZZN6optikg14BatchProcessor26processCsvFileWithProgressERK7QStringPNS_15InferenceEngineERiiENKUlS3_E_clES3_
FNF:26
FNH:14
DA:31,0
DA:32,0
DA:33,0
DA:37,0
DA:38,0
DA:39,0
DA:43,70
DA:45,70
DA:53,0
DA:54,0
DA:55,0
DA:56,0
DA:58,0
DA:59,0
DA:61,0
DA:62,0
DA:64,0
DA:65,0
DA:67,0
DA:69,0
DA:71,0
DA:72,0
DA:74,0
DA:79,0
DA:82,0
DA:83,0
DA:84,0
DA:85,0
DA:89,0
DA:90,0
DA:92,0
DA:95,0
DA:98,0
DA:99,0
DA:101,62
DA:103,62
DA:105,62
DA:106,62
DA:108,62
DA:109,62
DA:110,62
DA:111,62
DA:112,62
DA:114,44
DA:115,44
DA:116,44
DA:118,34
DA:119,34
DA:120,34
DA:122,6
DA:123,6
DA:124,6
DA:126,2
DA:127,2
DA:128,2
DA:130,4
DA:131,4
DA:132,4
DA:134,34
DA:135,34
DA:136,34
DA:138,68
DA:139,68
DA:140,68
DA:142,10
DA:143,10
DA:146,46
DA:147,46
DA:148,46
DA:150,46
DA:152,46
DA:153,46
DA:154,46
DA:155,46
DA:156,46
DA:158,46
DA:159,46
DA:160,92
DA:161,92
DA:162,92
DA:163,92
DA:164,46
DA:167,46
DA:168,46
DA:170,46
DA:172,100
DA:173,54
DA:174,0
DA:175,0
DA:178,54
DA:179,54
DA:180,54
DA:183,54
DA:184,54
DA:185,54
DA:186,48
DA:187,6
DA:188,4
DA:191,54
DA:192,54
DA:194,162
DA:195,54
DA:197,46
DA:198,92
DA:200,46
DA:201,22
DA:202,22
DA:203,22
DA:207,24
DA:208,24
DA:211,24
DA:212,0
DA:213,0
DA:216,24
DA:217,24
DA:218,48
DA:219,24
DA:221,48
DA:222,24
DA:223,24
DA:224,24
DA:226,0
DA:227,0
DA:228,0
DA:229,0
DA:232,0
DA:236,24
DA:238,52
DA:239,28
DA:240,0
DA:241,0
DA:244,28
DA:245,28
DA:246,28
DA:248,112
DA:249,56
DA:252,28
DA:253,28
DA:255,28
DA:256,0
DA:257,28
DA:258,0
DA:260,28
DA:261,28
DA:265,28
DA:266,0
DA:268,28
DA:269,28
DA:272,28
DA:273,28
DA:275,56
DA:276,112
DA:277,28
DA:279,24
DA:280,24
DA:281,48
DA:282,48
DA:283,48
DA:284,48
DA:285,24
DA:287,24
DA:288,46
DA:292,0
DA:297,0
DA:298,0
DA:301,0
DA:302,0
DA:305,0
DA:306,0
DA:308,0
DA:309,0
DA:311,0
DA:312,0
DA:316,0
DA:319,0
DA:320,0
DA:321,0
DA:322,0
DA:323,0
DA:324,0
DA:325,0
DA:326,0
DA:328,0
DA:330,0
DA:332,0
DA:333,0
DA:334,0
DA:335,0
DA:338,0
DA:339,0
DA:340,0
DA:344,0
DA:347,0
DA:350,0
DA:351,0
DA:354,0
DA:355,0
DA:359,0
DA:360,0
DA:361,0
DA:362,0
DA:365,0
DA:366,0
DA:367,0
DA:368,0
DA:371,0
DA:372,0
DA:375,0
DA:376,0
DA:379,0
DA:381,0
DA:383,0
DA:384,0
DA:386,0
DA:387,0
DA:389,0
DA:390,0
DA:391,0
DA:394,0
DA:395,0
DA:398,0
DA:399,0
DA:401,0
DA:402,0
DA:404,0
DA:405,0
DA:406,0
DA:407,0
DA:408,0
DA:410,0
DA:413,0
DA:414,0
DA:417,0
DA:420,0
DA:421,0
DA:422,0
DA:425,0
DA:426,0
DA:428,0
DA:430,0
DA:431,0
DA:434,0
DA:435,0
DA:436,0
DA:437,0
DA:438,0
DA:439,0
DA:440,0
DA:441,0
DA:442,0
DA:443,0
DA:445,0
DA:446,0
DA:447,0
DA:448,0
DA:449,0
DA:452,0
DA:454,0
DA:455,0
DA:456,0
DA:458,0
DA:459,0
DA:461,0
DA:462,0
DA:463,0
DA:464,0
DA:465,0
DA:466,0
DA:467,0
DA:469,0
DA:471,0
DA:473,0
DA:474,0
DA:477,0
DA:478,0
DA:479,0
DA:480,0
DA:483,0
DA:485,0
DA:486,0
DA:487,0
DA:488,0
DA:491,0
DA:492,0
DA:493,0
DA:494,0
DA:495,0
DA:498,0
DA:501,0
DA:502,0
DA:504,0
DA:508,0
DA:509,0
DA:510,0
DA:511,0
DA:512,0
DA:514,0
DA:515,0
DA:517,0
DA:518,0
DA:520,0
DA:521,0
DA:522,0
DA:523,0
DA:526,0
DA:527,0
DA:528,0
DA:529,0
DA:533,0
DA:534,0
DA:535,0
DA:536,0
DA:537,0
DA:538,0
DA:540,0
DA:543,0
DA:546,0
DA:547,0
DA:548,0
DA:549,0
DA:550,0
DA:554,0
DA:555,0
DA:557,0
DA:558,0
DA:559,0
DA:560,0
DA:561,0
DA:563,0
DA:565,0
DA:566,0
DA:567,0
DA:568,0
DA:569,0
DA:570,0
DA:574,0
DA:575,0
DA:577,0
DA:578,0
DA:579,0
DA:581,0
DA:582,0
DA:586,0
DA:588,0
DA:589,0
DA:590,0
DA:591,0
DA:593,0
DA:594,0
DA:596,0
DA:599,0
DA:600,0
DA:601,0
DA:602,0
DA:605,0
DA:608,0
DA:609,0
DA:610,0
DA:611,0
DA:613,0
DA:614,0
DA:616,0
DA:617,0
DA:619,0
DA:620,0
DA:623,0
DA:624,0
DA:625,0
DA:628,0
DA:629,0
DA:630,0
DA:633,0
DA:634,0
DA:635,0
DA:638,0
DA:639,0
DA:640,0
DA:643,0
DA:644,0
DA:645,0
DA:648,0
DA:650,0
DA:652,0
DA:653,0
DA:655,0
DA:656,0
DA:657,0
DA:658,0
DA:659,0
DA:660,0
DA:661,0
DA:663,0
DA:664,0
DA:668,0
DA:669,0
DA:673,48
DA:674,96
DA:675,48
DA:676,48
DA:677,40
DA:678,40
DA:679,20
DA:682,28
DA:683,28
DA:684,56
DA:687,28
DA:688,28
DA:690,28
DA:691,24
DA:692,24
DA:693,22
DA:694,44
DA:695,22
DA:696,2
DA:697,2
DA:698,2
DA:700,14
DA:701,8
DA:702,6
DA:703,0
DA:704,0
DA:705,0
DA:709,2
DA:710,0
DA:711,0
DA:713,4
DA:714,4
DA:715,2
DA:716,2
DA:720,8
DA:721,4
DA:722,4
DA:723,4
DA:724,4
DA:725,12
DA:726,8
DA:727,8
DA:728,8
DA:730,8
DA:731,8
DA:732,8
DA:733,6
DA:734,6
DA:736,6
DA:739,8
DA:740,8
DA:743,4
DA:744,4
DA:746,4
DA:747,48
DA:749,4
DA:750,8
DA:751,4
DA:752,4
DA:753,0
DA:754,0
DA:755,0
DA:758,4
DA:759,4
DA:760,8
DA:761,4
DA:762,0
DA:763,0
DA:764,0
DA:767,4
DA:768,14
DA:769,10
DA:770,10
DA:771,10
DA:773,10
DA:775,4
DA:776,8
DA:777,4
DA:778,4
DA:782,0
DA:788,0
DA:789,0
DA:790,0
DA:792,0
DA:793,0
DA:794,0
DA:795,0
DA:798,0
DA:799,0
DA:802,0
DA:803,0
DA:805,0
DA:807,0
DA:809,0
DA:810,0
DA:812,0
DA:813,0
DA:814,0
DA:816,0
DA:817,0
DA:818,0
DA:819,0
DA:820,0
DA:821,0
DA:822,0
DA:823,0
DA:825,0
DA:826,0
DA:827,0
DA:828,0
DA:829,0
DA:830,0
DA:831,0
DA:832,0
DA:833,0
DA:834,0
DA:835,0
DA:836,0
DA:839,0
DA:840,0
DA:842,0
DA:843,0
DA:844,0
DA:845,0
DA:846,0
DA:847,0
DA:848,0
DA:850,0
DA:854,0
DA:855,0
DA:856,0
DA:857,0
DA:858,0
DA:862,0
DA:863,0
DA:866,0
DA:869,0
DA:870,0
DA:873,0
DA:874,0
DA:875,0
DA:878,0
DA:879,0
DA:880,0
DA:883,0
DA:884,0
DA:885,0
DA:889,0
DA:891,0
DA:892,0
DA:894,0
DA:895,0
DA:897,0
DA:903,0
DA:904,0
DA:905,0
DA:907,0
DA:908,0
DA:909,0
DA:910,0
DA:914,0
DA:915,0
DA:916,0
DA:917,0
DA:918,0
DA:919,0
DA:921,0
DA:924,0
DA:926,0
DA:927,0
DA:928,0
DA:929,0
DA:930,0
DA:934,0
DA:935,0
DA:936,0
DA:937,0
DA:938,0
DA:939,0
DA:943,0
DA:944,0
DA:945,0
DA:946,0
DA:947,0
DA:948,0
DA:952,0
DA:953,0
DA:954,0
DA:955,0
DA:957,0
DA:958,0
DA:959,0
DA:960,0
DA:961,0
DA:963,0
DA:964,0
DA:966,0
DA:968,0
DA:969,0
DA:970,0
DA:971,0
DA:975,0
DA:976,0
DA:979,0
DA:980,0
DA:983,0
DA:984,0
DA:985,0
DA:988,0
DA:989,0
DA:990,0
DA:993,0
DA:994,0
DA:995,0
DA:999,0
DA:1000,0
DA:1002,0
DA:1003,0
DA:1005,0
DA:1006,0
LF:615
LH:184
end_of_record
TN:
SF:/home/fed/Documents/clion-workspace/qt-try/src/core/inferenceengine.cpp
FN:138,155,_ZN6optikg15InferenceEngine13loadTokenizerERK7QString
FN:157,206,_ZN6optikg15InferenceEngine12loadMetadataERK7QString
FN:208,218,_ZN6optikg15InferenceEngine5inferERK7QString
FN:227,476,_ZN6optikg15InferenceEngine12runInferenceERK7QString
FN:27,27,_ZN6optikg15InferenceEngineC2Ev
FN:29,31,_ZN6optikg15InferenceEngineD2Ev
FN:33,35,_ZN6optikg15InferenceEngine6unloadEv
FN:37,42,_ZN6optikg15InferenceEngine7cleanupEv
FN:395,402,_ZZN6optikg15InferenceEngine12runInferenceERK7QStringENKUlPfiiiE_clES4_iii
FN:44,136,_ZN6optikg15InferenceEngine9loadModelERK7QString
FN:441,457,_ZZN6optikg15InferenceEngine12runInferenceERK7QStringENKUlS3_E_clES3_
FN:478,611,_ZN6optikg15InferenceEngine13inferLongTextERK7QStringii
FN:535,542,_ZZN6optikg15InferenceEngine13inferLongTextERK7QStringiiENKUlS3_E_clES3_
FN:545,558,_ZZN6optikg15InferenceEngine13inferLongTextERK7QStringiiENKUlS3_S3_E_clES3_S3_
FNDA:55,_ZN6optikg15InferenceEngine13loadTokenizerERK7QString
FNDA:55,_ZN6optikg15InferenceEngine12loadMetadataERK7QString
FNDA:249,_ZN6optikg15InferenceEngine5inferERK7QString
FNDA:245,_ZN6optikg15InferenceEngine12runInferenceERK7QString
FNDA:89,_ZN6optikg15InferenceEngineC2Ev
FNDA:89,_ZN6optikg15InferenceEngineD2Ev
FNDA:25,_ZN6optikg15InferenceEngine6unloadEv
FNDA:116,_ZN6optikg15InferenceEngine7cleanupEv
FNDA:6565996,_ZZN6optikg15InferenceEngine12runInferenceERK7QStringENKUlPfiiiE_clES4_iii
FNDA:91,_ZN6optikg15InferenceEngine9loadModelERK7QString
FNDA:11302,_ZZN6optikg15InferenceEngine12runInferenceERK7QStringENKUlS3_E_clES3_
FNDA:3,_ZN6optikg15InferenceEngine13inferLongTextERK7QStringii
FNDA:1318,_ZZN6optikg15InferenceEngine13inferLongTextERK7QStringiiENKUlS3_E_clES3_
FNDA:774,_ZZN6optikg15InferenceEngine13inferLongTextERK7QStringiiENKUlS3_S3_E_clES3_S3_
FNF:14
FNH:14
DA:27,89
DA:29,89
DA:30,89
DA:31,89
DA:33,25
DA:34,25
DA:35,25
DA:37,116
DA:38,116
DA:39,116
DA:40,116
DA:41,116
DA:42,116
DA:44,91
DA:45,91
DA:46,4
DA:47,4
DA:50,87
DA:52,2
DA:56,85
DA:57,0
DA:60,85
DA:61,170
DA:63,85
DA:64,85
DA:65,56
DA:66,28
DA:71,57
DA:73,57
DA:74,57
DA:75,57
DA:76,57
DA:82,57
DA:83,57
DA:86,57
DA:89,55
DA:90,55
DA:91,55
DA:92,0
DA:93,0
DA:94,0
DA:98,55
DA:99,55
DA:100,55
DA:101,0
DA:102,0
DA:103,0
DA:104,0
DA:105,0
DA:106,0
DA:107,0
DA:108,0
DA:109,0
DA:110,0
DA:111,0
DA:112,0
DA:113,0
DA:116,0
DA:117,0
DA:120,55
DA:121,55
DA:122,165
DA:124,55
DA:125,55
DA:127,61
DA:128,4
DA:129,2
DA:130,2
DA:131,2
DA:132,0
DA:133,0
DA:134,0
DA:135,0
DA:136,85
DA:138,55
DA:139,55
DA:140,55
DA:141,0
DA:142,0
DA:144,55
DA:145,55
DA:148,55
DA:149,110
DA:150,55
DA:151,0
DA:152,0
DA:153,0
DA:154,0
DA:155,55
DA:157,55
DA:158,55
DA:159,55
DA:160,0
DA:161,0
DA:164,55
DA:165,55
DA:167,55
DA:168,55
DA:169,0
DA:170,0
DA:173,55
DA:176,55
DA:177,0
DA:182,55
DA:183,55
DA:185,55
DA:186,55
DA:189,55
DA:190,0
DA:191,0
DA:194,55
DA:195,275
DA:196,220
DA:197,220
DA:198,220
DA:199,220
DA:201,110
DA:202,165
DA:203,165
DA:204,110
DA:205,55
DA:206,55
DA:208,249
DA:209,249
DA:210,4
DA:211,4
DA:214,490
DA:215,245
DA:216,490
DA:217,245
DA:218,245
DA:227,245
DA:228,245
DA:229,0
DA:230,0
DA:232,245
DA:233,0
DA:234,0
DA:237,245
DA:239,245
DA:240,245
DA:241,8
DA:245,237
DA:246,237
DA:247,6
DA:249,6
DA:250,4
DA:252,36
DA:253,12
DA:254,10
DA:255,2
DA:256,4
DA:257,2
DA:260,4
DA:261,2
DA:263,6
DA:265,237
DA:266,0
DA:268,237
DA:269,237
DA:270,0
DA:271,0
DA:273,711
DA:276,237
DA:277,474
DA:278,237
DA:280,2
DA:281,2
DA:282,2
DA:283,6
DA:286,2
DA:288,2
DA:289,2
DA:290,4
DA:291,2
DA:293,2
DA:295,2
DA:296,0
DA:299,2
DA:301,4
DA:302,2
DA:304,4
DA:306,2
DA:308,474
DA:309,474
DA:310,474
DA:312,237
DA:313,237
DA:314,237
DA:315,16441
DA:316,15967
DA:318,237
DA:319,237
DA:320,105140
DA:321,104903
DA:324,237
DA:325,0
DA:326,0
DA:330,237
DA:331,16678
DA:332,16441
DA:336,237
DA:337,474
DA:340,237
DA:342,237
DA:344,237
DA:345,237
DA:346,237
DA:347,237
DA:348,237
DA:349,237
DA:350,237
DA:352,237
DA:353,237
DA:354,237
DA:356,237
DA:357,474
DA:359,237
DA:362,474
DA:365,237
DA:366,0
DA:367,0
DA:370,237
DA:371,0
DA:372,0
DA:374,237
DA:375,237
DA:376,0
DA:377,0
DA:379,237
DA:380,237
DA:381,237
DA:382,237
DA:383,237
DA:386,237
DA:387,0
DA:388,0
DA:391,237
DA:392,237
DA:393,237
DA:395,6565996
DA:396,6565996
DA:397,160832
DA:398,40208
DA:400,6525788
DA:401,6525788
DA:402,237
DA:405,237
DA:406,16678
DA:407,3259231
DA:408,3242790
DA:409,3242790
DA:410,3242790
DA:411,726
DA:413,3242790
DA:414,566
DA:420,237
DA:421,1185
DA:422,4800
DA:423,46016
DA:424,40208
DA:425,40208
DA:426,40208
DA:427,11302
DA:428,5651
DA:429,5651
DA:432,0
DA:433,22604
DA:435,0
DA:436,22604
DA:437,5651
DA:438,5651
DA:441,11302
DA:442,11302
DA:443,92982
DA:444,81680
DA:445,25973
DA:446,25973
DA:448,25973
DA:449,25973
DA:450,25973
DA:451,21941
DA:454,59739
DA:456,11302
DA:457,0
DA:459,5651
DA:460,5651
DA:462,5651
DA:464,5651
DA:465,11302
DA:466,5651
DA:467,5651
DA:468,5651
DA:469,5651
DA:474,474
DA:475,237
DA:476,245
DA:478,3
DA:479,3
DA:480,0
DA:484,3
DA:485,0
DA:488,6
DA:489,12
DA:491,3
DA:494,3
DA:495,24
DA:496,24
DA:499,24
DA:501,21
DA:502,21
DA:503,21
DA:507,24
DA:510,24
DA:511,48
DA:512,120
DA:514,24
DA:517,24
DA:518,3
DA:522,21
DA:523,21
DA:524,0
DA:528,63
DA:529,27
DA:532,3
DA:535,1318
DA:536,1318
DA:538,2636
DA:539,2636
DA:540,2636
DA:541,1318
DA:542,0
DA:545,774
DA:546,774
DA:547,119
DA:550,119
DA:551,119
DA:552,357
DA:553,238
DA:554,238
DA:557,119
DA:561,3
DA:562,3
DA:564,275
DA:565,272
DA:566,272
DA:567,272
DA:570,272
DA:572,272
DA:574,391
DA:575,387
DA:576,387
DA:577,387
DA:578,387
DA:581,387
DA:582,387
DA:583,387
DA:586,387
DA:587,268
DA:589,268
DA:590,5
DA:591,10
DA:592,20
DA:594,268
DA:596,923
DA:598,272
DA:599,4
DA:601,272
DA:603,3
DA:605,6
DA:606,6
DA:607,6
DA:608,6
DA:610,3
DA:611,3
LF:375
LH:314
end_of_record
TN:
SF:/home/fed/Documents/clion-workspace/qt-try/src/core/inferenceworker.cpp
FN:10,14,_ZN6optikg15InferenceWorkerC2EP7QObject
FN:16,20,_ZN6optikg15InferenceWorkerD0Ev
FN:16,20,_ZN6optikg15InferenceWorkerD2Ev
FN:22,24,_ZN6optikg15InferenceWorker7setTextERK7QString
FN:26,28,_ZN6optikg15InferenceWorker12setModelPathERK7QString
FN:30,32,_ZN6optikg15InferenceWorker12setThresholdEf
FN:34,36,_ZN6optikg15InferenceWorker4stopEv
FN:38,82,_ZN6optikg15InferenceWorker3runEv
FNDA:0,_ZN6optikg15InferenceWorkerC2EP7QObject
FNDA:0,_ZN6optikg15InferenceWorkerD0Ev
FNDA:0,_ZN6optikg15InferenceWorkerD2Ev
FNDA:0,_ZN6optikg15InferenceWorker7setTextERK7QString
FNDA:0,_ZN6optikg15InferenceWorker12setModelPathERK7QString
FNDA:0,_ZN6optikg15InferenceWorker12setThresholdEf
FNDA:0,_ZN6optikg15InferenceWorker4stopEv
FNDA:0,_ZN6optikg15InferenceWorker3runEv
FNF:8
FNH:0
DA:10,0
DA:12,0
DA:13,0
DA:14,0
DA:16,0
DA:17,0
DA:18,0
DA:19,0
DA:20,0
DA:22,0
DA:23,0
DA:24,0
DA:26,0
DA:27,0
DA:28,0
DA:30,0
DA:31,0
DA:32,0
DA:34,0
DA:35,0
DA:36,0
DA:38,0
DA:39,0
DA:40,0
DA:42,0
DA:45,0
DA:46,0
DA:47,0
DA:48,0
DA:50,0
DA:52,0
DA:54,0
DA:56,0
DA:57,0
DA:59,0
DA:61,0
DA:62,0
DA:63,0
DA:64,0
DA:66,0
DA:69,0
DA:70,0
DA:71,0
DA:72,0
DA:76,0
DA:78,0
DA:79,0
DA:81,0
DA:82,0
LF:49
LH:0
end_of_record
TN:
SF:/home/fed/Documents/clion-workspace/qt-try/src/data/databasemanager.cpp
FN:113,139,_ZN6optikg15DatabaseManager28createExtractionRecordsTableEv
FN:141,165,_ZN6optikg15DatabaseManager19createEntitiesTableEv
FN:167,193,_ZN6optikg15DatabaseManager20createRelationsTableEv
FN:19,25,_ZN12_GLOBAL__N_1L15checkMainThreadERK7QString
FN:195,237,_ZN6optikg15DatabaseManager22insertExtractionRecordERKNS_16ExtractionRecordE
FN:239,312,_ZN6optikg15DatabaseManager11saveTriplesExRK5QListINS_6TripleEE
FN:30,33,_ZN6optikg15DatabaseManagerC2EP7QObject
FN:315,331,_ZN6optikg15DatabaseManager22deleteExtractionRecordEx
FN:333,371,_ZN6optikg15DatabaseManager23getAllExtractionRecordsEi
FN:35,37,_ZN6optikg15DatabaseManagerD0Ev
FN:35,37,_ZN6optikg15DatabaseManagerD2Ev
FN:373,409,_ZN6optikg15DatabaseManager22updateExtractionRecordERKNS_16ExtractionRecordE
FN:39,42,_ZN6optikg15DatabaseManager8instanceEv
FN:411,437,_ZN6optikg15DatabaseManager21deleteMultipleRecordsERK5QListIxE
FN:439,468,_ZN6optikg15DatabaseManager19getExtractionRecordEx
FN:44,89,_ZN6optikg15DatabaseManager10initializeERK7QString
FN:470,542,_ZN6optikg15DatabaseManager23searchExtractionRecordsERK7QStringRK9QDateTimeS6_ii
FN:544,554,_ZN6optikg15DatabaseManager14getRecordCountEv
FN:556,566,_ZN6optikg15DatabaseManager14getEntityCountEv
FN:568,578,_ZN6optikg15DatabaseManager16getRelationCountEv
FN:580,590,_ZN6optikg15DatabaseManager20getAverageConfidenceEv
FN:592,655,_ZN6optikg15DatabaseManager11loadTriplesEx
FN:657,753,_ZN6optikg15DatabaseManager14importFromJsonERK7QString
FN:755,818,_ZN6optikg15DatabaseManager12exportToJsonERK7QStringRK5QListIxE
FN:820,870,_ZN6optikg15DatabaseManager11exportToCsvERK7QStringRK5QListIxE
FN:873,902,_ZN6optikg15DatabaseManager21classifyDatabaseErrorERK7QString
FN:905,926,_ZN6optikg15DatabaseManager16executeWithRetryERKSt8functionIFbvEEiRK7QString
FN:91,95,_ZN6optikg15DatabaseManager5closeEv
FN:929,980,_ZN6optikg15DatabaseManager28retryInsertExtractionRecordsERK5QListINS_16ExtractionRecordEEi
FN:933,979,_ZZN6optikg15DatabaseManager28retryInsertExtractionRecordsERK5QListINS_16ExtractionRecordEEiENKUlvE_clEv
FN:97,111,_ZN6optikg15DatabaseManager12createTablesEv
FN:982,1066,_ZN6optikg15DatabaseManager23insertExtractionRecordsERK5QListINS_16ExtractionRecordEE
FNDA:153,_ZN6optikg15DatabaseManager28createExtractionRecordsTableEv
FNDA:153,_ZN6optikg15DatabaseManager19createEntitiesTableEv
FNDA:153,_ZN6optikg15DatabaseManager20createRelationsTableEv
FNDA:2419,_ZN12_GLOBAL__N_1L15checkMainThreadERK7QString
FNDA:2148,_ZN6optikg15DatabaseManager22insertExtractionRecordERKNS_16ExtractionRecordE
FNDA:16,_ZN6optikg15DatabaseManager11saveTriplesExRK5QListINS_6TripleEE
FNDA:10,_ZN6optikg15DatabaseManagerC2EP7QObject
FNDA:6,_ZN6optikg15DatabaseManager22deleteExtractionRecordEx
FNDA:38,_ZN6optikg15DatabaseManager23getAllExtractionRecordsEi
FNDA:0,_ZN6optikg15DatabaseManagerD0Ev
FNDA:10,_ZN6optikg15DatabaseManagerD2Ev
FNDA:0,_ZN6optikg15DatabaseManager22updateExtractionRecordERKNS_16ExtractionRecordE
FNDA:2546,_ZN6optikg15DatabaseManager8instanceEv
FNDA:4,_ZN6optikg15DatabaseManager21deleteMultipleRecordsERK5QListIxE
FNDA:10,_ZN6optikg15DatabaseManager19getExtractionRecordEx
FNDA:153,_ZN6optikg15DatabaseManager10initializeERK7QString
FNDA:12,_ZN6optikg15DatabaseManager23searchExtractionRecordsERK7QStringRK9QDateTimeS6_ii
FNDA:18,_ZN6optikg15DatabaseManager14getRecordCountEv
FNDA:10,_ZN6optikg15DatabaseManager14getEntityCountEv
FNDA:10,_ZN6optikg15DatabaseManager16getRelationCountEv
FNDA:2,_ZN6optikg15DatabaseManager20getAverageConfidenceEv
FNDA:258,_ZN6optikg15DatabaseManager11loadTriplesEx
FNDA:2,_ZN6optikg15DatabaseManager14importFromJsonERK7QString
FNDA:4,_ZN6optikg15DatabaseManager12exportToJsonERK7QStringRK5QListIxE
FNDA:2,_ZN6optikg15DatabaseManager11exportToCsvERK7QStringRK5QListIxE
FNDA:0,_ZN6optikg15DatabaseManager21classifyDatabaseErrorERK7QString
FNDA:0,_ZN6optikg15DatabaseManager16executeWithRetryERKSt8functionIFbvEEiRK7QString
FNDA:105,_ZN6optikg15DatabaseManager5closeEv
FNDA:0,_ZN6optikg15DatabaseManager28retryInsertExtractionRecordsERK5QListINS_16ExtractionRecordEEi
FNDA:0,_ZZN6optikg15DatabaseManager28retryInsertExtractionRecordsERK5QListINS_16ExtractionRecordEEiENKUlvE_clEv
FNDA:153,_ZN6optikg15DatabaseManager12createTablesEv
FNDA:4,_ZN6optikg15DatabaseManager23insertExtractionRecordsERK5QListINS_16ExtractionRecordEE
FNF:32
FNH:26
DA:19,2419
DA:20,2419
DA:21,0
DA:22,0
DA:24,2419
DA:30,10
DA:32,10
DA:33,10
DA:35,10
DA:36,10
DA:37,10
DA:39,2546
DA:40,2546
DA:41,2546
DA:44,153
DA:45,153
DA:46,0
DA:49,153
DA:50,0
DA:51,0
DA:54,153
DA:55,83
DA:58,153
DA:59,153
DA:61,32
DA:62,32
DA:63,32
DA:64,0
DA:66,32
DA:67,32
DA:69,153
DA:72,153
DA:73,153
DA:75,153
DA:76,0
DA:77,0
DA:81,153
DA:82,0
DA:83,0
DA:84,0
DA:87,306
DA:88,153
DA:89,153
DA:91,105
DA:92,105
DA:93,70
DA:95,105
DA:97,153
DA:98,153
DA:101,153
DA:102,153
DA:103,0
DA:106,153
DA:107,153
DA:108,153
DA:110,153
DA:111,153
DA:113,153
DA:114,153
DA:115,153
DA:129,153
DA:130,0
DA:131,0
DA:135,153
DA:136,153
DA:138,153
DA:139,153
DA:141,153
DA:142,153
DA:143,153
DA:156,153
DA:157,0
DA:158,0
DA:161,153
DA:162,153
DA:164,153
DA:165,153
DA:167,153
DA:168,153
DA:169,153
DA:184,153
DA:185,0
DA:186,0
DA:189,153
DA:190,153
DA:192,153
DA:193,153
DA:195,2148
DA:196,2148
DA:197,0
DA:200,2148
DA:201,0
DA:202,0
DA:205,2148
DA:206,2148
DA:212,2148
DA:213,2148
DA:214,2148
DA:215,2148
DA:216,2148
DA:217,2148
DA:218,2148
DA:219,2148
DA:221,2148
DA:222,0
DA:223,0
DA:226,2148
DA:229,2148
DA:230,14
DA:231,0
DA:235,2148
DA:236,2148
DA:237,2148
DA:239,16
DA:241,16
DA:243,34
DA:245,18
DA:246,18
DA:247,18
DA:248,18
DA:252,18
DA:253,18
DA:254,18
DA:255,18
DA:256,18
DA:257,18
DA:259,18
DA:260,0
DA:261,0
DA:262,0
DA:265,18
DA:266,18
DA:269,18
DA:270,18
DA:271,18
DA:272,18
DA:276,18
DA:277,18
DA:278,18
DA:279,18
DA:280,18
DA:281,18
DA:283,18
DA:284,0
DA:285,0
DA:286,0
DA:289,18
DA:290,18
DA:293,18
DA:294,18
DA:298,18
DA:299,18
DA:300,18
DA:301,18
DA:302,18
DA:303,18
DA:305,18
DA:306,0
DA:307,0
DA:308,0
DA:310,18
DA:311,16
DA:312,16
DA:315,6
DA:316,6
DA:317,0
DA:320,6
DA:321,6
DA:322,6
DA:324,6
DA:325,0
DA:326,0
DA:329,6
DA:330,6
DA:331,6
DA:333,38
DA:334,38
DA:335,0
DA:338,38
DA:340,38
DA:341,38
DA:347,38
DA:349,38
DA:350,0
DA:351,0
DA:354,174
DA:355,136
DA:356,136
DA:357,136
DA:358,136
DA:359,136
DA:360,136
DA:361,136
DA:362,136
DA:365,136
DA:367,136
DA:368,136
DA:370,38
DA:371,38
DA:373,0
DA:374,0
DA:375,0
DA:378,0
DA:379,0
DA:380,0
DA:383,0
DA:384,0
DA:385,0
DA:388,0
DA:389,0
DA:395,0
DA:396,0
DA:397,0
DA:398,0
DA:399,0
DA:401,0
DA:402,0
DA:403,0
DA:404,0
DA:407,0
DA:408,0
DA:409,0
DA:411,4
DA:412,4
DA:413,0
DA:416,4
DA:418,2
DA:419,6
DA:420,4
DA:422,2
DA:423,2
DA:424,4
DA:426,6
DA:427,4
DA:430,2
DA:431,0
DA:432,0
DA:435,2
DA:436,2
DA:437,2
DA:439,10
DA:440,10
DA:441,0
DA:444,10
DA:446,10
DA:447,10
DA:452,10
DA:454,10
DA:455,2
DA:458,8
DA:459,8
DA:460,8
DA:461,8
DA:462,8
DA:463,8
DA:464,8
DA:465,8
DA:467,8
DA:468,10
DA:470,12
DA:475,12
DA:476,0
DA:479,12
DA:481,12
DA:487,12
DA:489,12
DA:490,6
DA:491,6
DA:494,12
DA:495,2
DA:496,2
DA:499,12
DA:500,2
DA:501,2
DA:505,12
DA:506,2
DA:507,2
DA:510,12
DA:511,12
DA:513,12
DA:514,12
DA:516,36
DA:517,24
DA:520,12
DA:521,0
DA:522,0
DA:525,126
DA:526,114
DA:527,114
DA:528,114
DA:529,114
DA:530,114
DA:531,114
DA:532,114
DA:533,114
DA:536,114
DA:538,114
DA:539,114
DA:541,12
DA:542,12
DA:544,18
DA:545,18
DA:546,0
DA:549,18
DA:550,18
DA:551,18
DA:553,0
DA:554,18
DA:556,10
DA:557,10
DA:558,0
DA:561,10
DA:562,10
DA:563,10
DA:565,0
DA:566,10
DA:568,10
DA:569,10
DA:570,0
DA:573,10
DA:574,10
DA:575,10
DA:577,0
DA:578,10
DA:580,2
DA:581,2
DA:582,0
DA:585,2
DA:586,2
DA:587,2
DA:589,0
DA:590,2
DA:592,258
DA:593,258
DA:594,0
DA:595,0
DA:598,258
DA:600,258
DA:601,0
DA:602,0
DA:606,258
DA:607,258
DA:620,258
DA:622,258
DA:623,0
DA:624,0
DA:627,494
DA:628,236
DA:631,236
DA:632,236
DA:633,236
DA:634,236
DA:635,236
DA:636,236
DA:639,236
DA:640,236
DA:641,236
DA:642,236
DA:643,236
DA:644,236
DA:647,236
DA:648,236
DA:649,236
DA:651,236
DA:652,236
DA:654,258
DA:655,258
DA:657,2
DA:658,2
DA:659,0
DA:662,2
DA:663,0
DA:664,0
DA:668,2
DA:669,2
DA:670,0
DA:671,0
DA:674,2
DA:675,2
DA:677,2
DA:678,2
DA:679,2
DA:680,0
DA:681,0
DA:684,2
DA:685,2
DA:688,6
DA:689,4
DA:690,0
DA:691,0
DA:694,4
DA:695,4
DA:698,4
DA:699,4
DA:700,4
DA:701,4
DA:702,4
DA:705,4
DA:706,0
DA:707,0
DA:708,0
DA:709,4
DA:713,4
DA:714,4
DA:715,6
DA:716,2
DA:718,2
DA:719,2
DA:722,2
DA:723,2
DA:724,2
DA:727,2
DA:728,2
DA:729,2
DA:732,2
DA:733,2
DA:736,2
DA:737,0
DA:740,2
DA:741,2
DA:742,4
DA:744,4
DA:745,4
DA:748,2
DA:749,2
DA:752,0
DA:753,2
DA:755,4
DA:756,4
DA:757,0
DA:761,4
DA:762,4
DA:763,2
DA:765,4
DA:766,2
DA:767,2
DA:768,2
DA:770,2
DA:774,4
DA:775,6
DA:776,2
DA:777,2
DA:778,2
DA:779,2
DA:780,2
DA:781,2
DA:782,2
DA:783,2
DA:786,2
DA:787,4
DA:788,2
DA:789,2
DA:790,2
DA:791,2
DA:792,2
DA:793,2
DA:794,2
DA:795,2
DA:796,2
DA:797,2
DA:799,2
DA:800,2
DA:801,2
DA:803,2
DA:804,2
DA:807,4
DA:808,4
DA:809,0
DA:810,0
DA:813,4
DA:814,4
DA:815,4
DA:817,4
DA:818,4
DA:820,2
DA:821,2
DA:822,0
DA:826,2
DA:827,2
DA:828,0
DA:830,4
DA:831,2
DA:832,2
DA:833,2
DA:835,2
DA:839,2
DA:840,2
DA:841,0
DA:842,0
DA:845,2
DA:846,2
DA:849,2
DA:852,4
DA:854,2
DA:855,2
DA:856,0
DA:859,2
DA:860,2
DA:861,2
DA:862,2
DA:863,4
DA:864,2
DA:865,2
DA:866,2
DA:868,2
DA:869,2
DA:870,2
DA:873,0
DA:874,0
DA:876,0
DA:877,0
DA:878,0
DA:880,0
DA:881,0
DA:882,0
DA:884,0
DA:885,0
DA:886,0
DA:888,0
DA:889,0
DA:890,0
DA:892,0
DA:893,0
DA:894,0
DA:896,0
DA:897,0
DA:898,0
DA:901,0
DA:902,0
DA:905,0
DA:907,0
DA:908,0
DA:909,0
DA:910,0
DA:911,0
DA:914,0
DA:915,0
DA:917,0
DA:918,0
DA:919,0
DA:920,0
DA:924,0
DA:925,0
DA:929,0
DA:930,0
DA:931,0
DA:933,0
DA:934,0
DA:935,0
DA:939,0
DA:940,0
DA:941,0
DA:947,0
DA:948,0
DA:949,0
DA:950,0
DA:951,0
DA:952,0
DA:953,0
DA:954,0
DA:956,0
DA:957,0
DA:958,0
DA:959,0
DA:962,0
DA:964,0
DA:965,0
DA:966,0
DA:969,0
DA:971,0
DA:972,0
DA:973,0
DA:975,0
DA:976,0
DA:977,0
DA:978,0
DA:979,0
DA:982,4
DA:983,4
DA:984,0
DA:985,0
DA:988,4
DA:989,0
DA:993,4
DA:996,12
DA:997,8
DA:998,8
DA:1004,8
DA:1005,8
DA:1006,8
DA:1007,8
DA:1008,8
DA:1009,8
DA:1010,8
DA:1011,8
DA:1013,8
DA:1014,0
DA:1015,0
DA:1018,8
DA:1021,8
DA:1022,2
DA:1023,0
DA:1026,8
DA:1028,4
DA:1029,4
DA:1030,4
DA:1031,0
DA:1032,0
DA:1033,0
DA:1036,0
DA:1038,0
DA:1039,0
DA:1040,0
DA:1041,0
DA:1042,0
DA:1044,0
DA:1045,0
DA:1046,0
DA:1047,0
DA:1049,0
DA:1050,0
DA:1051,0
DA:1053,0
DA:1054,0
DA:1055,0
DA:1056,0
DA:1058,0
DA:1059,0
DA:1060,0
DA:1061,0
DA:1064,0
DA:1065,0
LF:632
LH:425
end_of_record
TN:
SF:/home/fed/Documents/clion-workspace/qt-try/src/data/datamodel.cpp
FN:11,19,_ZN6optikg6Entity12typeToStringENS_10EntityTypeE
FN:21,27,_ZN6optikg6Entity12stringToTypeERK7QString
FN:29,37,_ZNK6optikg6Entity11typeToColorEv
FN:39,41,_ZNK6optikg6Triple20relationTypeToStringEv
FN:43,51,_ZN6optikg6Triple20relationTypeToStringENS_12RelationTypeE
FN:53,59,_ZN6optikg6Triple20stringToRelationTypeERK7QString
FN:7,9,_ZNK6optikg6Entity12typeToStringEv
FNDA:116,_ZN6optikg6Entity12typeToStringENS_10EntityTypeE
FNDA:14,_ZN6optikg6Entity12stringToTypeERK7QString
FNDA:406,_ZNK6optikg6Entity11typeToColorEv
FNDA:0,_ZNK6optikg6Triple20relationTypeToStringEv
FNDA:10,_ZN6optikg6Triple20relationTypeToStringENS_12RelationTypeE
FNDA:10,_ZN6optikg6Triple20stringToRelationTypeERK7QString
FNDA:0,_ZNK6optikg6Entity12typeToStringEv
FNF:7
FNH:5
DA:7,0
DA:8,0
DA:11,116
DA:12,116
DA:13,30
DA:14,30
DA:15,28
DA:16,28
DA:17,0
DA:21,14
DA:22,14
DA:23,10
DA:24,6
DA:25,4
DA:26,2
DA:29,406
DA:30,406
DA:31,310
DA:32,38
DA:33,30
DA:34,28
DA:35,0
DA:39,0
DA:40,0
DA:43,10
DA:44,10
DA:45,4
DA:46,2
DA:47,2
DA:48,2
DA:49,0
DA:53,10
DA:54,10
DA:55,8
DA:56,6
DA:57,4
DA:58,2
LF:37
LH:30
end_of_record
TN:
SF:/home/fed/Documents/clion-workspace/qt-try/src/ui/batchprocessdialog.cpp
FN:126,140,_ZZN6optikg18BatchProcessDialog7setupUiEvENKUlvE_clEv
FN:202,213,_ZN6optikg18BatchProcessDialog18updateButtonStatesEv
FN:215,221,_ZN6optikg18BatchProcessDialog16updateStatisticsEv
FN:223,244,_ZN6optikg18BatchProcessDialog17onAddFilesClickedEv
FN:246,288,_ZN6optikg18BatchProcessDialog21onAddDirectoryClickedEv
FN:290,295,_ZN6optikg18BatchProcessDialog20onRemoveFilesClickedEv
FN:297,300,_ZN6optikg18BatchProcessDialog19onClearFilesClickedEv
FN:302,304,_ZN6optikg18BatchProcessDialog22onFileSelectionChangedEv
FN:306,365,_ZN6optikg18BatchProcessDialog14onStartClickedEv
FN:32,58,_ZN6optikg18BatchProcessDialogC2EP7QWidget
FN:367,373,_ZN6optikg18BatchProcessDialog13onStopClickedEv
FN:375,378,_ZN6optikg18BatchProcessDialog14onScanProgressEiiRK7QString
FN:380,390,_ZN6optikg18BatchProcessDialog14onScanFinishedEii
FN:392,396,_ZN6optikg18BatchProcessDialog17onProgressChangedEiiRK7QString
FN:398,433,_ZN6optikg18BatchProcessDialog15onFileProcessedERKNS_17FileProcessResultE
FN:435,440,_ZN6optikg18BatchProcessDialog15onErrorOccurredERK7QStringS3_
FN:442,487,_ZN6optikg18BatchProcessDialog15onBatchFinishedEiii
FN:489,502,_ZN6optikg18BatchProcessDialog15onExportClickedEv
FN:504,527,_ZN6optikg18BatchProcessDialog17getOutputFilePathERK7QString
FN:529,591,_ZN6optikg18BatchProcessDialog12exportToJsonERK7QString
FN:593,637,_ZN6optikg18BatchProcessDialog11exportToCsvERK7QString
FN:60,66,_ZN6optikg18BatchProcessDialogD0Ev
FN:60,66,_ZN6optikg18BatchProcessDialogD2Ev
FN:639,657,_ZN6optikg18BatchProcessDialog10closeEventEP11QCloseEvent
FN:659,686,_ZN6optikg18BatchProcessDialog14saveToDatabaseEv
FN:68,200,_ZN6optikg18BatchProcessDialog7setupUiEv
FN:688,690,_ZN6optikg18BatchProcessDialog19onAutoExportToggledEb
FN:692,694,_ZN6optikg18BatchProcessDialog17onSaveToDbToggledEb
FNDA:0,_ZZN6optikg18BatchProcessDialog7setupUiEvENKUlvE_clEv
FNDA:40,_ZN6optikg18BatchProcessDialog18updateButtonStatesEv
FNDA:4,_ZN6optikg18BatchProcessDialog16updateStatisticsEv
FNDA:0,_ZN6optikg18BatchProcessDialog17onAddFilesClickedEv
FNDA:0,_ZN6optikg18BatchProcessDialog21onAddDirectoryClickedEv
FNDA:2,_ZN6optikg18BatchProcessDialog20onRemoveFilesClickedEv
FNDA:4,_ZN6optikg18BatchProcessDialog19onClearFilesClickedEv
FNDA:8,_ZN6optikg18BatchProcessDialog22onFileSelectionChangedEv
FNDA:0,_ZN6optikg18BatchProcessDialog14onStartClickedEv
FNDA:34,_ZN6optikg18BatchProcessDialogC2EP7QWidget
FNDA:0,_ZN6optikg18BatchProcessDialog13onStopClickedEv
FNDA:0,_ZN6optikg18BatchProcessDialog14onScanProgressEiiRK7QString
FNDA:2,_ZN6optikg18BatchProcessDialog14onScanFinishedEii
FNDA:2,_ZN6optikg18BatchProcessDialog17onProgressChangedEiiRK7QString
FNDA:2,_ZN6optikg18BatchProcessDialog15onFileProcessedERKNS_17FileProcessResultE
FNDA:2,_ZN6optikg18BatchProcessDialog15onErrorOccurredERK7QStringS3_
FNDA:0,_ZN6optikg18BatchProcessDialog15onBatchFinishedEiii
FNDA:0,_ZN6optikg18BatchProcessDialog15onExportClickedEv
FNDA:0,_ZN6optikg18BatchProcessDialog17getOutputFilePathERK7QString
FNDA:0,_ZN6optikg18BatchProcessDialog12exportToJsonERK7QString
FNDA:0,_ZN6optikg18BatchProcessDialog11exportToCsvERK7QString
FNDA:0,_ZN6optikg18BatchProcessDialogD0Ev
FNDA:34,_ZN6optikg18BatchProcessDialogD2Ev
FNDA:2,_ZN6optikg18BatchProcessDialog10closeEventEP11QCloseEvent
FNDA:0,_ZN6optikg18BatchProcessDialog14saveToDatabaseEv
FNDA:34,_ZN6optikg18BatchProcessDialog7setupUiEv
FNDA:8,_ZN6optikg18BatchProcessDialog19onAutoExportToggledEb
FNDA:8,_ZN6optikg18BatchProcessDialog17onSaveToDbToggledEb
FNF:28
FNH:15
DA:32,34
DA:34,34
DA:35,34
DA:36,34
DA:37,34
DA:38,34
DA:39,34
DA:41,34
DA:42,34
DA:43,34
DA:45,34
DA:46,34
DA:49,34
DA:50,34
DA:51,34
DA:52,34
DA:53,34
DA:56,34
DA:57,34
DA:58,34
DA:60,34
DA:61,34
DA:62,0
DA:63,0
DA:65,34
DA:66,34
DA:68,34
DA:69,34
DA:72,34
DA:73,34
DA:75,34
DA:76,34
DA:77,34
DA:78,34
DA:79,34
DA:82,34
DA:83,34
DA:84,34
DA:85,34
DA:87,34
DA:88,34
DA:89,34
DA:91,34
DA:93,34
DA:94,34
DA:95,34
DA:96,34
DA:98,34
DA:99,34
DA:100,34
DA:102,34
DA:103,34
DA:106,34
DA:107,34
DA:109,34
DA:110,34
DA:112,34
DA:113,34
DA:115,34
DA:116,34
DA:117,170
DA:118,34
DA:120,34
DA:121,34
DA:122,34
DA:123,34
DA:124,34
DA:125,34
DA:126,34
DA:127,0
DA:128,0
DA:129,0
DA:130,0
DA:131,0
DA:132,0
DA:134,0
DA:135,0
DA:136,0
DA:137,0
DA:140,0
DA:141,34
DA:142,34
DA:144,34
DA:145,34
DA:148,34
DA:149,34
DA:152,34
DA:153,34
DA:154,34
DA:155,34
DA:156,34
DA:159,34
DA:160,34
DA:163,34
DA:164,34
DA:167,34
DA:168,34
DA:170,34
DA:171,34
DA:173,34
DA:176,34
DA:178,34
DA:179,34
DA:180,34
DA:181,34
DA:183,34
DA:184,34
DA:185,34
DA:186,34
DA:188,34
DA:190,34
DA:191,34
DA:192,34
DA:193,34
DA:195,34
DA:196,34
DA:197,34
DA:199,34
DA:200,34
DA:202,40
DA:203,40
DA:205,40
DA:206,40
DA:207,40
DA:208,40
DA:209,40
DA:210,40
DA:211,40
DA:212,40
DA:213,40
DA:215,4
DA:216,8
DA:217,8
DA:218,8
DA:219,8
DA:220,8
DA:221,4
DA:223,0
DA:224,0
DA:225,0
DA:226,0
DA:227,0
DA:229,0
DA:231,0
DA:232,0
DA:233,0
DA:234,0
DA:235,0
DA:238,0
DA:239,0
DA:243,0
DA:244,0
DA:246,0
DA:248,0
DA:249,0
DA:250,0
DA:252,0
DA:253,0
DA:257,0
DA:258,0
DA:259,0
DA:260,0
DA:262,0
DA:266,0
DA:267,0
DA:269,0
DA:270,0
DA:271,0
DA:272,0
DA:273,0
DA:276,0
DA:277,0
DA:279,0
DA:281,0
DA:283,0
DA:284,0
DA:286,0
DA:288,0
DA:290,2
DA:291,4
DA:292,2
DA:294,2
DA:295,2
DA:297,4
DA:298,4
DA:299,4
DA:300,4
DA:302,8
DA:303,8
DA:304,8
DA:306,0
DA:307,0
DA:308,0
DA:309,0
DA:313,0
DA:314,0
DA:315,0
DA:319,0
DA:320,0
DA:321,0
DA:322,0
DA:323,0
DA:324,0
DA:325,0
DA:328,0
DA:329,0
DA:331,0
DA:332,0
DA:333,0
DA:336,0
DA:337,0
DA:340,0
DA:341,0
DA:342,0
DA:343,0
DA:344,0
DA:345,0
DA:348,0
DA:349,0
DA:350,0
DA:351,0
DA:352,0
DA:353,0
DA:354,0
DA:355,0
DA:356,0
DA:357,0
DA:358,0
DA:359,0
DA:362,0
DA:363,0
DA:364,0
DA:365,0
DA:367,0
DA:368,0
DA:369,0
DA:370,0
DA:371,0
DA:373,0
DA:375,0
DA:376,0
DA:378,0
DA:380,2
DA:381,2
DA:382,2
DA:383,6
DA:384,6
DA:387,2
DA:388,0
DA:390,2
DA:392,2
DA:393,2
DA:394,2
DA:395,8
DA:396,2
DA:398,2
DA:399,2
DA:401,2
DA:402,2
DA:403,2
DA:405,2
DA:406,4
DA:407,4
DA:408,4
DA:409,4
DA:410,4
DA:413,2
DA:415,0
DA:416,0
DA:418,0
DA:419,0
DA:421,0
DA:425,0
DA:426,0
DA:428,0
DA:429,2
DA:431,2
DA:432,2
DA:433,2
DA:435,2
DA:436,2
DA:437,2
DA:438,6
DA:439,2
DA:440,2
DA:442,0
DA:443,0
DA:444,0
DA:446,0
DA:447,0
DA:448,0
DA:451,0
DA:452,0
DA:455,0
DA:456,0
DA:457,0
DA:458,0
DA:459,0
DA:462,0
DA:463,0
DA:464,0
DA:465,0
DA:466,0
DA:469,0
DA:470,0
DA:472,0
DA:475,0
DA:476,0
DA:479,0
DA:480,0
DA:484,0
DA:485,0
DA:486,0
DA:487,0
DA:489,0
DA:490,0
DA:491,0
DA:493,0
DA:494,0
DA:497,0
DA:498,0
DA:500,0
DA:502,0
DA:504,0
DA:505,0
DA:506,0
DA:507,0
DA:509,0
DA:510,0
DA:511,0
DA:512,0
DA:513,0
DA:514,0
DA:516,0
DA:517,0
DA:518,0
DA:519,0
DA:521,0
DA:522,0
DA:524,0
DA:526,0
DA:527,0
DA:529,0
DA:530,0
DA:531,0
DA:532,0
DA:533,0
DA:534,0
DA:535,0
DA:537,0
DA:538,0
DA:539,0
DA:540,0
DA:543,0
DA:544,0
DA:545,0
DA:546,0
DA:547,0
DA:548,0
DA:550,0
DA:551,0
DA:552,0
DA:554,0
DA:555,0
DA:556,0
DA:557,0
DA:558,0
DA:560,0
DA:561,0
DA:562,0
DA:563,0
DA:564,0
DA:566,0
DA:567,0
DA:568,0
DA:570,0
DA:571,0
DA:572,0
DA:573,0
DA:574,0
DA:575,0
DA:577,0
DA:578,0
DA:579,0
DA:580,0
DA:581,0
DA:582,0
DA:585,0
DA:586,0
DA:588,0
DA:589,0
DA:590,0
DA:591,0
DA:593,0
DA:594,0
DA:595,0
DA:596,0
DA:597,0
DA:598,0
DA:601,0
DA:602,0
DA:605,0
DA:606,0
DA:607,0
DA:609,0
DA:610,0
DA:611,0
DA:612,0
DA:615,0
DA:617,0
DA:618,0
DA:619,0
DA:620,0
DA:621,0
DA:622,0
DA:623,0
DA:624,0
DA:625,0
DA:626,0
DA:627,0
DA:628,0
DA:630,0
DA:632,0
DA:634,0
DA:635,0
DA:636,0
DA:637,0
DA:639,2
DA:640,2
DA:641,0
DA:642,0
DA:645,0
DA:646,0
DA:647,0
DA:648,0
DA:650,0
DA:652,0
DA:655,2
DA:657,2
DA:659,0
DA:661,0
DA:663,0
DA:664,0
DA:665,0
DA:669,0
DA:672,0
DA:673,0
DA:674,0
DA:678,0
DA:679,0
DA:681,0
DA:682,0
DA:684,0
DA:686,0
DA:688,8
DA:689,8
DA:690,8
DA:692,8
DA:693,8
DA:694,8
LF:460
LH:180
end_of_record
TN:
SF:/home/fed/Documents/clion-workspace/qt-try/src/ui/extractionpanel.cpp
FN:102,132,_ZN6optikg15ExtractionPanel15updateCharCountEv
FN:15,22,_ZN6optikg15ExtractionPanelC2EP7QWidget
FN:24,75,_ZN6optikg15ExtractionPanel7setupUiEv
FN:77,79,_ZNK6optikg15ExtractionPanel4textEv
FN:81,84,_ZN6optikg15ExtractionPanel7setTextERK7QString
FN:86,89,_ZN6optikg15ExtractionPanel5clearEv
FN:91,95,_ZN6optikg15ExtractionPanel10setEnabledEb
FN:97,100,_ZN6optikg15ExtractionPanel13onTextChangedEv
FNDA:44,_ZN6optikg15ExtractionPanel15updateCharCountEv
FNDA:32,_ZN6optikg15ExtractionPanelC2EP7QWidget
FNDA:32,_ZN6optikg15ExtractionPanel7setupUiEv
FNDA:8,_ZNK6optikg15ExtractionPanel4textEv
FNDA:0,_ZN6optikg15ExtractionPanel7setTextERK7QString
FNDA:6,_ZN6optikg15ExtractionPanel5clearEv
FNDA:0,_ZN6optikg15ExtractionPanel10setEnabledEb
FNDA:6,_ZN6optikg15ExtractionPanel13onTextChangedEv
FNF:8
FNH:6
DA:15,32
DA:17,32
DA:18,32
DA:19,32
DA:20,32
DA:21,32
DA:22,32
DA:24,32
DA:25,32
DA:27,32
DA:28,32
DA:31,64
DA:32,64
DA:33,32
DA:36,32
DA:37,32
DA:38,32
DA:40,32
DA:41,32
DA:42,32
DA:45,64
DA:46,64
DA:47,32
DA:48,32
DA:51,32
DA:52,32
DA:54,32
DA:55,64
DA:57,32
DA:58,32
DA:60,32
DA:61,64
DA:63,32
DA:64,32
DA:66,32
DA:67,32
DA:68,32
DA:70,32
DA:71,32
DA:74,32
DA:75,32
DA:77,8
DA:78,8
DA:81,0
DA:82,0
DA:83,0
DA:84,0
DA:86,6
DA:87,6
DA:88,6
DA:89,6
DA:91,0
DA:92,0
DA:93,0
DA:94,0
DA:95,0
DA:97,6
DA:98,6
DA:99,6
DA:100,6
DA:102,44
DA:103,44
DA:104,44
DA:107,44
DA:108,0
DA:109,0
DA:110,0
DA:111,0
DA:112,0
DA:113,0
DA:114,0
DA:117,132
DA:120,44
DA:121,0
DA:122,0
DA:123,44
DA:124,0
DA:125,0
DA:127,44
DA:128,44
DA:130,44
DA:131,44
DA:132,44
LF:83
LH:63
end_of_record
TN:
SF:/home/fed/Documents/clion-workspace/qt-try/src/ui/graphwidget.cpp
FN:102,117,_ZN6optikg11GraphWidgetC2EP7QWidget
FN:121,127,_ZN6optikg11GraphWidget10setupSceneEv
FN:129,199,_ZN6optikg11GraphWidget14showEmptyStateEv
FN:201,210,_ZN6optikg11GraphWidget14hideEmptyStateEv
FN:212,219,_ZN6optikg11GraphWidget22calculateOptimalRadiusEi
FN:221,296,_ZN6optikg11GraphWidget12setGraphDataERK5QListINS_9GraphNodeEERKS1_INS_9GraphEdgeEE
FN:299,314,_ZN6optikg11GraphWidget14clearGraphDataEv
FN:316,338,_ZN6optikg11GraphWidget10clearGraphEv
FN:340,357,_ZN6optikg11GraphWidget13highlightNodeERK7QString
FN:359,392,_ZN6optikg11GraphWidget13highlightPathERK7QStringS3_
FN:394,397,_ZN6optikg11GraphWidget6zoomInEv
FN:399,402,_ZN6optikg11GraphWidget7zoomOutEv
FN:404,407,_ZN6optikg11GraphWidget9resetZoomEv
FN:409,437,_ZN6optikg11GraphWidget9fitToViewEv
FN:41,74,_ZN6optikgL28calculateEdgeOffsetDirectionERK7QPointFS2_RK7QStringS5_
FN:439,451,_ZN6optikg11GraphWidget10wheelEventEP11QWheelEvent
FN:455,486,_ZN6optikg11GraphWidget15mousePressEventEP11QMouseEvent
FN:488,501,_ZN6optikg11GraphWidget14mouseMoveEventEP11QMouseEvent
FN:503,513,_ZN6optikg11GraphWidget17mouseReleaseEventEP11QMouseEvent
FN:515,519,_ZN6optikg11GraphWidget11resizeEventEP12QResizeEvent
FN:521,586,_ZN6optikg11GraphWidget10createNodeERKNS_9GraphNodeE
FN:588,679,_ZN6optikg11GraphWidget10createEdgeERKNS_9GraphEdgeE
FN:681,820,_ZN6optikg11GraphWidget26computeForceDirectedLayoutEdddi
FN:77,85,_ZN6optikg13GraphNodeItemC2ERK7QStringPNS_11GraphWidgetEddddP13QGraphicsItem
FN:822,893,_ZN6optikg11GraphWidget12updateLegendEv
FN:87,92,_ZN6optikg13GraphNodeItem10itemChangeEN13QGraphicsItem18GraphicsItemChangeERK8QVariant
FN:895,904,_ZN6optikg11GraphWidget25handleNodePositionChangedERK7QStringRK7QPointF
FN:906,958,_ZN6optikg11GraphWidget20updateConnectedEdgesERK7QString
FNDA:60,_ZN6optikg11GraphWidgetC2EP7QWidget
FNDA:60,_ZN6optikg11GraphWidget10setupSceneEv
FNDA:72,_ZN6optikg11GraphWidget14showEmptyStateEv
FNDA:26,_ZN6optikg11GraphWidget14hideEmptyStateEv
FNDA:26,_ZN6optikg11GraphWidget22calculateOptimalRadiusEi
FNDA:28,_ZN6optikg11GraphWidget12setGraphDataERK5QListINS_9GraphNodeEERKS1_INS_9GraphEdgeEE
FNDA:38,_ZN6optikg11GraphWidget14clearGraphDataEv
FNDA:12,_ZN6optikg11GraphWidget10clearGraphEv
FNDA:4,_ZN6optikg11GraphWidget13highlightNodeERK7QString
FNDA:4,_ZN6optikg11GraphWidget13highlightPathERK7QStringS3_
FNDA:2,_ZN6optikg11GraphWidget6zoomInEv
FNDA:2,_ZN6optikg11GraphWidget7zoomOutEv
FNDA:2,_ZN6optikg11GraphWidget9resetZoomEv
FNDA:66,_ZN6optikg11GraphWidget9fitToViewEv
FNDA:24,_ZN6optikgL28calculateEdgeOffsetDirectionERK7QPointFS2_RK7QStringS5_
FNDA:0,_ZN6optikg11GraphWidget10wheelEventEP11QWheelEvent
FNDA:0,_ZN6optikg11GraphWidget15mousePressEventEP11QMouseEvent
FNDA:0,_ZN6optikg11GraphWidget14mouseMoveEventEP11QMouseEvent
FNDA:0,_ZN6optikg11GraphWidget17mouseReleaseEventEP11QMouseEvent
FNDA:38,_ZN6optikg11GraphWidget11resizeEventEP12QResizeEvent
FNDA:210,_ZN6optikg11GraphWidget10createNodeERKNS_9GraphNodeE
FNDA:8,_ZN6optikg11GraphWidget10createEdgeERKNS_9GraphEdgeE
FNDA:26,_ZN6optikg11GraphWidget26computeForceDirectedLayoutEdddi
FNDA:210,_ZN6optikg13GraphNodeItemC2ERK7QStringPNS_11GraphWidgetEddddP13QGraphicsItem
FNDA:26,_ZN6optikg11GraphWidget12updateLegendEv
FNDA:2776,_ZN6optikg13GraphNodeItem10itemChangeEN13QGraphicsItem18GraphicsItemChangeERK8QVariant
FNDA:404,_ZN6optikg11GraphWidget25handleNodePositionChangedERK7QStringRK7QPointF
FNDA:404,_ZN6optikg11GraphWidget20updateConnectedEdgesERK7QString
FNF:28
FNH:24
DA:41,24
DA:43,24
DA:44,24
DA:45,24
DA:47,24
DA:50,24
DA:53,24
DA:57,24
DA:58,24
DA:62,96
DA:67,24
DA:70,24
DA:71,24
DA:73,24
DA:77,210
DA:78,210
DA:80,210
DA:81,210
DA:82,210
DA:83,210
DA:84,210
DA:85,210
DA:87,2776
DA:88,2776
DA:89,404
DA:91,2776
DA:102,60
DA:104,60
DA:105,60
DA:106,60
DA:107,60
DA:109,60
DA:110,60
DA:111,60
DA:112,60
DA:113,60
DA:114,60
DA:115,60
DA:116,60
DA:117,60
DA:121,60
DA:122,60
DA:124,60
DA:125,60
DA:126,60
DA:127,60
DA:129,72
DA:130,72
DA:132,12
DA:133,0
DA:135,12
DA:137,12
DA:138,12
DA:139,12
DA:140,12
DA:143,60
DA:144,60
DA:145,60
DA:151,60
DA:152,60
DA:153,60
DA:154,60
DA:155,60
DA:158,60
DA:159,60
DA:160,60
DA:161,60
DA:162,60
DA:164,60
DA:165,60
DA:166,60
DA:167,60
DA:168,60
DA:170,60
DA:171,60
DA:172,60
DA:173,60
DA:174,60
DA:176,60
DA:177,60
DA:178,60
DA:179,60
DA:180,60
DA:183,60
DA:184,60
DA:185,60
DA:186,60
DA:187,60
DA:188,60
DA:191,60
DA:192,60
DA:193,60
DA:194,60
DA:195,60
DA:196,60
DA:198,60
DA:201,26
DA:202,26
DA:203,26
DA:205,26
DA:206,26
DA:207,26
DA:209,26
DA:210,26
DA:212,26
DA:214,26
DA:215,18
DA:216,8
DA:217,4
DA:218,2
DA:221,28
DA:223,28
DA:224,2
DA:225,2
DA:229,26
DA:232,26
DA:235,26
DA:236,294
DA:237,268
DA:238,208
DA:241,60
DA:242,60
DA:244,26
DA:245,26
DA:246,26
DA:249,236
DA:250,210
DA:254,26
DA:255,26
DA:256,26
DA:257,236
DA:258,210
DA:259,210
DA:260,210
DA:262,210
DA:263,210
DA:264,210
DA:265,210
DA:266,210
DA:271,34
DA:272,8
DA:276,26
DA:278,18
DA:279,8
DA:281,0
DA:282,8
DA:284,4
DA:285,4
DA:287,2
DA:290,2
DA:294,26
DA:295,26
DA:296,26
DA:299,38
DA:301,40
DA:302,2
DA:303,2
DA:306,38
DA:308,64
DA:309,26
DA:310,26
DA:313,38
DA:314,38
DA:316,12
DA:318,12
DA:321,12
DA:322,164
DA:323,152
DA:324,96
DA:326,56
DA:328,56
DA:330,12
DA:331,12
DA:332,12
DA:335,12
DA:336,12
DA:337,12
DA:338,12
DA:340,4
DA:342,12
DA:343,8
DA:344,8
DA:345,8
DA:346,8
DA:347,8
DA:352,4
DA:353,4
DA:354,4
DA:355,4
DA:357,4
DA:359,4
DA:361,12
DA:362,8
DA:363,8
DA:364,8
DA:365,8
DA:366,8
DA:369,8
DA:370,4
DA:371,4
DA:375,4
DA:376,4
DA:377,4
DA:378,4
DA:379,4
DA:381,4
DA:382,4
DA:383,4
DA:387,4
DA:388,4
DA:389,4
DA:390,4
DA:392,4
DA:394,2
DA:395,2
DA:396,2
DA:397,2
DA:399,2
DA:400,2
DA:401,2
DA:402,2
DA:404,2
DA:405,2
DA:406,2
DA:407,2
DA:409,66
DA:410,66
DA:412,12
DA:413,12
DA:414,12
DA:418,54
DA:419,476
DA:420,422
DA:421,422
DA:425,70
DA:426,16
DA:427,16
DA:431,54
DA:433,54
DA:434,54
DA:435,54
DA:439,0
DA:441,0
DA:442,0
DA:443,0
DA:445,0
DA:447,0
DA:449,0
DA:451,0
DA:455,0
DA:456,0
DA:457,0
DA:460,0
DA:461,0
DA:464,0
DA:465,0
DA:466,0
DA:467,0
DA:469,0
DA:472,0
DA:474,0
DA:475,0
DA:476,0
DA:477,0
DA:478,0
DA:483,0
DA:485,0
DA:488,0
DA:489,0
DA:491,0
DA:492,0
DA:495,0
DA:496,0
DA:497,0
DA:499,0
DA:501,0
DA:503,0
DA:504,0
DA:505,0
DA:506,0
DA:507,0
DA:509,0
DA:512,0
DA:513,0
DA:515,38
DA:516,38
DA:518,38
DA:519,38
DA:521,210
DA:522,210
DA:523,210
DA:526,210
DA:527,210
DA:528,210
DA:529,210
DA:530,210
DA:533,210
DA:534,210
DA:535,210
DA:536,210
DA:537,210
DA:538,210
DA:540,210
DA:541,210
DA:544,210
DA:545,210
DA:548,210
DA:549,210
DA:552,210
DA:553,210
DA:554,210
DA:555,210
DA:556,210
DA:558,210
DA:559,210
DA:562,210
DA:565,210
DA:566,210
DA:568,210
DA:569,0
DA:571,210
DA:572,210
DA:573,210
DA:575,210
DA:576,210
DA:578,210
DA:581,210
DA:582,210
DA:583,210
DA:584,210
DA:585,210
DA:586,210
DA:588,8
DA:589,8
DA:590,8
DA:593,8
DA:594,8
DA:596,8
DA:597,0
DA:598,0
DA:602,8
DA:603,8
DA:604,8
DA:607,8
DA:608,8
DA:609,8
DA:610,8
DA:613,8
DA:614,8
DA:615,8
DA:616,8
DA:621,8
DA:623,8
DA:624,8
DA:626,8
DA:628,8
DA:629,8
DA:631,8
DA:632,8
DA:635,8
DA:636,8
DA:637,8
DA:638,8
DA:639,8
DA:640,0
DA:641,0
DA:642,0
DA:644,0
DA:646,8
DA:647,8
DA:648,8
DA:649,8
DA:652,8
DA:653,8
DA:654,8
DA:655,8
DA:658,8
DA:660,8
DA:661,8
DA:662,8
DA:663,8
DA:664,8
DA:666,8
DA:667,8
DA:669,8
DA:670,8
DA:673,8
DA:674,8
DA:675,8
DA:676,8
DA:679,8
DA:681,26
DA:683,26
DA:688,26
DA:692,26
DA:694,26
DA:696,26
DA:697,26
DA:699,2106
DA:700,22080
DA:701,20000
DA:705,22080
DA:706,20000
DA:707,20000
DA:709,356320
DA:710,336320
DA:711,336320
DA:713,336320
DA:714,336320
DA:715,336320
DA:717,336320
DA:718,0
DA:719,0
DA:720,0
DA:723,336320
DA:726,336320
DA:727,21500
DA:728,21500
DA:729,21500
DA:731,21500
DA:732,21500
DA:738,2720
DA:739,640
DA:740,640
DA:741,640
DA:742,640
DA:743,640
DA:745,640
DA:746,640
DA:747,640
DA:748,640
DA:750,640
DA:752,640
DA:754,640
DA:755,640
DA:757,640
DA:758,640
DA:762,22080
DA:763,20000
DA:764,20000
DA:767,20000
DA:768,40000
DA:769,40000
DA:773,22080
DA:774,20000
DA:775,20000
DA:777,20000
DA:778,20000
DA:779,19360
DA:780,19360
DA:781,19360
DA:785,2080
DA:791,236
DA:792,210
DA:793,210
DA:794,210
DA:797,34
DA:798,8
DA:799,8
DA:800,8
DA:801,8
DA:802,8
DA:804,8
DA:805,8
DA:806,8
DA:808,8
DA:809,8
DA:810,8
DA:811,8
DA:813,8
DA:814,8
DA:815,16
DA:817,8
DA:819,26
DA:820,26
DA:822,26
DA:824,26
DA:825,670
DA:826,644
DA:827,0
DA:828,0
DA:832,26
DA:835,26
DA:836,26
DA:837,26
DA:838,26
DA:841,26
DA:847,26
DA:848,130
DA:849,104
DA:850,104
DA:851,104
DA:852,104
DA:855,26
DA:856,26
DA:857,26
DA:858,26
DA:859,26
DA:860,26
DA:863,26
DA:864,26
DA:865,26
DA:866,26
DA:867,26
DA:868,26
DA:869,26
DA:870,26
DA:873,130
DA:875,104
DA:876,104
DA:877,104
DA:878,104
DA:879,104
DA:880,104
DA:883,104
DA:884,104
DA:885,104
DA:886,104
DA:887,104
DA:888,104
DA:889,104
DA:891,104
DA:893,26
DA:895,404
DA:897,404
DA:898,404
DA:899,404
DA:900,404
DA:903,404
DA:904,404
DA:906,404
DA:908,422
DA:909,18
DA:911,16
DA:912,16
DA:913,16
DA:914,16
DA:916,16
DA:918,16
DA:919,16
DA:922,16
DA:923,16
DA:924,16
DA:925,16
DA:927,16
DA:928,16
DA:929,16
DA:930,16
DA:933,16
DA:935,16
DA:936,16
DA:938,16
DA:941,16
DA:942,16
DA:943,16
DA:944,16
DA:947,16
DA:948,16
DA:949,16
DA:950,16
DA:951,16
DA:952,16
DA:953,16
DA:954,32
DA:956,16
DA:958,404
LF:566
LH:509
end_of_record
TN:
SF:/home/fed/Documents/clion-workspace/qt-try/src/ui/historypanel.cpp
FN:109,109,_ZZN6optikg12HistoryPanel7setupUiEvENKUlvE_clEv
FN:119,143,_ZN6optikg12HistoryPanel10setupTableEv
FN:145,148,_ZN6optikg12HistoryPanel11loadHistoryEv
FN:150,153,_ZN6optikg12HistoryPanel9addRecordERKNS_16ExtractionRecordE
FN:155,160,_ZN6optikg12HistoryPanel12removeRecordEx
FN:162,164,_ZN6optikg12HistoryPanel12clearHistoryEv
FN:166,178,_ZNK6optikg12HistoryPanel17selectedRecordIdsEv
FN:180,204,_ZN6optikg12HistoryPanel12refreshTableERK5QListINS_16ExtractionRecordEE
FN:206,223,_ZN6optikg12HistoryPanel8onSearchEv
FN:21,34,_ZN6optikg12HistoryPanelC2EP7QWidget
FN:225,227,_ZN6optikg12HistoryPanel15onFilterChangedEv
FN:229,235,_ZN6optikg12HistoryPanel13onItemClickedEii
FN:237,243,_ZN6optikg12HistoryPanel19onItemDoubleClickedEii
FN:245,252,_ZN6optikg12HistoryPanel8onExportEv
FN:254,270,_ZN6optikg12HistoryPanel13onBatchDeleteEv
FN:272,278,_ZN6optikg12HistoryPanel13onClearFilterEv
FN:36,117,_ZN6optikg12HistoryPanel7setupUiEv
FNDA:0,_ZZN6optikg12HistoryPanel7setupUiEvENKUlvE_clEv
FNDA:32,_ZN6optikg12HistoryPanel10setupTableEv
FNDA:32,_ZN6optikg12HistoryPanel11loadHistoryEv
FNDA:0,_ZN6optikg12HistoryPanel9addRecordERKNS_16ExtractionRecordE
FNDA:0,_ZN6optikg12HistoryPanel12removeRecordEx
FNDA:0,_ZN6optikg12HistoryPanel12clearHistoryEv
FNDA:0,_ZNK6optikg12HistoryPanel17selectedRecordIdsEv
FNDA:32,_ZN6optikg12HistoryPanel12refreshTableERK5QListINS_16ExtractionRecordEE
FNDA:0,_ZN6optikg12HistoryPanel8onSearchEv
FNDA:32,_ZN6optikg12HistoryPanelC2EP7QWidget
FNDA:0,_ZN6optikg12HistoryPanel15onFilterChangedEv
FNDA:0,_ZN6optikg12HistoryPanel13onItemClickedEii
FNDA:0,_ZN6optikg12HistoryPanel19onItemDoubleClickedEii
FNDA:0,_ZN6optikg12HistoryPanel8onExportEv
FNDA:0,_ZN6optikg12HistoryPanel13onBatchDeleteEv
FNDA:0,_ZN6optikg12HistoryPanel13onClearFilterEv
FNDA:32,_ZN6optikg12HistoryPanel7setupUiEv
FNF:17
FNH:5
DA:21,32
DA:23,32
DA:24,32
DA:25,32
DA:26,32
DA:27,32
DA:28,32
DA:29,32
DA:30,32
DA:31,32
DA:32,32
DA:33,32
DA:34,32
DA:36,32
DA:37,32
DA:38,32
DA:39,32
DA:42,32
DA:43,32
DA:44,32
DA:47,32
DA:48,32
DA:50,32
DA:51,32
DA:52,32
DA:53,32
DA:55,32
DA:56,32
DA:57,32
DA:58,32
DA:59,32
DA:60,32
DA:61,32
DA:62,32
DA:64,32
DA:65,32
DA:66,32
DA:67,32
DA:68,32
DA:70,32
DA:71,32
DA:72,32
DA:73,32
DA:74,32
DA:76,32
DA:77,32
DA:78,32
DA:79,32
DA:81,32
DA:82,32
DA:83,32
DA:85,32
DA:86,32
DA:87,32
DA:88,32
DA:90,32
DA:93,32
DA:94,32
DA:97,32
DA:98,32
DA:99,32
DA:100,32
DA:102,32
DA:103,32
DA:104,32
DA:105,32
DA:107,32
DA:108,32
DA:109,32
DA:111,32
DA:112,32
DA:113,32
DA:114,32
DA:116,32
DA:117,32
DA:119,32
DA:120,32
DA:121,32
DA:122,224
DA:126,32
DA:127,32
DA:128,32
DA:129,32
DA:130,32
DA:131,32
DA:132,32
DA:133,32
DA:135,32
DA:136,32
DA:137,32
DA:139,32
DA:140,32
DA:141,32
DA:142,32
DA:143,64
DA:145,32
DA:146,32
DA:147,32
DA:148,32
DA:150,0
DA:152,0
DA:153,0
DA:155,0
DA:157,0
DA:158,0
DA:160,0
DA:162,0
DA:163,0
DA:164,0
DA:166,0
DA:167,0
DA:168,0
DA:169,0
DA:170,0
DA:171,0
DA:172,0
DA:173,0
DA:177,0
DA:178,0
DA:180,32
DA:181,32
DA:182,160
DA:183,128
DA:184,128
DA:185,128
DA:186,128
DA:187,128
DA:188,128
DA:189,128
DA:193,32
DA:194,0
DA:195,0
DA:196,0
DA:197,0
DA:198,0
DA:199,0
DA:202,32
DA:204,32
DA:206,0
DA:207,0
DA:208,0
DA:209,0
DA:210,0
DA:212,0
DA:213,0
DA:214,0
DA:216,0
DA:217,0
DA:220,0
DA:221,0
DA:222,0
DA:223,0
DA:225,0
DA:227,0
DA:229,0
DA:231,0
DA:232,0
DA:233,0
DA:235,0
DA:237,0
DA:239,0
DA:240,0
DA:241,0
DA:243,0
DA:245,0
DA:246,0
DA:247,0
DA:248,0
DA:249,0
DA:251,0
DA:252,0
DA:254,0
DA:255,0
DA:256,0
DA:257,0
DA:258,0
DA:261,0
DA:262,0
DA:263,0
DA:267,0
DA:268,0
DA:270,0
DA:272,0
DA:273,0
DA:274,0
DA:275,0
DA:276,0
DA:277,0
DA:278,0
LF:189
LH:112
end_of_record
TN:
SF:/home/fed/Documents/clion-workspace/qt-try/src/ui/mainwindow.cpp
FN:1034,1078,_ZN6optikg10MainWindow13onHelpClickedEv
FN:104,107,_ZN6optikg10MainWindow13keyPressEventEP9QKeyEvent
FN:1080,1097,_ZN6optikg10MainWindow14onAboutClickedEv
FN:109,142,_ZN6optikg10MainWindow7setupUiEv
FN:144,261,_ZN6optikg10MainWindow12setupMenuBarEv
FN:183,185,_ZZN6optikg10MainWindow12setupMenuBarEvENKUlvE_clEv
FN:189,191,_ZZN6optikg10MainWindow12setupMenuBarEvENKUlvE0_clEv
FN:195,197,_ZZN6optikg10MainWindow12setupMenuBarEvENKUlvE1_clEv
FN:201,203,_ZZN6optikg10MainWindow12setupMenuBarEvENKUlvE2_clEv
FN:210,212,_ZZN6optikg10MainWindow12setupMenuBarEvENKUlbE_clEb
FN:217,219,_ZZN6optikg10MainWindow12setupMenuBarEvENKUlbE0_clEb
FN:224,226,_ZZN6optikg10MainWindow12setupMenuBarEvENKUlbE1_clEb
FN:232,242,_ZZN6optikg10MainWindow12setupMenuBarEvENKUlvE3_clEv
FN:263,327,_ZN6optikg10MainWindow12setupToolBarEv
FN:287,289,_ZZN6optikg10MainWindow12setupToolBarEvENKUlvE_clEv
FN:295,297,_ZZN6optikg10MainWindow12setupToolBarEvENKUlvE0_clEv
FN:303,305,_ZZN6optikg10MainWindow12setupToolBarEvENKUlvE1_clEv
FN:329,350,_ZN6optikg10MainWindow14setupStatusBarEv
FN:352,354,_ZN6optikg10MainWindow14setupShortcutsEv
FN:356,402,_ZN6optikg10MainWindow14connectSignalsEv
FN:365,368,_ZZN6optikg10MainWindow14connectSignalsEvENKUlxE_clEx
FN:370,373,_ZZN6optikg10MainWindow14connectSignalsEvENKUlxE0_clEx
FN:375,377,_ZZN6optikg10MainWindow14connectSignalsEvENKUlRK5QListIxEE_clES4_
FN:379,381,_ZZN6optikg10MainWindow14connectSignalsEvENKUlRK5QListIxEE0_clES4_
FN:389,394,_ZZN6optikg10MainWindow14connectSignalsEvENKUlRK7QStringS3_E_clES3_S3_
FN:396,401,_ZZN6optikg10MainWindow14connectSignalsEvENKUlRKNS_6TripleEE_clES3_
FN:404,416,_ZN6optikg10MainWindow12loadSettingsEv
FN:418,423,_ZN6optikg10MainWindow12saveSettingsEv
FN:425,450,_ZN6optikg10MainWindow9showToastERK7QStringb
FN:444,449,_ZZN6optikg10MainWindow9showToastERK7QStringbENKUlvE_clEv
FN:452,486,_ZN6optikg10MainWindow22updateGraphFromTriplesERK5QListINS_6TripleEE
FN:46,86,_ZN6optikg10MainWindowC2EP7QWidget
FN:490,550,_ZN6optikg10MainWindow16onExtractClickedEv
FN:543,545,_ZZN6optikg10MainWindow16onExtractClickedEvENKUlvE_clEv
FN:552,569,_ZN6optikg10MainWindow14onClearClickedEv
FN:571,575,_ZN6optikg10MainWindow21onBatchProcessClickedEv
FN:577,644,_ZN6optikg10MainWindow19onExportJsonClickedEv
FN:646,714,_ZN6optikg10MainWindow18onExportCsvClickedEv
FN:676,685,_ZZN6optikg10MainWindow18onExportCsvClickedEvENKUlRK7QStringE_clES3_
FN:716,724,_ZN6optikg10MainWindow17onSettingsClickedEv
FN:726,737,_ZN6optikg10MainWindow19onExtractionStartedEv
FN:739,780,_ZN6optikg10MainWindow20onExtractionFinishedERK5QListINS_6TripleEE
FN:782,792,_ZN6optikg10MainWindow17onExtractionErrorERK7QString
FN:794,796,_ZN6optikg10MainWindow17onProgressChangedEi
FN:798,809,_ZN6optikg10MainWindow20onBatchDeleteRecordsERK5QListIxE
FN:811,969,_ZN6optikg10MainWindow13onOpenClickedEv
FN:88,97,_ZN6optikg10MainWindowD0Ev
FN:88,97,_ZN6optikg10MainWindowD2Ev
FN:971,997,_ZN6optikg10MainWindow21onOpenTextFileClickedEv
FN:99,102,_ZN6optikg10MainWindow10closeEventEP11QCloseEvent
FN:999,1032,_ZN6optikg10MainWindow17loadRecordDetailsEx
FNDA:0,_ZN6optikg10MainWindow13onHelpClickedEv
FNDA:0,_ZN6optikg10MainWindow13keyPressEventEP9QKeyEvent
FNDA:0,_ZN6optikg10MainWindow14onAboutClickedEv
FNDA:32,_ZN6optikg10MainWindow7setupUiEv
FNDA:32,_ZN6optikg10MainWindow12setupMenuBarEv
FNDA:0,_ZZN6optikg10MainWindow12setupMenuBarEvENKUlvE_clEv
FNDA:0,_ZZN6optikg10MainWindow12setupMenuBarEvENKUlvE0_clEv
FNDA:0,_ZZN6optikg10MainWindow12setupMenuBarEvENKUlvE1_clEv
FNDA:0,_ZZN6optikg10MainWindow12setupMenuBarEvENKUlvE2_clEv
FNDA:0,_ZZN6optikg10MainWindow12setupMenuBarEvENKUlbE_clEb
FNDA:0,_ZZN6optikg10MainWindow12setupMenuBarEvENKUlbE0_clEb
FNDA:0,_ZZN6optikg10MainWindow12setupMenuBarEvENKUlbE1_clEb
FNDA:0,_ZZN6optikg10MainWindow12setupMenuBarEvENKUlvE3_clEv
FNDA:32,_ZN6optikg10MainWindow12setupToolBarEv
FNDA:0,_ZZN6optikg10MainWindow12setupToolBarEvENKUlvE_clEv
FNDA:0,_ZZN6optikg10MainWindow12setupToolBarEvENKUlvE0_clEv
FNDA:0,_ZZN6optikg10MainWindow12setupToolBarEvENKUlvE1_clEv
FNDA:32,_ZN6optikg10MainWindow14setupStatusBarEv
FNDA:32,_ZN6optikg10MainWindow14setupShortcutsEv
FNDA:32,_ZN6optikg10MainWindow14connectSignalsEv
FNDA:0,_ZZN6optikg10MainWindow14connectSignalsEvENKUlxE_clEx
FNDA:0,_ZZN6optikg10MainWindow14connectSignalsEvENKUlxE0_clEx
FNDA:0,_ZZN6optikg10MainWindow14connectSignalsEvENKUlRK5QListIxEE_clES4_
FNDA:0,_ZZN6optikg10MainWindow14connectSignalsEvENKUlRK5QListIxEE0_clES4_
FNDA:0,_ZZN6optikg10MainWindow14connectSignalsEvENKUlRK7QStringS3_E_clES3_S3_
FNDA:0,_ZZN6optikg10MainWindow14connectSignalsEvENKUlRKNS_6TripleEE_clES3_
FNDA:32,_ZN6optikg10MainWindow12loadSettingsEv
FNDA:34,_ZN6optikg10MainWindow12saveSettingsEv
FNDA:4,_ZN6optikg10MainWindow9showToastERK7QStringb
FNDA:0,_ZZN6optikg10MainWindow9showToastERK7QStringbENKUlvE_clEv
FNDA:0,_ZN6optikg10MainWindow22updateGraphFromTriplesERK5QListINS_6TripleEE
FNDA:32,_ZN6optikg10MainWindowC2EP7QWidget
FNDA:2,_ZN6optikg10MainWindow16onExtractClickedEv
FNDA:0,_ZZN6optikg10MainWindow16onExtractClickedEvENKUlvE_clEv
FNDA:6,_ZN6optikg10MainWindow14onClearClickedEv
FNDA:0,_ZN6optikg10MainWindow21onBatchProcessClickedEv
FNDA:2,_ZN6optikg10MainWindow19onExportJsonClickedEv
FNDA:0,_ZN6optikg10MainWindow18onExportCsvClickedEv
FNDA:0,_ZZN6optikg10MainWindow18onExportCsvClickedEvENKUlRK7QStringE_clES3_
FNDA:0,_ZN6optikg10MainWindow17onSettingsClickedEv
FNDA:0,_ZN6optikg10MainWindow19onExtractionStartedEv
FNDA:0,_ZN6optikg10MainWindow20onExtractionFinishedERK5QListINS_6TripleEE
FNDA:0,_ZN6optikg10MainWindow17onExtractionErrorERK7QString
FNDA:0,_ZN6optikg10MainWindow17onProgressChangedEi
FNDA:0,_ZN6optikg10MainWindow20onBatchDeleteRecordsERK5QListIxE
FNDA:0,_ZN6optikg10MainWindow13onOpenClickedEv
FNDA:0,_ZN6optikg10MainWindowD0Ev
FNDA:32,_ZN6optikg10MainWindowD2Ev
FNDA:0,_ZN6optikg10MainWindow21onOpenTextFileClickedEv
FNDA:2,_ZN6optikg10MainWindow10closeEventEP11QCloseEvent
FNDA:0,_ZN6optikg10MainWindow17loadRecordDetailsEx
FNF:51
FNH:15
DA:46,32
DA:48,64
DA:49,32
DA:50,32
DA:51,32
DA:52,32
DA:53,32
DA:54,32
DA:55,32
DA:56,32
DA:57,32
DA:58,32
DA:59,32
DA:60,32
DA:62,32
DA:63,32
DA:64,32
DA:65,32
DA:66,32
DA:67,32
DA:70,32
DA:72,32
DA:75,32
DA:76,0
DA:80,32
DA:81,32
DA:84,32
DA:85,32
DA:86,32
DA:88,32
DA:89,32
DA:91,32
DA:92,0
DA:93,0
DA:96,32
DA:97,32
DA:99,2
DA:100,2
DA:101,2
DA:102,2
DA:104,0
DA:106,0
DA:107,0
DA:109,32
DA:111,32
DA:112,32
DA:113,32
DA:114,32
DA:117,32
DA:118,32
DA:119,32
DA:120,32
DA:123,32
DA:124,32
DA:125,32
DA:126,32
DA:129,32
DA:130,32
DA:131,32
DA:132,32
DA:134,32
DA:135,32
DA:138,32
DA:139,32
DA:140,32
DA:141,32
DA:142,32
DA:144,32
DA:145,32
DA:146,32
DA:147,32
DA:148,32
DA:150,32
DA:151,32
DA:152,32
DA:154,32
DA:155,32
DA:156,32
DA:158,32
DA:159,32
DA:160,32
DA:162,32
DA:163,32
DA:165,32
DA:166,32
DA:167,32
DA:168,32
DA:170,32
DA:171,32
DA:172,32
DA:173,32
DA:175,32
DA:176,32
DA:177,32
DA:179,32
DA:181,32
DA:182,32
DA:183,32
DA:184,0
DA:185,0
DA:187,32
DA:188,32
DA:189,32
DA:190,0
DA:191,0
DA:193,32
DA:194,32
DA:195,32
DA:196,0
DA:197,0
DA:199,32
DA:200,32
DA:201,32
DA:202,0
DA:203,0
DA:205,32
DA:207,32
DA:208,32
DA:209,32
DA:210,32
DA:211,0
DA:212,0
DA:214,32
DA:215,32
DA:216,32
DA:217,32
DA:218,0
DA:219,0
DA:221,32
DA:222,32
DA:223,32
DA:224,32
DA:225,0
DA:226,0
DA:228,32
DA:230,32
DA:231,32
DA:232,32
DA:234,0
DA:235,0
DA:236,0
DA:237,0
DA:238,0
DA:240,0
DA:241,0
DA:242,0
DA:244,32
DA:245,32
DA:246,32
DA:247,32
DA:249,32
DA:250,32
DA:251,32
DA:253,32
DA:254,32
DA:255,32
DA:256,32
DA:258,32
DA:259,32
DA:260,32
DA:261,32
DA:263,32
DA:264,32
DA:265,32
DA:268,32
DA:269,64
DA:270,32
DA:271,32
DA:272,32
DA:275,32
DA:276,64
DA:277,32
DA:278,32
DA:279,32
DA:281,32
DA:284,32
DA:285,32
DA:286,32
DA:287,32
DA:288,0
DA:289,0
DA:292,32
DA:293,32
DA:294,32
DA:295,32
DA:296,0
DA:297,0
DA:300,32
DA:301,32
DA:302,32
DA:303,32
DA:304,0
DA:305,0
DA:307,32
DA:310,32
DA:311,32
DA:312,32
DA:313,32
DA:316,32
DA:317,32
DA:318,32
DA:319,32
DA:322,32
DA:323,32
DA:324,32
DA:327,32
DA:329,32
DA:330,32
DA:331,32
DA:332,32
DA:334,32
DA:335,32
DA:337,32
DA:338,32
DA:340,32
DA:341,32
DA:345,32
DA:346,32
DA:347,32
DA:348,32
DA:349,32
DA:350,32
DA:352,32
DA:354,32
DA:356,32
DA:358,32
DA:359,32
DA:360,32
DA:361,32
DA:364,32
DA:365,32
DA:367,0
DA:368,0
DA:369,32
DA:370,32
DA:372,0
DA:373,0
DA:374,32
DA:375,32
DA:376,0
DA:377,0
DA:378,32
DA:379,32
DA:380,0
DA:381,0
DA:384,32
DA:385,32
DA:388,32
DA:389,32
DA:390,0
DA:391,0
DA:393,0
DA:394,0
DA:395,32
DA:396,32
DA:397,0
DA:398,0
DA:400,0
DA:401,0
DA:402,32
DA:404,32
DA:406,32
DA:409,32
DA:410,32
DA:411,32
DA:415,64
DA:416,32
DA:418,34
DA:420,34
DA:421,34
DA:422,34
DA:423,34
DA:425,4
DA:427,4
DA:430,4
DA:431,4
DA:434,4
DA:437,4
DA:438,0
DA:440,8
DA:444,4
DA:445,0
DA:446,0
DA:447,0
DA:449,0
DA:450,4
DA:452,0
DA:453,0
DA:455,0
DA:456,0
DA:457,0
DA:458,0
DA:460,0
DA:461,0
DA:462,0
DA:464,0
DA:465,0
DA:466,0
DA:467,0
DA:468,0
DA:469,0
DA:470,0
DA:471,0
DA:472,0
DA:473,0
DA:474,0
DA:475,0
DA:477,0
DA:478,0
DA:479,0
DA:480,0
DA:482,0
DA:484,0
DA:485,0
DA:486,0
DA:490,2
DA:491,2
DA:492,0
DA:493,2
DA:496,2
DA:497,2
DA:498,2
DA:499,2
DA:503,0
DA:504,0
DA:505,0
DA:506,0
DA:507,0
DA:508,0
DA:512,0
DA:513,0
DA:516,0
DA:517,0
DA:520,0
DA:521,0
DA:522,0
DA:526,0
DA:527,0
DA:530,0
DA:531,0
DA:532,0
DA:535,0
DA:536,0
DA:537,0
DA:538,0
DA:539,0
DA:540,0
DA:541,0
DA:542,0
DA:543,0
DA:544,0
DA:545,0
DA:548,0
DA:549,0
DA:550,2
DA:552,6
DA:553,6
DA:554,6
DA:556,6
DA:557,6
DA:559,6
DA:560,6
DA:564,6
DA:567,6
DA:568,6
DA:569,6
DA:571,0
DA:573,0
DA:574,0
DA:575,0
DA:577,2
DA:578,2
DA:579,2
DA:580,2
DA:584,0
DA:585,0
DA:586,0
DA:588,0
DA:589,0
DA:593,0
DA:594,0
DA:598,0
DA:599,0
DA:600,0
DA:603,0
DA:604,0
DA:605,0
DA:606,0
DA:607,0
DA:610,0
DA:611,0
DA:612,0
DA:613,0
DA:614,0
DA:617,0
DA:618,0
DA:619,0
DA:621,0
DA:622,0
DA:625,0
DA:626,0
DA:627,0
DA:628,0
DA:629,0
DA:631,0
DA:634,0
DA:635,0
DA:636,0
DA:637,0
DA:640,0
DA:641,0
DA:643,0
DA:644,0
DA:646,0
DA:647,0
DA:648,0
DA:649,0
DA:653,0
DA:654,0
DA:655,0
DA:657,0
DA:658,0
DA:662,0
DA:663,0
DA:666,0
DA:667,0
DA:668,0
DA:669,0
DA:672,0
DA:676,0
DA:678,0
DA:680,0
DA:681,0
DA:682,0
DA:683,0
DA:684,0
DA:688,0
DA:689,0
DA:690,0
DA:691,0
DA:692,0
DA:693,0
DA:694,0
DA:695,0
DA:696,0
DA:699,0
DA:700,0
DA:701,0
DA:702,0
DA:703,0
DA:704,0
DA:705,0
DA:706,0
DA:707,0
DA:708,0
DA:711,0
DA:713,0
DA:714,0
DA:716,0
DA:718,0
DA:719,0
DA:722,0
DA:723,0
DA:724,0
DA:726,0
DA:727,0
DA:729,0
DA:730,0
DA:731,0
DA:734,0
DA:735,0
DA:737,0
DA:739,0
DA:740,0
DA:741,0
DA:743,0
DA:746,0
DA:747,0
DA:748,0
DA:749,0
DA:751,0
DA:752,0
DA:754,0
DA:755,0
DA:758,0
DA:761,0
DA:764,0
DA:765,0
DA:769,0
DA:772,0
DA:775,0
DA:776,0
DA:779,0
DA:780,0
DA:782,0
DA:783,0
DA:784,0
DA:787,0
DA:788,0
DA:791,0
DA:792,0
DA:794,0
DA:795,0
DA:796,0
DA:798,0
DA:799,0
DA:800,0
DA:803,0
DA:804,0
DA:807,0
DA:811,0
DA:812,0
DA:815,0
DA:816,0
DA:817,0
DA:819,0
DA:820,0
DA:821,0
DA:824,0
DA:826,0
DA:827,0
DA:828,0
DA:829,0
DA:830,0
DA:831,0
DA:832,0
DA:833,0
DA:835,0
DA:836,0
DA:837,0
DA:838,0
DA:840,0
DA:841,0
DA:842,0
DA:843,0
DA:844,0
DA:845,0
DA:846,0
DA:847,0
DA:848,0
DA:849,0
DA:851,0
DA:852,0
DA:853,0
DA:854,0
DA:857,0
DA:858,0
DA:859,0
DA:862,0
DA:863,0
DA:864,0
DA:868,0
DA:869,0
DA:870,0
DA:871,0
DA:872,0
DA:873,0
DA:874,0
DA:875,0
DA:877,0
DA:878,0
DA:879,0
DA:880,0
DA:881,0
DA:882,0
DA:883,0
DA:884,0
DA:886,0
DA:887,0
DA:888,0
DA:889,0
DA:892,0
DA:893,0
DA:894,0
DA:895,0
DA:896,0
DA:897,0
DA:899,0
DA:900,0
DA:901,0
DA:902,0
DA:906,0
DA:907,0
DA:908,0
DA:909,0
DA:910,0
DA:913,0
DA:914,0
DA:915,0
DA:916,0
DA:919,0
DA:920,0
DA:921,0
DA:922,0
DA:923,0
DA:926,0
DA:927,0
DA:928,0
DA:929,0
DA:932,0
DA:933,0
DA:934,0
DA:935,0
DA:936,0
DA:937,0
DA:939,0
DA:940,0
DA:942,0
DA:945,0
DA:946,0
DA:949,0
DA:950,0
DA:951,0
DA:953,0
DA:957,0
DA:960,0
DA:961,0
DA:963,0
DA:964,0
DA:967,0
DA:968,0
DA:969,0
DA:971,0
DA:973,0
DA:974,0
DA:975,0
DA:977,0
DA:978,0
DA:981,0
DA:982,0
DA:983,0
DA:984,0
DA:987,0
DA:988,0
DA:989,0
DA:990,0
DA:993,0
DA:994,0
DA:995,0
DA:997,0
DA:999,0
DA:1001,0
DA:1002,0
DA:1003,0
DA:1004,0
DA:1008,0
DA:1009,0
DA:1013,0
DA:1016,0
DA:1017,0
DA:1021,0
DA:1024,0
DA:1025,0
DA:1027,0
DA:1028,0
DA:1031,0
DA:1032,0
DA:1034,0
DA:1068,0
DA:1070,0
DA:1071,0
DA:1072,0
DA:1073,0
DA:1074,0
DA:1075,0
DA:1076,0
DA:1077,0
DA:1078,0
DA:1080,0
DA:1094,0
DA:1096,0
DA:1097,0
LF:672
LH:254
end_of_record
TN:
SF:/home/fed/Documents/clion-workspace/qt-try/src/ui/resulttreewidget.cpp
FN:10,13,_ZN6optikg16ResultTreeWidgetC2EP7QWidget
FN:113,115,_ZN6optikg16ResultTreeWidget12clearResultsEv
FN:117,130,_ZN6optikg16ResultTreeWidget16createEntityItemERKNS_6EntityE
FN:132,146,_ZN6optikg16ResultTreeWidget16createTripleItemERKNS_6TripleE
FN:148,150,_ZN6optikg16ResultTreeWidget18confidenceToStringEf
FN:15,48,_ZN6optikg16ResultTreeWidget7setupUiEv
FN:152,156,_ZN6optikg16ResultTreeWidget17confidenceToColorEf
FN:35,47,_ZZN6optikg16ResultTreeWidget7setupUiEvENKUlP15QTreeWidgetItemiE_clES2_i
FN:50,111,_ZN6optikg16ResultTreeWidget10setResultsERK5QListINS_6TripleEE
FNDA:32,_ZN6optikg16ResultTreeWidgetC2EP7QWidget
FNDA:6,_ZN6optikg16ResultTreeWidget12clearResultsEv
FNDA:0,_ZN6optikg16ResultTreeWidget16createEntityItemERKNS_6EntityE
FNDA:0,_ZN6optikg16ResultTreeWidget16createTripleItemERKNS_6TripleE
FNDA:0,_ZN6optikg16ResultTreeWidget18confidenceToStringEf
FNDA:32,_ZN6optikg16ResultTreeWidget7setupUiEv
FNDA:0,_ZN6optikg16ResultTreeWidget17confidenceToColorEf
FNDA:0,_ZZN6optikg16ResultTreeWidget7setupUiEvENKUlP15QTreeWidgetItemiE_clES2_i
FNDA:0,_ZN6optikg16ResultTreeWidget10setResultsERK5QListINS_6TripleEE
FNF:9
FNH:3
DA:10,32
DA:11,32
DA:12,32
DA:13,32
DA:15,32
DA:16,32
DA:17,128
DA:19,32
DA:20,32
DA:21,32
DA:22,32
DA:23,32
DA:24,32
DA:26,32
DA:27,32
DA:28,32
DA:29,32
DA:30,32
DA:33,32
DA:35,32
DA:37,0
DA:38,0
DA:39,0
DA:40,0
DA:41,0
DA:42,0
DA:43,0
DA:44,0
DA:45,0
DA:47,0
DA:48,64
DA:50,0
DA:51,0
DA:54,0
DA:55,0
DA:57,0
DA:58,0
DA:59,0
DA:60,0
DA:64,0
DA:65,0
DA:66,0
DA:68,0
DA:69,0
DA:70,0
DA:71,0
DA:74,0
DA:75,0
DA:76,0
DA:77,0
DA:81,0
DA:82,0
DA:83,0
DA:85,0
DA:88,0
DA:89,0
DA:90,0
DA:92,0
DA:93,0
DA:94,0
DA:95,0
DA:97,0
DA:98,0
DA:99,0
DA:104,0
DA:105,0
DA:106,0
DA:107,0
DA:108,0
DA:109,0
DA:111,0
DA:113,6
DA:114,6
DA:115,6
DA:117,0
DA:118,0
DA:119,0
DA:120,0
DA:121,0
DA:124,0
DA:127,0
DA:129,0
DA:132,0
DA:133,0
DA:134,0
DA:135,0
DA:136,0
DA:137,0
DA:140,0
DA:143,0
DA:145,0
DA:146,0
DA:148,0
DA:149,0
DA:152,0
DA:153,0
DA:154,0
DA:155,0
LF:98
LH:24
end_of_record
TN:
SF:/home/fed/Documents/clion-workspace/qt-try/src/ui/settingsdialog.cpp
FN:122,166,_ZN6optikg14SettingsDialog15createModelPageEv
FN:168,213,_ZN6optikg14SettingsDialog15createBatchPageEv
FN:215,245,_ZN6optikg14SettingsDialog12loadSettingsEv
FN:23,30,_ZN6optikg14SettingsDialogC2EP7QWidget
FN:247,266,_ZN6optikg14SettingsDialog12saveSettingsEv
FN:268,271,_ZN6optikg14SettingsDialog14onApplyClickedEv
FN:273,276,_ZN6optikg14SettingsDialog11onOkClickedEv
FN:278,288,_ZN6optikg14SettingsDialog15onCancelClickedEv
FN:290,310,_ZN6optikg14SettingsDialog24onRestoreDefaultsClickedEv
FN:312,322,_ZN6optikg14SettingsDialog20onBrowseModelClickedEv
FN:32,32,_ZN6optikg14SettingsDialogD0Ev
FN:32,32,_ZN6optikg14SettingsDialogD2Ev
FN:324,334,_ZN6optikg14SettingsDialog24onBrowseOutputDirClickedEv
FN:34,69,_ZN6optikg14SettingsDialog7setupUiEv
FN:71,120,_ZN6optikg14SettingsDialog22createFieldMappingPageEv
FNDA:0,_ZN6optikg14SettingsDialog15createModelPageEv
FNDA:0,_ZN6optikg14SettingsDialog15createBatchPageEv
FNDA:0,_ZN6optikg14SettingsDialog12loadSettingsEv
FNDA:0,_ZN6optikg14SettingsDialogC2EP7QWidget
FNDA:0,_ZN6optikg14SettingsDialog12saveSettingsEv
FNDA:0,_ZN6optikg14SettingsDialog14onApplyClickedEv
FNDA:0,_ZN6optikg14SettingsDialog11onOkClickedEv
FNDA:0,_ZN6optikg14SettingsDialog15onCancelClickedEv
FNDA:0,_ZN6optikg14SettingsDialog24onRestoreDefaultsClickedEv
FNDA:0,_ZN6optikg14SettingsDialog20onBrowseModelClickedEv
FNDA:0,_ZN6optikg14SettingsDialogD0Ev
FNDA:0,_ZN6optikg14SettingsDialogD2Ev
FNDA:0,_ZN6optikg14SettingsDialog24onBrowseOutputDirClickedEv
FNDA:0,_ZN6optikg14SettingsDialog7setupUiEv
FNDA:0,_ZN6optikg14SettingsDialog22createFieldMappingPageEv
FNF:15
FNH:0
DA:23,0
DA:24,0
DA:25,0
DA:26,0
DA:28,0
DA:29,0
DA:30,0
DA:32,0
DA:34,0
DA:35,0
DA:38,0
DA:39,0
DA:40,0
DA:41,0
DA:42,0
DA:45,0
DA:46,0
DA:48,0
DA:49,0
DA:50,0
DA:52,0
DA:54,0
DA:55,0
DA:56,0
DA:58,0
DA:59,0
DA:60,0
DA:61,0
DA:63,0
DA:64,0
DA:65,0
DA:67,0
DA:68,0
DA:69,0
DA:71,0
DA:72,0
DA:73,0
DA:77,0
DA:79,0
DA:80,0
DA:81,0
DA:82,0
DA:85,0
DA:86,0
DA:88,0
DA:89,0
DA:90,0
DA:91,0
DA:94,0
DA:95,0
DA:96,0
DA:97,0
DA:99,0
DA:102,0
DA:103,0
DA:105,0
DA:106,0
DA:107,0
DA:108,0
DA:110,0
DA:111,0
DA:112,0
DA:113,0
DA:114,0
DA:116,0
DA:117,0
DA:119,0
DA:122,0
DA:123,0
DA:124,0
DA:128,0
DA:129,0
DA:130,0
DA:131,0
DA:132,0
DA:135,0
DA:136,0
DA:138,0
DA:139,0
DA:140,0
DA:141,0
DA:142,0
DA:143,0
DA:144,0
DA:145,0
DA:146,0
DA:148,0
DA:149,0
DA:150,0
DA:151,0
DA:152,0
DA:153,0
DA:154,0
DA:157,0
DA:158,0
DA:159,0
DA:160,0
DA:162,0
DA:163,0
DA:165,0
DA:168,0
DA:169,0
DA:170,0
DA:174,0
DA:175,0
DA:176,0
DA:177,0
DA:178,0
DA:181,0
DA:182,0
DA:184,0
DA:185,0
DA:186,0
DA:187,0
DA:188,0
DA:189,0
DA:190,0
DA:191,0
DA:192,0
DA:194,0
DA:195,0
DA:196,0
DA:197,0
DA:199,0
DA:202,0
DA:203,0
DA:205,0
DA:206,0
DA:207,0
DA:209,0
DA:210,0
DA:212,0
DA:215,0
DA:216,0
DA:219,0
DA:220,0
DA:222,0
DA:223,0
DA:224,0
DA:225,0
DA:227,0
DA:231,0
DA:232,0
DA:235,0
DA:236,0
DA:238,0
DA:239,0
DA:240,0
DA:241,0
DA:244,0
DA:245,0
DA:247,0
DA:248,0
DA:251,0
DA:252,0
DA:253,0
DA:256,0
DA:257,0
DA:260,0
DA:261,0
DA:262,0
DA:264,0
DA:265,0
DA:266,0
DA:268,0
DA:269,0
DA:270,0
DA:271,0
DA:273,0
DA:274,0
DA:275,0
DA:276,0
DA:278,0
DA:279,0
DA:280,0
DA:281,0
DA:283,0
DA:284,0
DA:287,0
DA:290,0
DA:291,0
DA:292,0
DA:295,0
DA:296,0
DA:300,0
DA:301,0
DA:302,0
DA:303,0
DA:304,0
DA:305,0
DA:306,0
DA:307,0
DA:309,0
DA:312,0
DA:313,0
DA:314,0
DA:315,0
DA:316,0
DA:318,0
DA:319,0
DA:320,0
DA:322,0
DA:324,0
DA:326,0
DA:327,0
DA:328,0
DA:330,0
DA:331,0
DA:332,0
DA:334,0
LF:210
LH:0
end_of_record
TN:
SF:/home/fed/Documents/clion-workspace/qt-try/src/utils/appconstants.cpp
FN:106,114,_ZN6optikg12AppConstants4File15getCsvEncodingsEv
FN:116,121,_ZN6optikg12AppConstants4File16getExportFormatsEv
FN:125,136,_ZN6optikg12AppConstants16getEntityTypeMapEv
FN:159,188,_ZN6optikg12AppConstants10initializeEv
FN:190,196,_ZN6optikg12AppConstants12saveSettingsEv
FN:198,204,_ZN6optikg12AppConstants15resetToDefaultsEv
FN:206,209,_ZN6optikg12AppConstants9chunkSizeEv
FN:211,218,_ZN6optikg12AppConstants12setChunkSizeEi
FN:220,223,_ZN6optikg12AppConstants11overlapSizeEv
FN:225,232,_ZN6optikg12AppConstants14setOverlapSizeEi
FN:234,237,_ZN6optikg12AppConstants8maxCharsEv
FN:239,246,_ZN6optikg12AppConstants11setMaxCharsEi
FN:248,251,_ZN6optikg12AppConstants5Model18DEFAULT_CHUNK_SIZEEv
FN:253,256,_ZN6optikg12AppConstants5Model20DEFAULT_OVERLAP_SIZEEv
FN:258,261,_ZN6optikg12AppConstants5Model9MAX_CHARSEv
FN:263,265,_ZN6optikg12AppConstants5Model17validateChunkSizeEi
FN:267,269,_ZN6optikg12AppConstants5Model19validateOverlapSizeEi
FN:271,273,_ZN6optikg12AppConstants5Model16validateMaxCharsEi
FN:39,94,_ZN6optikg12AppConstants5Model19getModelSearchPathsERK7QString
FNDA:0,_ZN6optikg12AppConstants4File15getCsvEncodingsEv
FNDA:0,_ZN6optikg12AppConstants4File16getExportFormatsEv
FNDA:0,_ZN6optikg12AppConstants16getEntityTypeMapEv
FNDA:0,_ZN6optikg12AppConstants10initializeEv
FNDA:0,_ZN6optikg12AppConstants12saveSettingsEv
FNDA:0,_ZN6optikg12AppConstants15resetToDefaultsEv
FNDA:0,_ZN6optikg12AppConstants9chunkSizeEv
FNDA:0,_ZN6optikg12AppConstants12setChunkSizeEi
FNDA:0,_ZN6optikg12AppConstants11overlapSizeEv
FNDA:0,_ZN6optikg12AppConstants14setOverlapSizeEi
FNDA:0,_ZN6optikg12AppConstants8maxCharsEv
FNDA:0,_ZN6optikg12AppConstants11setMaxCharsEi
FNDA:0,_ZN6optikg12AppConstants5Model18DEFAULT_CHUNK_SIZEEv
FNDA:0,_ZN6optikg12AppConstants5Model20DEFAULT_OVERLAP_SIZEEv
FNDA:0,_ZN6optikg12AppConstants5Model9MAX_CHARSEv
FNDA:0,_ZN6optikg12AppConstants5Model17validateChunkSizeEi
FNDA:0,_ZN6optikg12AppConstants5Model19validateOverlapSizeEi
FNDA:0,_ZN6optikg12AppConstants5Model16validateMaxCharsEi
FNDA:0,_ZN6optikg12AppConstants5Model19getModelSearchPathsERK7QString
FNF:19
FNH:0
DA:39,0
DA:40,0
DA:44,0
DA:45,0
DA:46,0
DA:47,0
DA:48,0
DA:49,0
DA:50,0
DA:51,0
DA:52,0
DA:55,0
DA:56,0
DA:57,0
DA:81,0
DA:82,0
DA:83,0
DA:84,0
DA:93,0
DA:94,0
DA:106,0
DA:113,0
DA:116,0
DA:120,0
DA:125,0
DA:126,0
DA:128,0
DA:129,0
DA:130,0
DA:131,0
DA:132,0
DA:135,0
DA:136,0
DA:159,0
DA:160,0
DA:161,0
DA:164,0
DA:167,0
DA:168,0
DA:169,0
DA:172,0
DA:173,0
DA:174,0
DA:176,0
DA:177,0
DA:178,0
DA:180,0
DA:181,0
DA:182,0
DA:185,0
DA:186,0
DA:187,0
DA:188,0
DA:190,0
DA:191,0
DA:192,0
DA:193,0
DA:194,0
DA:195,0
DA:196,0
DA:198,0
DA:199,0
DA:200,0
DA:201,0
DA:202,0
DA:203,0
DA:204,0
DA:206,0
DA:207,0
DA:208,0
DA:211,0
DA:212,0
DA:213,0
DA:214,0
DA:216,0
DA:218,0
DA:220,0
DA:221,0
DA:222,0
DA:225,0
DA:226,0
DA:227,0
DA:228,0
DA:230,0
DA:232,0
DA:234,0
DA:235,0
DA:236,0
DA:239,0
DA:240,0
DA:241,0
DA:242,0
DA:244,0
DA:246,0
DA:248,0
DA:249,0
DA:250,0
DA:253,0
DA:254,0
DA:255,0
DA:258,0
DA:259,0
DA:260,0
DA:263,0
DA:264,0
DA:267,0
DA:268,0
DA:271,0
DA:272,0
LF:109
LH:0
end_of_record
TN:
SF:/home/fed/Documents/clion-workspace/qt-try/src/utils/configmanager.cpp
FN:103,105,_ZNK6optikg13ConfigManager19getCsvContentColumnEv
FN:107,113,_ZN6optikg13ConfigManager14setCsvEncodingERK7QString
FN:115,117,_ZNK6optikg13ConfigManager14getCsvEncodingEv
FN:121,127,_ZN6optikg13ConfigManager12setModelPathERK7QString
FN:129,131,_ZNK6optikg13ConfigManager12getModelPathEv
FN:133,169,_ZN6optikg13ConfigManager19autoDetectModelPathEv
FN:171,181,_ZN6optikg13ConfigManager12setThresholdEf
FN:183,185,_ZNK6optikg13ConfigManager12getThresholdEv
FN:189,195,_ZN6optikg13ConfigManager17setBatchOutputDirERK7QString
FN:197,199,_ZNK6optikg13ConfigManager17getBatchOutputDirEv
FN:201,207,_ZN6optikg13ConfigManager13setAutoExportEb
FN:209,211,_ZNK6optikg13ConfigManager13getAutoExportEv
FN:213,219,_ZN6optikg13ConfigManager22setDefaultExportFormatERK7QString
FN:221,223,_ZNK6optikg13ConfigManager22getDefaultExportFormatEv
FN:225,231,_ZN6optikg13ConfigManager17setSaveToDatabaseEb
FN:233,235,_ZNK6optikg13ConfigManager17getSaveToDatabaseEv
FN:239,241,_ZN6optikg13ConfigManager17setWindowGeometryERK10QByteArray
FN:243,245,_ZNK6optikg13ConfigManager17getWindowGeometryEv
FN:247,252,_ZN6optikg13ConfigManager12saveSettingsEv
FN:28,32,_ZN6optikg13ConfigManagerC2EP7QObject
FN:34,39,_ZN6optikg13ConfigManagerD0Ev
FN:34,39,_ZN6optikg13ConfigManagerD2Ev
FN:41,79,_ZN6optikg13ConfigManager10initializeEv
FN:83,89,_ZN6optikg13ConfigManager19setJsonContentFieldERK7QString
FN:91,93,_ZNK6optikg13ConfigManager19getJsonContentFieldEv
FN:95,101,_ZN6optikg13ConfigManager19setCsvContentColumnERK7QString
FNDA:4,_ZNK6optikg13ConfigManager19getCsvContentColumnEv
FNDA:2,_ZN6optikg13ConfigManager14setCsvEncodingERK7QString
FNDA:4,_ZNK6optikg13ConfigManager14getCsvEncodingEv
FNDA:6,_ZN6optikg13ConfigManager12setModelPathERK7QString
FNDA:2,_ZNK6optikg13ConfigManager12getModelPathEv
FNDA:8,_ZN6optikg13ConfigManager19autoDetectModelPathEv
FNDA:6,_ZN6optikg13ConfigManager12setThresholdEf
FNDA:38,_ZNK6optikg13ConfigManager12getThresholdEv
FNDA:2,_ZN6optikg13ConfigManager17setBatchOutputDirERK7QString
FNDA:2,_ZNK6optikg13ConfigManager17getBatchOutputDirEv
FNDA:12,_ZN6optikg13ConfigManager13setAutoExportEb
FNDA:44,_ZNK6optikg13ConfigManager13getAutoExportEv
FNDA:2,_ZN6optikg13ConfigManager22setDefaultExportFormatERK7QString
FNDA:36,_ZNK6optikg13ConfigManager22getDefaultExportFormatEv
FNDA:10,_ZN6optikg13ConfigManager17setSaveToDatabaseEb
FNDA:42,_ZNK6optikg13ConfigManager17getSaveToDatabaseEv
FNDA:36,_ZN6optikg13ConfigManager17setWindowGeometryERK10QByteArray
FNDA:34,_ZNK6optikg13ConfigManager17getWindowGeometryEv
FNDA:38,_ZN6optikg13ConfigManager12saveSettingsEv
FNDA:14,_ZN6optikg13ConfigManagerC2EP7QObject
FNDA:0,_ZN6optikg13ConfigManagerD0Ev
FNDA:14,_ZN6optikg13ConfigManagerD2Ev
FNDA:79,_ZN6optikg13ConfigManager10initializeEv
FNDA:8,_ZN6optikg13ConfigManager19setJsonContentFieldERK7QString
FNDA:8,_ZNK6optikg13ConfigManager19getJsonContentFieldEv
FNDA:2,_ZN6optikg13ConfigManager19setCsvContentColumnERK7QString
FNF:26
FNH:25
DA:28,14
DA:30,14
DA:31,14
DA:32,14
DA:34,14
DA:35,14
DA:36,14
DA:37,14
DA:39,14
DA:41,79
DA:42,79
DA:43,65
DA:47,14
DA:48,14
DA:49,14
DA:50,2
DA:51,0
DA:57,0
DA:60,28
DA:61,14
DA:63,28
DA:66,14
DA:67,14
DA:68,14
DA:69,14
DA:70,14
DA:71,14
DA:72,14
DA:73,14
DA:74,14
DA:76,14
DA:77,14
DA:78,14
DA:79,14
DA:83,8
DA:84,8
DA:85,4
DA:86,4
DA:87,4
DA:89,8
DA:91,8
DA:92,8
DA:95,2
DA:96,2
DA:97,2
DA:98,2
DA:99,2
DA:101,2
DA:103,4
DA:104,4
DA:107,2
DA:108,2
DA:109,2
DA:110,2
DA:111,2
DA:113,2
DA:115,4
DA:116,4
DA:121,6
DA:122,6
DA:123,6
DA:124,6
DA:125,6
DA:127,6
DA:129,2
DA:130,2
DA:133,8
DA:135,8
DA:136,6
DA:140,2
DA:141,2
DA:145,2
DA:146,2
DA:147,2
DA:148,2
DA:149,2
DA:150,2
DA:151,2
DA:152,2
DA:155,4
DA:156,4
DA:157,4
DA:158,2
DA:159,4
DA:162,2
DA:163,2
DA:164,2
DA:165,4
DA:167,0
DA:168,0
DA:169,2
DA:171,6
DA:173,6
DA:174,4
DA:176,2
DA:177,2
DA:178,2
DA:179,2
DA:183,38
DA:184,38
DA:189,2
DA:190,2
DA:191,2
DA:192,2
DA:193,2
DA:195,2
DA:197,2
DA:198,2
DA:201,12
DA:202,12
DA:203,8
DA:204,8
DA:205,8
DA:207,12
DA:209,44
DA:210,44
DA:213,2
DA:214,2
DA:215,2
DA:216,2
DA:217,2
DA:219,2
DA:221,36
DA:222,36
DA:225,10
DA:226,10
DA:227,6
DA:228,6
DA:229,6
DA:231,10
DA:233,42
DA:234,42
DA:239,36
DA:240,36
DA:241,36
DA:243,34
DA:244,34
DA:247,38
DA:248,38
DA:249,38
DA:250,38
DA:252,38
LF:142
LH:138
end_of_record
TN:
SF:/home/fed/Documents/clion-workspace/qt-try/src/utils/logger.cpp
FN:117,119,_ZN6optikg6Logger5debugERK7QString
FN:121,123,_ZN6optikg6Logger4infoERK7QString
FN:125,127,_ZN6optikg6Logger7warningERK7QString
FN:129,131,_ZN6optikg6Logger5errorERK7QString
FN:133,135,_ZN6optikg6Logger8criticalERK7QString
FN:137,148,_ZN6optikg6Logger8shutdownEv
FN:14,17,_ZN6optikg6Logger8instanceEv
FN:150,159,_ZNK6optikg6Logger13levelToStringENS_8LogLevelE
FN:161,165,_ZNK6optikg6Logger16getDefaultLogDirEv
FN:167,170,_ZNK6optikg6Logger23generateDefaultFileNameEv
FN:172,177,_ZN6optikg6Logger11writeToFileERK7QString
FN:180,231,_ZN6optikg6Logger16qtMessageHandlerE9QtMsgTypeRK18QMessageLogContextRK7QString
FN:19,22,_ZN6optikg6LoggerC2Ev
FN:233,236,_ZN6optikg6Logger23installQtMessageHandlerEb
FN:238,240,_ZN6optikg6Logger28restoreDefaultMessageHandlerEv
FN:24,26,_ZN6optikg6LoggerD2Ev
FN:28,78,_ZN6optikg6Logger10initializeERK7QStringS3_
FN:80,83,_ZN6optikg6Logger11setLogLevelENS_8LogLevelE
FN:85,88,_ZNK6optikg6Logger8logLevelEv
FN:90,115,_ZN6optikg6Logger3logENS_8LogLevelERK7QString
FNDA:2537,_ZN6optikg6Logger5debugERK7QString
FNDA:410,_ZN6optikg6Logger4infoERK7QString
FNDA:60,_ZN6optikg6Logger7warningERK7QString
FNDA:40238,_ZN6optikg6Logger5errorERK7QString
FNDA:0,_ZN6optikg6Logger8criticalERK7QString
FNDA:16,_ZN6optikg6Logger8shutdownEv
FNDA:43245,_ZN6optikg6Logger8instanceEv
FNDA:40708,_ZNK6optikg6Logger13levelToStringENS_8LogLevelE
FNDA:14,_ZNK6optikg6Logger16getDefaultLogDirEv
FNDA:14,_ZNK6optikg6Logger23generateDefaultFileNameEv
FNDA:40736,_ZN6optikg6Logger11writeToFileERK7QString
FNDA:0,_ZN6optikg6Logger16qtMessageHandlerE9QtMsgTypeRK18QMessageLogContextRK7QString
FNDA:16,_ZN6optikg6LoggerC2Ev
FNDA:0,_ZN6optikg6Logger23installQtMessageHandlerEb
FNDA:0,_ZN6optikg6Logger28restoreDefaultMessageHandlerEv
FNDA:16,_ZN6optikg6LoggerD2Ev
FNDA:14,_ZN6optikg6Logger10initializeERK7QStringS3_
FNDA:0,_ZN6optikg6Logger11setLogLevelENS_8LogLevelE
FNDA:0,_ZNK6optikg6Logger8logLevelEv
FNDA:43245,_ZN6optikg6Logger3logENS_8LogLevelERK7QString
FNF:20
FNH:14
DA:14,43245
DA:15,43245
DA:16,43245
DA:19,16
DA:20,16
DA:21,16
DA:22,16
DA:24,16
DA:25,16
DA:26,16
DA:28,14
DA:29,14
DA:31,14
DA:32,0
DA:36,14
DA:37,14
DA:38,14
DA:42,14
DA:43,14
DA:44,2
DA:45,0
DA:46,0
DA:51,14
DA:52,14
DA:53,14
DA:56,14
DA:59,14
DA:60,14
DA:61,0
DA:62,0
DA:65,14
DA:67,14
DA:70,28
DA:71,28
DA:72,28
DA:73,28
DA:75,14
DA:77,14
DA:78,14
DA:80,0
DA:81,0
DA:82,0
DA:83,0
DA:85,0
DA:86,0
DA:87,0
DA:88,0
DA:90,43245
DA:91,43245
DA:92,2537
DA:95,40708
DA:97,40708
DA:99,14
DA:101,0
DA:102,0
DA:106,40708
DA:107,40708
DA:108,40708
DA:109,81416
DA:110,81416
DA:111,81416
DA:112,40708
DA:114,40708
DA:115,40708
DA:117,2537
DA:118,2537
DA:119,2537
DA:121,410
DA:122,410
DA:123,410
DA:125,60
DA:126,60
DA:127,60
DA:129,40238
DA:130,40238
DA:131,40238
DA:133,0
DA:134,0
DA:135,0
DA:137,16
DA:138,16
DA:140,16
DA:141,28
DA:142,28
DA:144,14
DA:145,14
DA:146,14
DA:148,16
DA:150,40708
DA:151,40708
DA:152,0
DA:153,410
DA:154,60
DA:155,40238
DA:156,0
DA:157,0
DA:161,14
DA:163,14
DA:164,28
DA:165,14
DA:167,14
DA:168,14
DA:169,42
DA:170,14
DA:172,40736
DA:173,40736
DA:174,40736
DA:175,40736
DA:177,40736
DA:180,0
DA:183,0
DA:184,0
DA:185,0
DA:186,0
DA:187,0
DA:188,0
DA:189,0
DA:190,0
DA:191,0
DA:192,0
DA:193,0
DA:194,0
DA:195,0
DA:196,0
DA:197,0
DA:198,0
DA:200,0
DA:202,0
DA:204,0
DA:209,0
DA:212,0
DA:213,0
DA:214,0
DA:215,0
DA:217,0
DA:218,0
DA:219,0
DA:220,0
DA:221,0
DA:222,0
DA:223,0
DA:224,0
DA:225,0
DA:227,0
DA:229,0
DA:230,0
DA:231,0
DA:233,0
DA:234,0
DA:235,0
DA:236,0
DA:238,0
DA:239,0
DA:240,0
LF:154
LH:88
end_of_record
TN:
SF:/home/fed/Documents/clion-workspace/qt-try/src/utils/stylemanager.cpp
FN:14,33,_ZN6optikg12StyleManager10initializeEv
FN:35,53,_ZN6optikg12StyleManager14loadStyleSheetERK7QString
FN:55,73,_ZN6optikg12StyleManager26loadStyleSheetFromResourceERK7QString
FN:75,79,_ZN6optikg12StyleManager15applyStyleSheetERK7QString
FN:81,86,_ZN6optikg12StyleManager18reloadCurrentThemeEv
FN:9,12,_ZN6optikg12StyleManager8instanceEv
FNDA:0,_ZN6optikg12StyleManager10initializeEv
FNDA:0,_ZN6optikg12StyleManager14loadStyleSheetERK7QString
FNDA:0,_ZN6optikg12StyleManager26loadStyleSheetFromResourceERK7QString
FNDA:0,_ZN6optikg12StyleManager15applyStyleSheetERK7QString
FNDA:0,_ZN6optikg12StyleManager18reloadCurrentThemeEv
FNDA:0,_ZN6optikg12StyleManager8instanceEv
FNF:6
FNH:0
DA:9,0
DA:10,0
DA:11,0
DA:14,0
DA:16,0
DA:22,0
DA:24,0
DA:25,0
DA:26,0
DA:27,0
DA:31,0
DA:32,0
DA:35,0
DA:36,0
DA:37,0
DA:38,0
DA:39,0
DA:42,0
DA:43,0
DA:44,0
DA:47,0
DA:48,0
DA:49,0
DA:51,0
DA:52,0
DA:53,0
DA:55,0
DA:56,0
DA:57,0
DA:58,0
DA:59,0
DA:62,0
DA:63,0
DA:64,0
DA:67,0
DA:68,0
DA:69,0
DA:71,0
DA:72,0
DA:73,0
DA:75,0
DA:76,0
DA:77,0
DA:78,0
DA:79,0
DA:81,0
DA:83,0
DA:84,0
DA:85,0
LF:49
LH:0
end_of_record
